(dp1
S'id'
p2
(dp3
S'type'
p4
g2
sS'sortable'
p5
I1
sS'sql'
p6
S'INTEGER PRIMARY KEY AUTOINCREMENT'
p7
ssS'cod_curso'
p8
(dp9
g4
S'reference curso'
p10
sg5
I3
sg6
S'INTEGER REFERENCES curso(id) ON DELETE CASCADE'
p11
ssS'cod_alumno'
p12
(dp13
g4
S'reference alumno'
p14
sg5
I2
sg6
S'INTEGER REFERENCES alumno(id) ON DELETE CASCADE'
p15
ss.