(dp1
S'anios_experiencia'
p2
(dp3
S'type'
p4
S'integer'
p5
sS'sortable'
p6
I5
sS'sql'
p7
S'INTEGER'
p8
ssS'nombre_completo'
p9
(dp10
g4
S'string'
p11
sg6
I3
sg7
S'CHAR(512)'
p12
ssS'codigo'
p13
(dp14
g4
g11
sg6
I2
sg7
S'CHAR(512)'
p15
ssS'id'
p16
(dp17
g4
g16
sg6
I1
sg7
S'INTEGER PRIMARY KEY AUTOINCREMENT'
p18
ssS'especialidad'
p19
(dp20
g4
S'text'
p21
sg6
I4
sg7
S'TEXT'
p22
ss.