(dp1
S'output'
p2
S''
sS'layer'
p3
S'/home/alumno/web2py/applications/datos/views/default/detalle.html'
p4
sS'code'
p5
S'response.write(\'<!DOCTYPE html>\\n<html lang="\', escape=False)\nresponse.write(T.accepted_language or \'en\')\nresponse.write(\'" class="no-js"><!-- no-js need it for modernzr -->\\n  <head>\\n    \\n    <meta charset="utf-8" />\\t  \\t\\n    <!-- www.phpied.com/conditional-comments-block-downloads/ -->\\n    <!--[if IE]><![endif]-->    \\n    <!-- Always force latest IE rendering engine \\n\\t (even in intranet) & Chrome Frame \\n\\t Remove this if you use the .htaccess -->\\n    <meta http-equiv="X-UA-Compatible" content="IE=edge,chrome=1">\\n    \\n    <title>\', escape=False)\nresponse.write(response.title or request.application)\nresponse.write(\'</title>\\n    \\n    <!-- http://dev.w3.org/html5/markup/meta.name.html -->\\n    <meta name="application-name" content="\', escape=False)\nresponse.write(request.application)\nresponse.write(\'" />\\t\\n    \\n    <!-- Speaking of Google, don\\\'t forget to set your site up: \\n\\t http://google.com/webmasters -->\\n    <meta name="google-site-verification" content="" />\\n    \\n    <!--  Mobile Viewport Fix\\n\\t  j.mp/mobileviewport & davidbcalhoun.com/2010/viewport-metatag \\n\\t  device-width: Occupy full width of the screen in its current orientation\\n\\t  initial-scale = 1.0 retains dimensions instead of zooming out if page height > device height\\n\\t  maximum-scale = 1.0 retains dimensions instead of zooming in if page width < device width\\n      -->\\n    <meta name="viewport" content="width=device-width; initial-scale=1.0; maximum-scale=1.0">\\n    \\n    <!-- Place favicon.ico and apple-touch-icon.png in the root of your domain and delete these references -->\\n    <link rel="shortcut icon" href="\', escape=False)\nresponse.write(URL(\'static\',\'favicon.ico\'))\nresponse.write(\'" type="image/x-icon">\\n    <link rel="apple-touch-icon" href="\', escape=False)\nresponse.write(URL(\'static\',\'favicon.png\'))\nresponse.write(\'">\\n\\n    <!-- For the less-enabled mobile browsers like Opera Mini -->\\n    <link rel="stylesheet" media="handheld" href="\', escape=False)\nresponse.write(URL(\'static\',\'css/handheld.css\'))\nresponse.write(\'">\\n    \\n    <!-- All JavaScript at the bottom, except for Modernizr which enables HTML5 elements & feature detects -->\\n    <script src="\', escape=False)\nresponse.write(URL(\'static\',\'js/modernizr-1.7.min.js\'))\nresponse.write(\'"></script>\\n    \\n    \', escape=False)\n#------  require CSS and JS files for this page (read info in base.css) ------\nresponse.write(\'\\n    \', escape=False)\nresponse.files.append(URL(\'static\',\'css/base.css\'))\nresponse.write(\'\\n    \', escape=False)\nresponse.files.append(URL(\'static\',\'css/superfish.css\'))\nresponse.write(\'\\n    \', escape=False)\nresponse.files.append(URL(\'static\',\'js/superfish.js\'))\nresponse.write(\'\\n    \', escape=False)\n#------ include web2py specific js code (jquery, calendar, form stuff) ------\nresponse.write(\'\\n    \', escape=False)\nresponse.files.insert(0,URL(\'static\',\'js/jquery.js\'))\nresponse.files.insert(1,URL(\'static\',\'css/calendar.css\'))\nresponse.files.insert(2,URL(\'static\',\'js/calendar.js\'))\nfor _item in response.meta or []:\n    response.write(\'\\n     <meta name="\', escape=False)\n    response.write(_item)\n    response.write(\'" content="\', escape=False)\n    response.write(response.meta[_item])\n    response.write(\'" />\', escape=False)\n    pass\nfor _k,_file in enumerate(response.files or []):\n    if _file in response.files[:_k]:\n        continue\n    _file0=_file.lower().split(\'?\')[0]\n    if _file0.endswith(\'.css\'):\n        response.write(\'\\n     <link href="\', escape=False)\n        response.write(_file)\n        response.write(\'" rel="stylesheet" type="text/css" />\', escape=False)\n    elif _file0.endswith(\'.js\'):\n        response.write(\'\\n     <script src="\', escape=False)\n        response.write(_file)\n        response.write(\'" type="text/javascript"></script>\', escape=False)\n        pass\n    pass\nresponse.write(\'\\n    <script type="text/javascript"><!--\\n    // These variables are used by the web2py_ajax_init function in web2py_ajax.js (which is loaded below).\\n    var w2p_ajax_confirm_message = "\', escape=False)\nresponse.write(T(\'Are you sure you want to delete this object?\'))\nresponse.write(\'";\\n    var w2p_ajax_date_format = "\', escape=False)\nresponse.write(T(\'%Y-%m-%d\'))\nresponse.write(\'";\\n    var w2p_ajax_datetime_format = "\', escape=False)\nresponse.write(T(\'%Y-%m-%d %H:%M:%S\'))\nresponse.write(\'";\\n    //--></script>\\n    <script src="\', escape=False)\nresponse.write(URL(\'static\',\'js/web2py_ajax.js\'))\nresponse.write(\'" type="text/javascript"></script>\\n\', escape=False)\nresponse.write(\'\\n\\n    \', escape=False)\n#using sidebars need to know what sidebar you want to use\n#prior of using it, because of static width size of content, you can use\n#left_sidebar, right_sidebar, both or none (False left and right)\nleft_sidebar_enabled = globals().get(\'left_sidebar_enabled\',False)\nright_sidebar_enabled = globals().get(\'right_sidebar_enabled\',False)\nif left_sidebar_enabled and right_sidebar_enabled: width_content=\'63%\'\nelif left_sidebar_enabled != right_sidebar_enabled: width_content=\'740px\'\nelse: width_content=\'100%\'\nif left_sidebar_enabled: left_sidebar_style = \'style="display: block;"\'\nelse: left_sidebar_style = \'style="display: none;"\'\nif right_sidebar_enabled: right_sidebar_style = \'style="display: block;"\'\nelse: right_sidebar_style = \'style="display: none;"\'\nstyle_content = \'style="width: %s"\' % width_content\nresponse.write(\'\\n  </head>\\n  \\n  <!-- paulirish.com/2008/conditional-stylesheets-vs-css-hacks-answer-neither/ -->\\t\\n  <!--[if lt IE 7 ]> <body class="ie6"> <![endif]-->\\n  <!--[if IE 7 ]>    <body class="ie7"> <![endif]-->\\n  <!--[if IE 8 ]>    <body class="ie8"> <![endif]-->\\n  <!--[if IE 9 ]>    <body class="ie9"> <![endif]-->\\n  <!--[if (gt IE 9)|!(IE)]><!--> <body> <!--<![endif]-->\\n    \\n    <div class="flash">\', escape=False)\nresponse.write(response.flash or \'\')\nresponse.write(\'</div> <!-- notification div -->\\n    \\n    <div id="container">\\t      \\t\\t      \\t\\n      \\n      <div id="wrapper">\\t\\t\\n\\t\\n\\t<div id="header"> <!-- header and login nav -->\\n\\t  \', escape=False)\nresponse.write(\' <!-- this is default header -->\\n\\t  \', escape=False)\ntry:\n    response.write(auth.navbar(action=URL(\'default\',\'user\')))\nexcept:pass\nresponse.write(\'\\t\\t          \\n\\t  <h1><span id="appname">\', escape=False)\nresponse.write(request.application.capitalize())\nresponse.write(\'</span>App</h1>\\n\\t  <div style="clear: both;"></div><!-- Clear the divs -->\\n\\t  \', escape=False)\nresponse.write(\'\\t\\t\\t\\t  \\t\\t\\t\\t\\t  \\n\\t</div><!-- header  -->\\n\\t\\n\\t<div id="statusbar"><!-- statusbar is menu zone -->\\n\\t  \', escape=False)\nresponse.write(\' <!-- this is default statusbar -->\\n\\t  \', escape=False)\n#------ superfish menu ------\nresponse.write(\'\\n\\t  \', escape=False)\nresponse.write(MENU(response.menu,_class=\'sf-menu\'))\nresponse.write(\'\\n\\t  <script type="text/javascript">\\n\\t    jQuery(document).ready(function(){\\n\\t    jQuery(\\\'ul.sf-menu\\\').superfish();});\\n\\t  </script>\\n\\t  <div style="clear: both;"></div><!-- Clear the divs -->\\t\\n\\t  \', escape=False)\nresponse.write(\'\\t\\t\\t\\t\\n\\t</div><!-- statusbar -->\\n\\t\\n\\t<div id="page"> <!-- Here my central body -->\\t  \\n\\n\\t  \', escape=False)\nif left_sidebar_enabled:\n    response.write(\'\\n          <div id="left_sidebar" \', escape=False)\n    response.write(XML(left_sidebar_style))\n    response.write(\' >\\n            <div style="padding: 4px;">\\n\\t      \', escape=False)\n    response.write(\'Content Left Sidebar\', escape=False)\n    response.write(\'\\t\\t  \\n            </div>\\n          </div><!-- left_sidebar -->\\n\\t  \', escape=False)\n    pass\nresponse.write(\'\\n\\n\\t  <!-- content -->\\n\\t  <div id="content" \', escape=False)\nresponse.write(XML(style_content))\nresponse.write(\' >\\n\\t    \', escape=False)\nresponse.write(\'\\n\\n\', escape=False)\nfor dato in alumno:\n    response.write(\'\\n    <h1>\', escape=False)\n    response.write(dato.nombre)\n    response.write(\' \', escape=False)\n    dato.apellido\n    response.write(\'</h1>\\n    <h2>\', escape=False)\n    codigo estudiante: {{data.codigo\n    response.write(\'</h2>\\n    <p>\\n    \', escape=False)\n    response.write(dato.nombres)\n    response.write(\' nacio el \', escape=False)\n    dato.fnacimiento\n    response.write(\'.\\n    tiene como pasatiempo \', escape=False)\n    dato.hobby\n    response.write(".<br>\\n    su correo electronico es:\\n    <strong><a href=\'mailto:", escape=False)\n    response.write(dato.email)\n    response.write("\'>", escape=False)\n    dato.email\n    response.write(\'</a></strong>\\n    </p>\\n    \\n\', escape=False)\n    pass\nresponse.write(\'\\n\', escape=False)\nresponse.write(\'\\t\\n\\t  </div>\\n\\t  <!-- content -->\\n\\n\\t  \', escape=False)\nif right_sidebar_enabled:\n    response.write(\'\\n          <div id="right_sidebar" \', escape=False)\n    response.write(XML(right_sidebar_style))\n    response.write(\' >\\n            <div style="padding: 4px;">\\n              \', escape=False)\n    response.write(\'Content Right Sidebar\', escape=False)\n    response.write(\'\\n            </div>\\n\\t  </div><!-- right_sidebar -->\\n          \', escape=False)\n    pass\nresponse.write(\'\\n\\n\\n\\t  <div style="clear: both;"></div><!-- Clear the divs -->\\n\\t  \\n\\t</div><!-- page -->\\t\\t\\t\\t\\t\\t\\t\\n\\t\\n\\t<div id="footer">\\n\\t  \', escape=False)\nresponse.write(\' <!-- this is default footer -->\\n\\t  <a href="http://www.web2py.com/" style="float: left; padding-right: 6px;">\\n\\t    <img src="\', escape=False)\nresponse.write(URL(\'static\',\'images/poweredby.png\'))\nresponse.write(\'"/>\\n\\t  </a>\\n\\t  \', escape=False)\nresponse.write(T(\'Copyright\'))\nresponse.write(\' &#169; 2010\\t\\t\\t\\t\\n\\t  <div style="clear: both;"></div><!-- Clear the divs -->\\n\\t  \', escape=False)\nresponse.write(\'\\n\\n\\t</div><!-- footer -->\\t\\t\\t\\n      </div><!-- wrapper -->\\n    </div><!-- container -->\\t\\t\\n    \\n    <!--[if lt IE 7 ]>\\n\\t<script src="\', escape=False)\nresponse.write(URL(\'static\',\'js/dd_belatedpng.js\'))\nresponse.write(\'"></script>\\n\\t<script> DD_belatedPNG.fix(\\\'img, .png_bg\\\'); //fix any <img> or .png_bg background-images </script>\\n\\t<![endif]-->\\n    \\n    <!-- asynchronous google analytics: mathiasbynens.be/notes/async-analytics-snippet \\n\\t change the UA-XXXXX-X to be your site\\\'s ID -->\\n    <!--   \\n\\t   <script>\\n\\t     var _gaq = [[\\\'_setAccount\\\', \\\'UA-XXXXX-X\\\'], [\\\'_trackPageview\\\']];\\n\\t     (function(d, t) {\\n\\t     var g = d.createElement(t),\\n\\t     s = d.getElementsByTagName(t)[0];\\n\\t     g.async = true;\\n\\t     g.src = \\\'//www.google-analytics.com/ga.js\\\';\\n\\t     s.parentNode.insertBefore(g, s);\\n\\t     })(document, \\\'script\\\');\\n\\t   </script>\\n\\t   -->    \\n  </body>\\n</html>\\n\', escape=False)'
p6
sS'snapshot'
p7
(dp8
S'exception'
p9
(dp10
S'__getslice__'
p11
S"<method-wrapper '__getslice__' of exceptions.SyntaxError object>"
p12
sS'text'
p13
S"'    codigo estudiante: {{data.codigo\\n'"
p14
sS'__str__'
p15
S"<method-wrapper '__str__' of exceptions.SyntaxError object>"
p16
sS'__reduce__'
p17
S'<built-in method __reduce__ of exceptions.SyntaxError object>'
p18
sS'__dict__'
p19
S'{}'
p20
sS'__sizeof__'
p21
S'<built-in method __sizeof__ of exceptions.SyntaxError object>'
p22
sS'__init__'
p23
S"<method-wrapper '__init__' of exceptions.SyntaxError object>"
p24
sS'__setattr__'
p25
S"<method-wrapper '__setattr__' of exceptions.SyntaxError object>"
p26
sS'__reduce_ex__'
p27
S'<built-in method __reduce_ex__ of exceptions.SyntaxError object>'
p28
sS'__new__'
p29
S'<built-in method __new__ of type object>'
p30
sS'__format__'
p31
S'<built-in method __format__ of exceptions.SyntaxError object>'
p32
sS'__class__'
p33
S"<type 'exceptions.SyntaxError'>"
p34
sS'filename'
p35
S"'/home/alumno/web2py/applications/datos/views/default/detalle.html'"
p36
sS'lineno'
p37
S'107'
p38
sS'msg'
p39
S"'invalid syntax'"
p40
sS'__doc__'
p41
S"'Invalid syntax.'"
p42
sS'__getitem__'
p43
S"<method-wrapper '__getitem__' of exceptions.SyntaxError object>"
p44
sS'__setstate__'
p45
S'<built-in method __setstate__ of exceptions.SyntaxError object>'
p46
sS'__getattribute__'
p47
S"<method-wrapper '__getattribute__' of exceptions.SyntaxError object>"
p48
sS'print_file_and_line'
p49
S'None'
p50
sS'args'
p51
S"('invalid syntax', ('/home/alumno/web2py/applications/datos/views/default/detalle.html', 107, 21, '    codigo estudiante: {{data.codigo\\n'))"
p52
sS'__subclasshook__'
p53
S'<built-in method __subclasshook__ of type object>'
p54
sS'offset'
p55
S'21'
p56
sS'__unicode__'
p57
S'<built-in method __unicode__ of exceptions.SyntaxError object>'
p58
sS'__delattr__'
p59
S"<method-wrapper '__delattr__' of exceptions.SyntaxError object>"
p60
sS'__repr__'
p61
S"<method-wrapper '__repr__' of exceptions.SyntaxError object>"
p62
sS'__hash__'
p63
S"<method-wrapper '__hash__' of exceptions.SyntaxError object>"
p64
ssS'evalue'
p65
S'invalid syntax (detalle.html, line 107)'
p66
sS'request'
p67
ccopy_reg
_reconstructor
p68
(cgluon.html
BEAUTIFY
p69
c__builtin__
object
p70
NtRp71
(dp72
S'attributes'
p73
(dp74
sS'components'
p75
(lp76
g68
(cgluon.html
TABLE
p77
g70
NtRp78
(dp79
g73
(dp80
S'level'
p81
I5
ssS'parent'
p82
Nsg75
(lp83
g68
(cgluon.html
TR
p84
g70
NtRp85
(dp86
g73
(dp87
sg82
g78
sg75
(lp88
g68
(cgluon.html
TD
p89
g70
NtRp90
(dp91
g73
(dp92
S'_style'
p93
S'font-weight:bold;'
p94
ssg82
g85
sg75
(lp95
S'ajax'
p96
asbag68
(g89
g70
NtRp97
(dp98
g73
(dp99
S'_valign'
p100
S'top'
p101
ssg82
g85
sg75
(lp102
S':'
asbag68
(g89
g70
NtRp103
(dp104
g73
(dp105
sg82
g85
sg75
(lp106
g68
(g69
g70
NtRp107
(dp108
g73
(dp109
g81
I5
ssg82
g103
sg75
(lp110
S'False'
p111
asbasbasbag68
(g84
g70
NtRp112
(dp113
g73
(dp114
sg82
g78
sg75
(lp115
g68
(g89
g70
NtRp116
(dp117
g73
(dp118
g93
g94
ssg82
g112
sg75
(lp119
S'application'
p120
asbag68
(g89
g70
NtRp121
(dp122
g73
(dp123
g100
g101
ssg82
g112
sg75
(lp124
S':'
asbag68
(g89
g70
NtRp125
(dp126
g73
(dp127
sg82
g112
sg75
(lp128
g68
(g69
g70
NtRp129
(dp130
g73
(dp131
g81
I5
ssg82
g125
sg75
(lp132
S'datos'
p133
asbasbasbag68
(g84
g70
NtRp134
(dp135
g73
(dp136
sg82
g78
sg75
(lp137
g68
(g89
g70
NtRp138
(dp139
g73
(dp140
g93
g94
ssg82
g134
sg75
(lp141
g51
asbag68
(g89
g70
NtRp142
(dp143
g73
(dp144
g100
g101
ssg82
g134
sg75
(lp145
S':'
asbag68
(g89
g70
NtRp146
(dp147
g73
(dp148
sg82
g134
sg75
(lp149
g68
(g69
g70
NtRp150
(dp151
g73
(dp152
g81
I5
ssg82
g146
sg75
(lp153
g68
(g77
g70
NtRp154
(dp155
g73
(dp156
g81
I4
ssg82
Nsg75
(lp157
g68
(g84
g70
NtRp158
(dp159
g73
(dp160
sg82
g154
sg75
(lp161
g68
(g89
g70
NtRp162
(dp163
g73
(dp164
sg82
g158
sg75
(lp165
g68
(g69
g70
NtRp166
(dp167
g73
(dp168
g81
I4
ssg82
g162
sg75
(lp169
S'a001'
p170
asbasbasbasbasbasbasbag68
(g84
g70
NtRp171
(dp172
g73
(dp173
sg82
g78
sg75
(lp174
g68
(g89
g70
NtRp175
(dp176
g73
(dp177
g93
g94
ssg82
g171
sg75
(lp178
S'body'
p179
asbag68
(g89
g70
NtRp180
(dp181
g73
(dp182
g100
g101
ssg82
g171
sg75
(lp183
S':'
asbag68
(g89
g70
NtRp184
(dp185
g73
(dp186
sg82
g171
sg75
(lp187
g68
(g69
g70
NtRp188
(dp189
g73
(dp190
g81
I5
ssg82
g184
sg75
(lp191
S'<cStringIO.StringO object at 0x9a4b5a0>'
p192
asbasbasbag68
(g84
g70
NtRp193
(dp194
g73
(dp195
sg82
g78
sg75
(lp196
g68
(g89
g70
NtRp197
(dp198
g73
(dp199
g93
g94
ssg82
g193
sg75
(lp200
S'client'
p201
asbag68
(g89
g70
NtRp202
(dp203
g73
(dp204
g100
g101
ssg82
g193
sg75
(lp205
S':'
asbag68
(g89
g70
NtRp206
(dp207
g73
(dp208
sg82
g193
sg75
(lp209
g68
(g69
g70
NtRp210
(dp211
g73
(dp212
g81
I5
ssg82
g206
sg75
(lp213
S'127.0.0.1'
p214
asbasbasbag68
(g84
g70
NtRp215
(dp216
g73
(dp217
sg82
g78
sg75
(lp218
g68
(g89
g70
NtRp219
(dp220
g73
(dp221
g93
g94
ssg82
g215
sg75
(lp222
S'controller'
p223
asbag68
(g89
g70
NtRp224
(dp225
g73
(dp226
g100
g101
ssg82
g215
sg75
(lp227
S':'
asbag68
(g89
g70
NtRp228
(dp229
g73
(dp230
sg82
g215
sg75
(lp231
g68
(g69
g70
NtRp232
(dp233
g73
(dp234
g81
I5
ssg82
g228
sg75
(lp235
S'default'
p236
asbasbasbag68
(g84
g70
NtRp237
(dp238
g73
(dp239
sg82
g78
sg75
(lp240
g68
(g89
g70
NtRp241
(dp242
g73
(dp243
g93
g94
ssg82
g237
sg75
(lp244
S'cookies'
p245
asbag68
(g89
g70
NtRp246
(dp247
g73
(dp248
g100
g101
ssg82
g237
sg75
(lp249
S':'
asbag68
(g89
g70
NtRp250
(dp251
g73
(dp252
sg82
g237
sg75
(lp253
g68
(g69
g70
NtRp254
(dp255
g73
(dp256
g81
I5
ssg82
g250
sg75
(lp257
g68
(g77
g70
NtRp258
(dp259
g73
(dp260
g81
I4
ssg82
Nsg75
(lp261
g68
(g84
g70
NtRp262
(dp263
g73
(dp264
sg82
g258
sg75
(lp265
g68
(g89
g70
NtRp266
(dp267
g73
(dp268
g93
g94
ssg82
g262
sg75
(lp269
S'session_id_about_me'
p270
asbag68
(g89
g70
NtRp271
(dp272
g73
(dp273
g100
g101
ssg82
g262
sg75
(lp274
S':'
asbag68
(g89
g70
NtRp275
(dp276
g73
(dp277
sg82
g262
sg75
(lp278
g68
(g69
g70
NtRp279
(dp280
g73
(dp281
g81
I4
ssg82
g275
sg75
(lp282
g68
(g77
g70
NtRp283
(dp284
g73
(dp285
g81
I3
ssg82
Nsg75
(lp286
g68
(g84
g70
NtRp287
(dp288
g73
(dp289
sg82
g283
sg75
(lp290
g68
(g89
g70
NtRp291
(dp292
g73
(dp293
g93
g94
ssg82
g287
sg75
(lp294
S'comment'
p295
asbag68
(g89
g70
NtRp296
(dp297
g73
(dp298
g100
g101
ssg82
g287
sg75
(lp299
S':'
asbag68
(g89
g70
NtRp300
(dp301
g73
(dp302
sg82
g287
sg75
(lp303
g68
(g69
g70
NtRp304
(dp305
g73
(dp306
g81
I3
ssg82
g300
sg75
(lp307
S''
asbasbasbag68
(g84
g70
NtRp308
(dp309
g73
(dp310
sg82
g283
sg75
(lp311
g68
(g89
g70
NtRp312
(dp313
g73
(dp314
g93
g94
ssg82
g308
sg75
(lp315
S'domain'
p316
asbag68
(g89
g70
NtRp317
(dp318
g73
(dp319
g100
g101
ssg82
g308
sg75
(lp320
S':'
asbag68
(g89
g70
NtRp321
(dp322
g73
(dp323
sg82
g308
sg75
(lp324
g68
(g69
g70
NtRp325
(dp326
g73
(dp327
g81
I3
ssg82
g321
sg75
(lp328
S''
asbasbasbag68
(g84
g70
NtRp329
(dp330
g73
(dp331
sg82
g283
sg75
(lp332
g68
(g89
g70
NtRp333
(dp334
g73
(dp335
g93
g94
ssg82
g329
sg75
(lp336
S'expires'
p337
asbag68
(g89
g70
NtRp338
(dp339
g73
(dp340
g100
g101
ssg82
g329
sg75
(lp341
S':'
asbag68
(g89
g70
NtRp342
(dp343
g73
(dp344
sg82
g329
sg75
(lp345
g68
(g69
g70
NtRp346
(dp347
g73
(dp348
g81
I3
ssg82
g342
sg75
(lp349
S''
asbasbasbag68
(g84
g70
NtRp350
(dp351
g73
(dp352
sg82
g283
sg75
(lp353
g68
(g89
g70
NtRp354
(dp355
g73
(dp356
g93
g94
ssg82
g350
sg75
(lp357
S'httponly'
p358
asbag68
(g89
g70
NtRp359
(dp360
g73
(dp361
g100
g101
ssg82
g350
sg75
(lp362
S':'
asbag68
(g89
g70
NtRp363
(dp364
g73
(dp365
sg82
g350
sg75
(lp366
g68
(g69
g70
NtRp367
(dp368
g73
(dp369
g81
I3
ssg82
g363
sg75
(lp370
S''
asbasbasbag68
(g84
g70
NtRp371
(dp372
g73
(dp373
sg82
g283
sg75
(lp374
g68
(g89
g70
NtRp375
(dp376
g73
(dp377
g93
g94
ssg82
g371
sg75
(lp378
S'max-age'
p379
asbag68
(g89
g70
NtRp380
(dp381
g73
(dp382
g100
g101
ssg82
g371
sg75
(lp383
S':'
asbag68
(g89
g70
NtRp384
(dp385
g73
(dp386
sg82
g371
sg75
(lp387
g68
(g69
g70
NtRp388
(dp389
g73
(dp390
g81
I3
ssg82
g384
sg75
(lp391
S''
asbasbasbag68
(g84
g70
NtRp392
(dp393
g73
(dp394
sg82
g283
sg75
(lp395
g68
(g89
g70
NtRp396
(dp397
g73
(dp398
g93
g94
ssg82
g392
sg75
(lp399
S'path'
p400
asbag68
(g89
g70
NtRp401
(dp402
g73
(dp403
g100
g101
ssg82
g392
sg75
(lp404
S':'
asbag68
(g89
g70
NtRp405
(dp406
g73
(dp407
sg82
g392
sg75
(lp408
g68
(g69
g70
NtRp409
(dp410
g73
(dp411
g81
I3
ssg82
g405
sg75
(lp412
S''
asbasbasbag68
(g84
g70
NtRp413
(dp414
g73
(dp415
sg82
g283
sg75
(lp416
g68
(g89
g70
NtRp417
(dp418
g73
(dp419
g93
g94
ssg82
g413
sg75
(lp420
S'secure'
p421
asbag68
(g89
g70
NtRp422
(dp423
g73
(dp424
g100
g101
ssg82
g413
sg75
(lp425
S':'
asbag68
(g89
g70
NtRp426
(dp427
g73
(dp428
sg82
g413
sg75
(lp429
g68
(g69
g70
NtRp430
(dp431
g73
(dp432
g81
I3
ssg82
g426
sg75
(lp433
S''
asbasbasbag68
(g84
g70
NtRp434
(dp435
g73
(dp436
sg82
g283
sg75
(lp437
g68
(g89
g70
NtRp438
(dp439
g73
(dp440
g93
g94
ssg82
g434
sg75
(lp441
S'version'
p442
asbag68
(g89
g70
NtRp443
(dp444
g73
(dp445
g100
g101
ssg82
g434
sg75
(lp446
S':'
asbag68
(g89
g70
NtRp447
(dp448
g73
(dp449
sg82
g434
sg75
(lp450
g68
(g69
g70
NtRp451
(dp452
g73
(dp453
g81
I3
ssg82
g447
sg75
(lp454
S''
asbasbasbasbasbasbasbag68
(g84
g70
NtRp455
(dp456
g73
(dp457
sg82
g258
sg75
(lp458
g68
(g89
g70
NtRp459
(dp460
g73
(dp461
g93
g94
ssg82
g455
sg75
(lp462
S'session_id_admin'
p463
asbag68
(g89
g70
NtRp464
(dp465
g73
(dp466
g100
g101
ssg82
g455
sg75
(lp467
S':'
asbag68
(g89
g70
NtRp468
(dp469
g73
(dp470
sg82
g455
sg75
(lp471
g68
(g69
g70
NtRp472
(dp473
g73
(dp474
g81
I4
ssg82
g468
sg75
(lp475
g68
(g77
g70
NtRp476
(dp477
g73
(dp478
g81
I3
ssg82
Nsg75
(lp479
g68
(g84
g70
NtRp480
(dp481
g73
(dp482
sg82
g476
sg75
(lp483
g68
(g89
g70
NtRp484
(dp485
g73
(dp486
g93
g94
ssg82
g480
sg75
(lp487
g295
asbag68
(g89
g70
NtRp488
(dp489
g73
(dp490
g100
g101
ssg82
g480
sg75
(lp491
S':'
asbag68
(g89
g70
NtRp492
(dp493
g73
(dp494
sg82
g480
sg75
(lp495
g68
(g69
g70
NtRp496
(dp497
g73
(dp498
g81
I3
ssg82
g492
sg75
(lp499
S''
asbasbasbag68
(g84
g70
NtRp500
(dp501
g73
(dp502
sg82
g476
sg75
(lp503
g68
(g89
g70
NtRp504
(dp505
g73
(dp506
g93
g94
ssg82
g500
sg75
(lp507
g316
asbag68
(g89
g70
NtRp508
(dp509
g73
(dp510
g100
g101
ssg82
g500
sg75
(lp511
S':'
asbag68
(g89
g70
NtRp512
(dp513
g73
(dp514
sg82
g500
sg75
(lp515
g68
(g69
g70
NtRp516
(dp517
g73
(dp518
g81
I3
ssg82
g512
sg75
(lp519
S''
asbasbasbag68
(g84
g70
NtRp520
(dp521
g73
(dp522
sg82
g476
sg75
(lp523
g68
(g89
g70
NtRp524
(dp525
g73
(dp526
g93
g94
ssg82
g520
sg75
(lp527
g337
asbag68
(g89
g70
NtRp528
(dp529
g73
(dp530
g100
g101
ssg82
g520
sg75
(lp531
S':'
asbag68
(g89
g70
NtRp532
(dp533
g73
(dp534
sg82
g520
sg75
(lp535
g68
(g69
g70
NtRp536
(dp537
g73
(dp538
g81
I3
ssg82
g532
sg75
(lp539
S''
asbasbasbag68
(g84
g70
NtRp540
(dp541
g73
(dp542
sg82
g476
sg75
(lp543
g68
(g89
g70
NtRp544
(dp545
g73
(dp546
g93
g94
ssg82
g540
sg75
(lp547
g358
asbag68
(g89
g70
NtRp548
(dp549
g73
(dp550
g100
g101
ssg82
g540
sg75
(lp551
S':'
asbag68
(g89
g70
NtRp552
(dp553
g73
(dp554
sg82
g540
sg75
(lp555
g68
(g69
g70
NtRp556
(dp557
g73
(dp558
g81
I3
ssg82
g552
sg75
(lp559
S''
asbasbasbag68
(g84
g70
NtRp560
(dp561
g73
(dp562
sg82
g476
sg75
(lp563
g68
(g89
g70
NtRp564
(dp565
g73
(dp566
g93
g94
ssg82
g560
sg75
(lp567
g379
asbag68
(g89
g70
NtRp568
(dp569
g73
(dp570
g100
g101
ssg82
g560
sg75
(lp571
S':'
asbag68
(g89
g70
NtRp572
(dp573
g73
(dp574
sg82
g560
sg75
(lp575
g68
(g69
g70
NtRp576
(dp577
g73
(dp578
g81
I3
ssg82
g572
sg75
(lp579
S''
asbasbasbag68
(g84
g70
NtRp580
(dp581
g73
(dp582
sg82
g476
sg75
(lp583
g68
(g89
g70
NtRp584
(dp585
g73
(dp586
g93
g94
ssg82
g580
sg75
(lp587
g400
asbag68
(g89
g70
NtRp588
(dp589
g73
(dp590
g100
g101
ssg82
g580
sg75
(lp591
S':'
asbag68
(g89
g70
NtRp592
(dp593
g73
(dp594
sg82
g580
sg75
(lp595
g68
(g69
g70
NtRp596
(dp597
g73
(dp598
g81
I3
ssg82
g592
sg75
(lp599
S''
asbasbasbag68
(g84
g70
NtRp600
(dp601
g73
(dp602
sg82
g476
sg75
(lp603
g68
(g89
g70
NtRp604
(dp605
g73
(dp606
g93
g94
ssg82
g600
sg75
(lp607
g421
asbag68
(g89
g70
NtRp608
(dp609
g73
(dp610
g100
g101
ssg82
g600
sg75
(lp611
S':'
asbag68
(g89
g70
NtRp612
(dp613
g73
(dp614
sg82
g600
sg75
(lp615
g68
(g69
g70
NtRp616
(dp617
g73
(dp618
g81
I3
ssg82
g612
sg75
(lp619
S''
asbasbasbag68
(g84
g70
NtRp620
(dp621
g73
(dp622
sg82
g476
sg75
(lp623
g68
(g89
g70
NtRp624
(dp625
g73
(dp626
g93
g94
ssg82
g620
sg75
(lp627
g442
asbag68
(g89
g70
NtRp628
(dp629
g73
(dp630
g100
g101
ssg82
g620
sg75
(lp631
S':'
asbag68
(g89
g70
NtRp632
(dp633
g73
(dp634
sg82
g620
sg75
(lp635
g68
(g69
g70
NtRp636
(dp637
g73
(dp638
g81
I3
ssg82
g632
sg75
(lp639
S''
asbasbasbasbasbasbasbag68
(g84
g70
NtRp640
(dp641
g73
(dp642
sg82
g258
sg75
(lp643
g68
(g89
g70
NtRp644
(dp645
g73
(dp646
g93
g94
ssg82
g640
sg75
(lp647
S'session_id_datos'
p648
asbag68
(g89
g70
NtRp649
(dp650
g73
(dp651
g100
g101
ssg82
g640
sg75
(lp652
S':'
asbag68
(g89
g70
NtRp653
(dp654
g73
(dp655
sg82
g640
sg75
(lp656
g68
(g69
g70
NtRp657
(dp658
g73
(dp659
g81
I4
ssg82
g653
sg75
(lp660
g68
(g77
g70
NtRp661
(dp662
g73
(dp663
g81
I3
ssg82
Nsg75
(lp664
g68
(g84
g70
NtRp665
(dp666
g73
(dp667
sg82
g661
sg75
(lp668
g68
(g89
g70
NtRp669
(dp670
g73
(dp671
g93
g94
ssg82
g665
sg75
(lp672
g295
asbag68
(g89
g70
NtRp673
(dp674
g73
(dp675
g100
g101
ssg82
g665
sg75
(lp676
S':'
asbag68
(g89
g70
NtRp677
(dp678
g73
(dp679
sg82
g665
sg75
(lp680
g68
(g69
g70
NtRp681
(dp682
g73
(dp683
g81
I3
ssg82
g677
sg75
(lp684
S''
asbasbasbag68
(g84
g70
NtRp685
(dp686
g73
(dp687
sg82
g661
sg75
(lp688
g68
(g89
g70
NtRp689
(dp690
g73
(dp691
g93
g94
ssg82
g685
sg75
(lp692
g316
asbag68
(g89
g70
NtRp693
(dp694
g73
(dp695
g100
g101
ssg82
g685
sg75
(lp696
S':'
asbag68
(g89
g70
NtRp697
(dp698
g73
(dp699
sg82
g685
sg75
(lp700
g68
(g69
g70
NtRp701
(dp702
g73
(dp703
g81
I3
ssg82
g697
sg75
(lp704
S''
asbasbasbag68
(g84
g70
NtRp705
(dp706
g73
(dp707
sg82
g661
sg75
(lp708
g68
(g89
g70
NtRp709
(dp710
g73
(dp711
g93
g94
ssg82
g705
sg75
(lp712
g337
asbag68
(g89
g70
NtRp713
(dp714
g73
(dp715
g100
g101
ssg82
g705
sg75
(lp716
S':'
asbag68
(g89
g70
NtRp717
(dp718
g73
(dp719
sg82
g705
sg75
(lp720
g68
(g69
g70
NtRp721
(dp722
g73
(dp723
g81
I3
ssg82
g717
sg75
(lp724
S''
asbasbasbag68
(g84
g70
NtRp725
(dp726
g73
(dp727
sg82
g661
sg75
(lp728
g68
(g89
g70
NtRp729
(dp730
g73
(dp731
g93
g94
ssg82
g725
sg75
(lp732
g358
asbag68
(g89
g70
NtRp733
(dp734
g73
(dp735
g100
g101
ssg82
g725
sg75
(lp736
S':'
asbag68
(g89
g70
NtRp737
(dp738
g73
(dp739
sg82
g725
sg75
(lp740
g68
(g69
g70
NtRp741
(dp742
g73
(dp743
g81
I3
ssg82
g737
sg75
(lp744
S''
asbasbasbag68
(g84
g70
NtRp745
(dp746
g73
(dp747
sg82
g661
sg75
(lp748
g68
(g89
g70
NtRp749
(dp750
g73
(dp751
g93
g94
ssg82
g745
sg75
(lp752
g379
asbag68
(g89
g70
NtRp753
(dp754
g73
(dp755
g100
g101
ssg82
g745
sg75
(lp756
S':'
asbag68
(g89
g70
NtRp757
(dp758
g73
(dp759
sg82
g745
sg75
(lp760
g68
(g69
g70
NtRp761
(dp762
g73
(dp763
g81
I3
ssg82
g757
sg75
(lp764
S''
asbasbasbag68
(g84
g70
NtRp765
(dp766
g73
(dp767
sg82
g661
sg75
(lp768
g68
(g89
g70
NtRp769
(dp770
g73
(dp771
g93
g94
ssg82
g765
sg75
(lp772
g400
asbag68
(g89
g70
NtRp773
(dp774
g73
(dp775
g100
g101
ssg82
g765
sg75
(lp776
S':'
asbag68
(g89
g70
NtRp777
(dp778
g73
(dp779
sg82
g765
sg75
(lp780
g68
(g69
g70
NtRp781
(dp782
g73
(dp783
g81
I3
ssg82
g777
sg75
(lp784
S''
asbasbasbag68
(g84
g70
NtRp785
(dp786
g73
(dp787
sg82
g661
sg75
(lp788
g68
(g89
g70
NtRp789
(dp790
g73
(dp791
g93
g94
ssg82
g785
sg75
(lp792
g421
asbag68
(g89
g70
NtRp793
(dp794
g73
(dp795
g100
g101
ssg82
g785
sg75
(lp796
S':'
asbag68
(g89
g70
NtRp797
(dp798
g73
(dp799
sg82
g785
sg75
(lp800
g68
(g69
g70
NtRp801
(dp802
g73
(dp803
g81
I3
ssg82
g797
sg75
(lp804
S''
asbasbasbag68
(g84
g70
NtRp805
(dp806
g73
(dp807
sg82
g661
sg75
(lp808
g68
(g89
g70
NtRp809
(dp810
g73
(dp811
g93
g94
ssg82
g805
sg75
(lp812
g442
asbag68
(g89
g70
NtRp813
(dp814
g73
(dp815
g100
g101
ssg82
g805
sg75
(lp816
S':'
asbag68
(g89
g70
NtRp817
(dp818
g73
(dp819
sg82
g805
sg75
(lp820
g68
(g69
g70
NtRp821
(dp822
g73
(dp823
g81
I3
ssg82
g817
sg75
(lp824
S''
asbasbasbasbasbasbasbag68
(g84
g70
NtRp825
(dp826
g73
(dp827
sg82
g258
sg75
(lp828
g68
(g89
g70
NtRp829
(dp830
g73
(dp831
g93
g94
ssg82
g825
sg75
(lp832
S'session_id_welcome'
p833
asbag68
(g89
g70
NtRp834
(dp835
g73
(dp836
g100
g101
ssg82
g825
sg75
(lp837
S':'
asbag68
(g89
g70
NtRp838
(dp839
g73
(dp840
sg82
g825
sg75
(lp841
g68
(g69
g70
NtRp842
(dp843
g73
(dp844
g81
I4
ssg82
g838
sg75
(lp845
g68
(g77
g70
NtRp846
(dp847
g73
(dp848
g81
I3
ssg82
Nsg75
(lp849
g68
(g84
g70
NtRp850
(dp851
g73
(dp852
sg82
g846
sg75
(lp853
g68
(g89
g70
NtRp854
(dp855
g73
(dp856
g93
g94
ssg82
g850
sg75
(lp857
g295
asbag68
(g89
g70
NtRp858
(dp859
g73
(dp860
g100
g101
ssg82
g850
sg75
(lp861
S':'
asbag68
(g89
g70
NtRp862
(dp863
g73
(dp864
sg82
g850
sg75
(lp865
g68
(g69
g70
NtRp866
(dp867
g73
(dp868
g81
I3
ssg82
g862
sg75
(lp869
S''
asbasbasbag68
(g84
g70
NtRp870
(dp871
g73
(dp872
sg82
g846
sg75
(lp873
g68
(g89
g70
NtRp874
(dp875
g73
(dp876
g93
g94
ssg82
g870
sg75
(lp877
g316
asbag68
(g89
g70
NtRp878
(dp879
g73
(dp880
g100
g101
ssg82
g870
sg75
(lp881
S':'
asbag68
(g89
g70
NtRp882
(dp883
g73
(dp884
sg82
g870
sg75
(lp885
g68
(g69
g70
NtRp886
(dp887
g73
(dp888
g81
I3
ssg82
g882
sg75
(lp889
S''
asbasbasbag68
(g84
g70
NtRp890
(dp891
g73
(dp892
sg82
g846
sg75
(lp893
g68
(g89
g70
NtRp894
(dp895
g73
(dp896
g93
g94
ssg82
g890
sg75
(lp897
g337
asbag68
(g89
g70
NtRp898
(dp899
g73
(dp900
g100
g101
ssg82
g890
sg75
(lp901
S':'
asbag68
(g89
g70
NtRp902
(dp903
g73
(dp904
sg82
g890
sg75
(lp905
g68
(g69
g70
NtRp906
(dp907
g73
(dp908
g81
I3
ssg82
g902
sg75
(lp909
S''
asbasbasbag68
(g84
g70
NtRp910
(dp911
g73
(dp912
sg82
g846
sg75
(lp913
g68
(g89
g70
NtRp914
(dp915
g73
(dp916
g93
g94
ssg82
g910
sg75
(lp917
g358
asbag68
(g89
g70
NtRp918
(dp919
g73
(dp920
g100
g101
ssg82
g910
sg75
(lp921
S':'
asbag68
(g89
g70
NtRp922
(dp923
g73
(dp924
sg82
g910
sg75
(lp925
g68
(g69
g70
NtRp926
(dp927
g73
(dp928
g81
I3
ssg82
g922
sg75
(lp929
S''
asbasbasbag68
(g84
g70
NtRp930
(dp931
g73
(dp932
sg82
g846
sg75
(lp933
g68
(g89
g70
NtRp934
(dp935
g73
(dp936
g93
g94
ssg82
g930
sg75
(lp937
g379
asbag68
(g89
g70
NtRp938
(dp939
g73
(dp940
g100
g101
ssg82
g930
sg75
(lp941
S':'
asbag68
(g89
g70
NtRp942
(dp943
g73
(dp944
sg82
g930
sg75
(lp945
g68
(g69
g70
NtRp946
(dp947
g73
(dp948
g81
I3
ssg82
g942
sg75
(lp949
S''
asbasbasbag68
(g84
g70
NtRp950
(dp951
g73
(dp952
sg82
g846
sg75
(lp953
g68
(g89
g70
NtRp954
(dp955
g73
(dp956
g93
g94
ssg82
g950
sg75
(lp957
g400
asbag68
(g89
g70
NtRp958
(dp959
g73
(dp960
g100
g101
ssg82
g950
sg75
(lp961
S':'
asbag68
(g89
g70
NtRp962
(dp963
g73
(dp964
sg82
g950
sg75
(lp965
g68
(g69
g70
NtRp966
(dp967
g73
(dp968
g81
I3
ssg82
g962
sg75
(lp969
S''
asbasbasbag68
(g84
g70
NtRp970
(dp971
g73
(dp972
sg82
g846
sg75
(lp973
g68
(g89
g70
NtRp974
(dp975
g73
(dp976
g93
g94
ssg82
g970
sg75
(lp977
g421
asbag68
(g89
g70
NtRp978
(dp979
g73
(dp980
g100
g101
ssg82
g970
sg75
(lp981
S':'
asbag68
(g89
g70
NtRp982
(dp983
g73
(dp984
sg82
g970
sg75
(lp985
g68
(g69
g70
NtRp986
(dp987
g73
(dp988
g81
I3
ssg82
g982
sg75
(lp989
S''
asbasbasbag68
(g84
g70
NtRp990
(dp991
g73
(dp992
sg82
g846
sg75
(lp993
g68
(g89
g70
NtRp994
(dp995
g73
(dp996
g93
g94
ssg82
g990
sg75
(lp997
g442
asbag68
(g89
g70
NtRp998
(dp999
g73
(dp1000
g100
g101
ssg82
g990
sg75
(lp1001
S':'
asbag68
(g89
g70
NtRp1002
(dp1003
g73
(dp1004
sg82
g990
sg75
(lp1005
g68
(g69
g70
NtRp1006
(dp1007
g73
(dp1008
g81
I3
ssg82
g1002
sg75
(lp1009
S''
asbasbasbasbasbasbasbasbasbasbasbag68
(g84
g70
NtRp1010
(dp1011
g73
(dp1012
sg82
g78
sg75
(lp1013
g68
(g89
g70
NtRp1014
(dp1015
g73
(dp1016
g93
g94
ssg82
g1010
sg75
(lp1017
S'env'
p1018
asbag68
(g89
g70
NtRp1019
(dp1020
g73
(dp1021
g100
g101
ssg82
g1010
sg75
(lp1022
S':'
asbag68
(g89
g70
NtRp1023
(dp1024
g73
(dp1025
sg82
g1010
sg75
(lp1026
g68
(g69
g70
NtRp1027
(dp1028
g73
(dp1029
g81
I5
ssg82
g1023
sg75
(lp1030
g68
(g77
g70
NtRp1031
(dp1032
g73
(dp1033
g81
I4
ssg82
Nsg75
(lp1034
g68
(g84
g70
NtRp1035
(dp1036
g73
(dp1037
sg82
g1031
sg75
(lp1038
g68
(g89
g70
NtRp1039
(dp1040
g73
(dp1041
g93
g94
ssg82
g1035
sg75
(lp1042
S'app_folders'
p1043
asbag68
(g89
g70
NtRp1044
(dp1045
g73
(dp1046
g100
g101
ssg82
g1035
sg75
(lp1047
S':'
asbag68
(g89
g70
NtRp1048
(dp1049
g73
(dp1050
sg82
g1035
sg75
(lp1051
g68
(g69
g70
NtRp1052
(dp1053
g73
(dp1054
g81
I4
ssg82
g1048
sg75
(lp1055
S"set(['/home/alumno/web2py/applications/admin/', '/home/alumno/web2py/applications/about_me/', '/home/alumno/web2py/applications/welcome/', '/home/alumno/web2py/applications/datos/'])"
p1056
asbasbasbag68
(g84
g70
NtRp1057
(dp1058
g73
(dp1059
sg82
g1031
sg75
(lp1060
g68
(g89
g70
NtRp1061
(dp1062
g73
(dp1063
g93
g94
ssg82
g1057
sg75
(lp1064
S'applications_parent'
p1065
asbag68
(g89
g70
NtRp1066
(dp1067
g73
(dp1068
g100
g101
ssg82
g1057
sg75
(lp1069
S':'
asbag68
(g89
g70
NtRp1070
(dp1071
g73
(dp1072
sg82
g1057
sg75
(lp1073
g68
(g69
g70
NtRp1074
(dp1075
g73
(dp1076
g81
I4
ssg82
g1070
sg75
(lp1077
S'/home/alumno/web2py'
p1078
asbasbasbag68
(g84
g70
NtRp1079
(dp1080
g73
(dp1081
sg82
g1031
sg75
(lp1082
g68
(g89
g70
NtRp1083
(dp1084
g73
(dp1085
g93
g94
ssg82
g1079
sg75
(lp1086
S'cmd_args'
p1087
asbag68
(g89
g70
NtRp1088
(dp1089
g73
(dp1090
g100
g101
ssg82
g1079
sg75
(lp1091
S':'
asbag68
(g89
g70
NtRp1092
(dp1093
g73
(dp1094
sg82
g1079
sg75
(lp1095
g68
(g69
g70
NtRp1096
(dp1097
g73
(dp1098
g81
I4
ssg82
g1092
sg75
(lp1099
g68
(g77
g70
NtRp1100
(dp1101
g73
(dp1102
g81
I3
ssg82
Nsg75
(lp1103
sbasbasbasbag68
(g84
g70
NtRp1104
(dp1105
g73
(dp1106
sg82
g1031
sg75
(lp1107
g68
(g89
g70
NtRp1108
(dp1109
g73
(dp1110
g93
g94
ssg82
g1104
sg75
(lp1111
S'cmd_options'
p1112
asbag68
(g89
g70
NtRp1113
(dp1114
g73
(dp1115
g100
g101
ssg82
g1104
sg75
(lp1116
S':'
asbag68
(g89
g70
NtRp1117
(dp1118
g73
(dp1119
sg82
g1104
sg75
(lp1120
g68
(g69
g70
NtRp1121
(dp1122
g73
(dp1123
g81
I4
ssg82
g1117
sg75
(lp1124
S"<Values at 0x9716ecc: {'verbose': False, 'ip': '127.0.0.1', 'shutdown_timeout': 5, 'taskbar': False, 'port': 8000, 'maxthreads': None, 'softcron': False, 'server_name': 'ubuntu-dev', 'bpython': False, 'nogui': False, 'nocron': False, 'extcron': False, 'debuglevel': 30, 'test': None, 'folder': '/home/alumno/web2py', 'config': '', 'import_models': False, 'winservice': '', 'shell': None, 'run': '', 'log_filename': 'httpserver.log', 'args': [''], 'profiler_filename': None, 'ssl_private_key': '', 'password': 'toor', 'request_queue_size': 5, 'ssl_certificate': '', 'cronjob': False, 'plain': False, 'quiet': False, 'interfaces': None, 'minthreads': None, 'timeout': 10, 'numthreads': None, 'nobanner': False, 'pid_filename': 'httpserver.pid'}>"
p1125
asbasbasbag68
(g84
g70
NtRp1126
(dp1127
g73
(dp1128
sg82
g1031
sg75
(lp1129
g68
(g89
g70
NtRp1130
(dp1131
g73
(dp1132
g93
g94
ssg82
g1126
sg75
(lp1133
S'db_sessions'
p1134
asbag68
(g89
g70
NtRp1135
(dp1136
g73
(dp1137
g100
g101
ssg82
g1126
sg75
(lp1138
S':'
asbag68
(g89
g70
NtRp1139
(dp1140
g73
(dp1141
sg82
g1126
sg75
(lp1142
g68
(g69
g70
NtRp1143
(dp1144
g73
(dp1145
g81
I4
ssg82
g1139
sg75
(lp1146
S'set([])'
p1147
asbasbasbag68
(g84
g70
NtRp1148
(dp1149
g73
(dp1150
sg82
g1031
sg75
(lp1151
g68
(g89
g70
NtRp1152
(dp1153
g73
(dp1154
g93
g94
ssg82
g1148
sg75
(lp1155
S'debugging'
p1156
asbag68
(g89
g70
NtRp1157
(dp1158
g73
(dp1159
g100
g101
ssg82
g1148
sg75
(lp1160
S':'
asbag68
(g89
g70
NtRp1161
(dp1162
g73
(dp1163
sg82
g1148
sg75
(lp1164
g68
(g69
g70
NtRp1165
(dp1166
g73
(dp1167
g81
I4
ssg82
g1161
sg75
(lp1168
g111
asbasbasbag68
(g84
g70
NtRp1169
(dp1170
g73
(dp1171
sg82
g1031
sg75
(lp1172
g68
(g89
g70
NtRp1173
(dp1174
g73
(dp1175
g93
g94
ssg82
g1169
sg75
(lp1176
S'gluon_parent'
p1177
asbag68
(g89
g70
NtRp1178
(dp1179
g73
(dp1180
g100
g101
ssg82
g1169
sg75
(lp1181
S':'
asbag68
(g89
g70
NtRp1182
(dp1183
g73
(dp1184
sg82
g1169
sg75
(lp1185
g68
(g69
g70
NtRp1186
(dp1187
g73
(dp1188
g81
I4
ssg82
g1182
sg75
(lp1189
S'/home/alumno/web2py'
p1190
asbasbasbag68
(g84
g70
NtRp1191
(dp1192
g73
(dp1193
sg82
g1031
sg75
(lp1194
g68
(g89
g70
NtRp1195
(dp1196
g73
(dp1197
g93
g94
ssg82
g1191
sg75
(lp1198
S'http_accept'
p1199
asbag68
(g89
g70
NtRp1200
(dp1201
g73
(dp1202
g100
g101
ssg82
g1191
sg75
(lp1203
S':'
asbag68
(g89
g70
NtRp1204
(dp1205
g73
(dp1206
sg82
g1191
sg75
(lp1207
g68
(g69
g70
NtRp1208
(dp1209
g73
(dp1210
g81
I4
ssg82
g1204
sg75
(lp1211
S'text/html,application/xhtml+xml,application/xml;q=0.9,*/*;q=0.8'
p1212
asbasbasbag68
(g84
g70
NtRp1213
(dp1214
g73
(dp1215
sg82
g1031
sg75
(lp1216
g68
(g89
g70
NtRp1217
(dp1218
g73
(dp1219
g93
g94
ssg82
g1213
sg75
(lp1220
S'http_accept_charset'
p1221
asbag68
(g89
g70
NtRp1222
(dp1223
g73
(dp1224
g100
g101
ssg82
g1213
sg75
(lp1225
S':'
asbag68
(g89
g70
NtRp1226
(dp1227
g73
(dp1228
sg82
g1213
sg75
(lp1229
g68
(g69
g70
NtRp1230
(dp1231
g73
(dp1232
g81
I4
ssg82
g1226
sg75
(lp1233
S'ISO-8859-1,utf-8;q=0.7,*;q=0.7'
p1234
asbasbasbag68
(g84
g70
NtRp1235
(dp1236
g73
(dp1237
sg82
g1031
sg75
(lp1238
g68
(g89
g70
NtRp1239
(dp1240
g73
(dp1241
g93
g94
ssg82
g1235
sg75
(lp1242
S'http_accept_encoding'
p1243
asbag68
(g89
g70
NtRp1244
(dp1245
g73
(dp1246
g100
g101
ssg82
g1235
sg75
(lp1247
S':'
asbag68
(g89
g70
NtRp1248
(dp1249
g73
(dp1250
sg82
g1235
sg75
(lp1251
g68
(g69
g70
NtRp1252
(dp1253
g73
(dp1254
g81
I4
ssg82
g1248
sg75
(lp1255
S'gzip, deflate'
p1256
asbasbasbag68
(g84
g70
NtRp1257
(dp1258
g73
(dp1259
sg82
g1031
sg75
(lp1260
g68
(g89
g70
NtRp1261
(dp1262
g73
(dp1263
g93
g94
ssg82
g1257
sg75
(lp1264
S'http_accept_language'
p1265
asbag68
(g89
g70
NtRp1266
(dp1267
g73
(dp1268
g100
g101
ssg82
g1257
sg75
(lp1269
S':'
asbag68
(g89
g70
NtRp1270
(dp1271
g73
(dp1272
sg82
g1257
sg75
(lp1273
g68
(g69
g70
NtRp1274
(dp1275
g73
(dp1276
g81
I4
ssg82
g1270
sg75
(lp1277
S'es-ar,es;q=0.8,en-us;q=0.5,en;q=0.3'
p1278
asbasbasbag68
(g84
g70
NtRp1279
(dp1280
g73
(dp1281
sg82
g1031
sg75
(lp1282
g68
(g89
g70
NtRp1283
(dp1284
g73
(dp1285
g93
g94
ssg82
g1279
sg75
(lp1286
S'http_connection'
p1287
asbag68
(g89
g70
NtRp1288
(dp1289
g73
(dp1290
g100
g101
ssg82
g1279
sg75
(lp1291
S':'
asbag68
(g89
g70
NtRp1292
(dp1293
g73
(dp1294
sg82
g1279
sg75
(lp1295
g68
(g69
g70
NtRp1296
(dp1297
g73
(dp1298
g81
I4
ssg82
g1292
sg75
(lp1299
S'keep-alive'
p1300
asbasbasbag68
(g84
g70
NtRp1301
(dp1302
g73
(dp1303
sg82
g1031
sg75
(lp1304
g68
(g89
g70
NtRp1305
(dp1306
g73
(dp1307
g93
g94
ssg82
g1301
sg75
(lp1308
S'http_cookie'
p1309
asbag68
(g89
g70
NtRp1310
(dp1311
g73
(dp1312
g100
g101
ssg82
g1301
sg75
(lp1313
S':'
asbag68
(g89
g70
NtRp1314
(dp1315
g73
(dp1316
sg82
g1301
sg75
(lp1317
g68
(g69
g70
NtRp1318
(dp1319
g73
(dp1320
g81
I4
ssg82
g1314
sg75
(lp1321
S'session_id_welcome=127.0.0.1-9a64e71a-71c9-4c62-b046-090ea7d45525; session_id_admin=127.0.0.1-fd47075d-a50d-4307-a71d-53fd6091c621; session_id_about_me=127.0.0.1-7001d55b-0853-4806-9a34-cb98dbab722d; session_id_datos=127.0.0.1-cd811d2b-4b1e-4778-9b0e-2b7f0d822087'
p1322
asbasbasbag68
(g84
g70
NtRp1323
(dp1324
g73
(dp1325
sg82
g1031
sg75
(lp1326
g68
(g89
g70
NtRp1327
(dp1328
g73
(dp1329
g93
g94
ssg82
g1323
sg75
(lp1330
S'http_host'
p1331
asbag68
(g89
g70
NtRp1332
(dp1333
g73
(dp1334
g100
g101
ssg82
g1323
sg75
(lp1335
S':'
asbag68
(g89
g70
NtRp1336
(dp1337
g73
(dp1338
sg82
g1323
sg75
(lp1339
g68
(g69
g70
NtRp1340
(dp1341
g73
(dp1342
g81
I4
ssg82
g1336
sg75
(lp1343
S'127.0.0.1:8000'
p1344
asbasbasbag68
(g84
g70
NtRp1345
(dp1346
g73
(dp1347
sg82
g1031
sg75
(lp1348
g68
(g89
g70
NtRp1349
(dp1350
g73
(dp1351
g93
g94
ssg82
g1345
sg75
(lp1352
S'http_referer'
p1353
asbag68
(g89
g70
NtRp1354
(dp1355
g73
(dp1356
g100
g101
ssg82
g1345
sg75
(lp1357
S':'
asbag68
(g89
g70
NtRp1358
(dp1359
g73
(dp1360
sg82
g1345
sg75
(lp1361
g68
(g69
g70
NtRp1362
(dp1363
g73
(dp1364
g81
I4
ssg82
g1358
sg75
(lp1365
S'http://127.0.0.1:8000/datos/default/index'
p1366
asbasbasbag68
(g84
g70
NtRp1367
(dp1368
g73
(dp1369
sg82
g1031
sg75
(lp1370
g68
(g89
g70
NtRp1371
(dp1372
g73
(dp1373
g93
g94
ssg82
g1367
sg75
(lp1374
S'http_user_agent'
p1375
asbag68
(g89
g70
NtRp1376
(dp1377
g73
(dp1378
g100
g101
ssg82
g1367
sg75
(lp1379
S':'
asbag68
(g89
g70
NtRp1380
(dp1381
g73
(dp1382
sg82
g1367
sg75
(lp1383
g68
(g69
g70
NtRp1384
(dp1385
g73
(dp1386
g81
I4
ssg82
g1380
sg75
(lp1387
S'Mozilla/5.0 (X11; Linux i686; rv:6.0) Gecko/20100101 Firefox/6.0'
p1388
asbasbasbag68
(g84
g70
NtRp1389
(dp1390
g73
(dp1391
sg82
g1031
sg75
(lp1392
g68
(g89
g70
NtRp1393
(dp1394
g73
(dp1395
g93
g94
ssg82
g1389
sg75
(lp1396
S'path_info'
p1397
asbag68
(g89
g70
NtRp1398
(dp1399
g73
(dp1400
g100
g101
ssg82
g1389
sg75
(lp1401
S':'
asbag68
(g89
g70
NtRp1402
(dp1403
g73
(dp1404
sg82
g1389
sg75
(lp1405
g68
(g69
g70
NtRp1406
(dp1407
g73
(dp1408
g81
I4
ssg82
g1402
sg75
(lp1409
S'/datos/default/detalle/a001'
p1410
asbasbasbag68
(g84
g70
NtRp1411
(dp1412
g73
(dp1413
sg82
g1031
sg75
(lp1414
g68
(g89
g70
NtRp1415
(dp1416
g73
(dp1417
g93
g94
ssg82
g1411
sg75
(lp1418
S'query_string'
p1419
asbag68
(g89
g70
NtRp1420
(dp1421
g73
(dp1422
g100
g101
ssg82
g1411
sg75
(lp1423
S':'
asbag68
(g89
g70
NtRp1424
(dp1425
g73
(dp1426
sg82
g1411
sg75
(lp1427
g68
(g69
g70
NtRp1428
(dp1429
g73
(dp1430
g81
I4
ssg82
g1424
sg75
(lp1431
S''
asbasbasbag68
(g84
g70
NtRp1432
(dp1433
g73
(dp1434
sg82
g1031
sg75
(lp1435
g68
(g89
g70
NtRp1436
(dp1437
g73
(dp1438
g93
g94
ssg82
g1432
sg75
(lp1439
S'remote_addr'
p1440
asbag68
(g89
g70
NtRp1441
(dp1442
g73
(dp1443
g100
g101
ssg82
g1432
sg75
(lp1444
S':'
asbag68
(g89
g70
NtRp1445
(dp1446
g73
(dp1447
sg82
g1432
sg75
(lp1448
g68
(g69
g70
NtRp1449
(dp1450
g73
(dp1451
g81
I4
ssg82
g1445
sg75
(lp1452
g214
asbasbasbag68
(g84
g70
NtRp1453
(dp1454
g73
(dp1455
sg82
g1031
sg75
(lp1456
g68
(g89
g70
NtRp1457
(dp1458
g73
(dp1459
g93
g94
ssg82
g1453
sg75
(lp1460
S'remote_port'
p1461
asbag68
(g89
g70
NtRp1462
(dp1463
g73
(dp1464
g100
g101
ssg82
g1453
sg75
(lp1465
S':'
asbag68
(g89
g70
NtRp1466
(dp1467
g73
(dp1468
sg82
g1453
sg75
(lp1469
g68
(g69
g70
NtRp1470
(dp1471
g73
(dp1472
g81
I4
ssg82
g1466
sg75
(lp1473
S'39966'
p1474
asbasbasbag68
(g84
g70
NtRp1475
(dp1476
g73
(dp1477
sg82
g1031
sg75
(lp1478
g68
(g89
g70
NtRp1479
(dp1480
g73
(dp1481
g93
g94
ssg82
g1475
sg75
(lp1482
S'request_method'
p1483
asbag68
(g89
g70
NtRp1484
(dp1485
g73
(dp1486
g100
g101
ssg82
g1475
sg75
(lp1487
S':'
asbag68
(g89
g70
NtRp1488
(dp1489
g73
(dp1490
sg82
g1475
sg75
(lp1491
g68
(g69
g70
NtRp1492
(dp1493
g73
(dp1494
g81
I4
ssg82
g1488
sg75
(lp1495
S'GET'
p1496
asbasbasbag68
(g84
g70
NtRp1497
(dp1498
g73
(dp1499
sg82
g1031
sg75
(lp1500
g68
(g89
g70
NtRp1501
(dp1502
g73
(dp1503
g93
g94
ssg82
g1497
sg75
(lp1504
S'script_name'
p1505
asbag68
(g89
g70
NtRp1506
(dp1507
g73
(dp1508
g100
g101
ssg82
g1497
sg75
(lp1509
S':'
asbag68
(g89
g70
NtRp1510
(dp1511
g73
(dp1512
sg82
g1497
sg75
(lp1513
g68
(g69
g70
NtRp1514
(dp1515
g73
(dp1516
g81
I4
ssg82
g1510
sg75
(lp1517
S''
asbasbasbag68
(g84
g70
NtRp1518
(dp1519
g73
(dp1520
sg82
g1031
sg75
(lp1521
g68
(g89
g70
NtRp1522
(dp1523
g73
(dp1524
g93
g94
ssg82
g1518
sg75
(lp1525
S'server_name'
p1526
asbag68
(g89
g70
NtRp1527
(dp1528
g73
(dp1529
g100
g101
ssg82
g1518
sg75
(lp1530
S':'
asbag68
(g89
g70
NtRp1531
(dp1532
g73
(dp1533
sg82
g1518
sg75
(lp1534
g68
(g69
g70
NtRp1535
(dp1536
g73
(dp1537
g81
I4
ssg82
g1531
sg75
(lp1538
S'ubuntu-dev'
p1539
asbasbasbag68
(g84
g70
NtRp1540
(dp1541
g73
(dp1542
sg82
g1031
sg75
(lp1543
g68
(g89
g70
NtRp1544
(dp1545
g73
(dp1546
g93
g94
ssg82
g1540
sg75
(lp1547
S'server_port'
p1548
asbag68
(g89
g70
NtRp1549
(dp1550
g73
(dp1551
g100
g101
ssg82
g1540
sg75
(lp1552
S':'
asbag68
(g89
g70
NtRp1553
(dp1554
g73
(dp1555
sg82
g1540
sg75
(lp1556
g68
(g69
g70
NtRp1557
(dp1558
g73
(dp1559
g81
I4
ssg82
g1553
sg75
(lp1560
S'8000'
p1561
asbasbasbag68
(g84
g70
NtRp1562
(dp1563
g73
(dp1564
sg82
g1031
sg75
(lp1565
g68
(g89
g70
NtRp1566
(dp1567
g73
(dp1568
g93
g94
ssg82
g1562
sg75
(lp1569
S'server_protocol'
p1570
asbag68
(g89
g70
NtRp1571
(dp1572
g73
(dp1573
g100
g101
ssg82
g1562
sg75
(lp1574
S':'
asbag68
(g89
g70
NtRp1575
(dp1576
g73
(dp1577
sg82
g1562
sg75
(lp1578
g68
(g69
g70
NtRp1579
(dp1580
g73
(dp1581
g81
I4
ssg82
g1575
sg75
(lp1582
S'HTTP/1.1'
p1583
asbasbasbag68
(g84
g70
NtRp1584
(dp1585
g73
(dp1586
sg82
g1031
sg75
(lp1587
g68
(g89
g70
NtRp1588
(dp1589
g73
(dp1590
g93
g94
ssg82
g1584
sg75
(lp1591
S'server_software'
p1592
asbag68
(g89
g70
NtRp1593
(dp1594
g73
(dp1595
g100
g101
ssg82
g1584
sg75
(lp1596
S':'
asbag68
(g89
g70
NtRp1597
(dp1598
g73
(dp1599
sg82
g1584
sg75
(lp1600
g68
(g69
g70
NtRp1601
(dp1602
g73
(dp1603
g81
I4
ssg82
g1597
sg75
(lp1604
S'Rocket 1.2.2'
p1605
asbasbasbag68
(g84
g70
NtRp1606
(dp1607
g73
(dp1608
sg82
g1031
sg75
(lp1609
g68
(g89
g70
NtRp1610
(dp1611
g73
(dp1612
g93
g94
ssg82
g1606
sg75
(lp1613
S'web2py_crontype'
p1614
asbag68
(g89
g70
NtRp1615
(dp1616
g73
(dp1617
g100
g101
ssg82
g1606
sg75
(lp1618
S':'
asbag68
(g89
g70
NtRp1619
(dp1620
g73
(dp1621
sg82
g1606
sg75
(lp1622
g68
(g69
g70
NtRp1623
(dp1624
g73
(dp1625
g81
I4
ssg82
g1619
sg75
(lp1626
S'hard'
p1627
asbasbasbag68
(g84
g70
NtRp1628
(dp1629
g73
(dp1630
sg82
g1031
sg75
(lp1631
g68
(g89
g70
NtRp1632
(dp1633
g73
(dp1634
g93
g94
ssg82
g1628
sg75
(lp1635
S'web2py_path'
p1636
asbag68
(g89
g70
NtRp1637
(dp1638
g73
(dp1639
g100
g101
ssg82
g1628
sg75
(lp1640
S':'
asbag68
(g89
g70
NtRp1641
(dp1642
g73
(dp1643
sg82
g1628
sg75
(lp1644
g68
(g69
g70
NtRp1645
(dp1646
g73
(dp1647
g81
I4
ssg82
g1641
sg75
(lp1648
g1078
asbasbasbag68
(g84
g70
NtRp1649
(dp1650
g73
(dp1651
sg82
g1031
sg75
(lp1652
g68
(g89
g70
NtRp1653
(dp1654
g73
(dp1655
g93
g94
ssg82
g1649
sg75
(lp1656
S'web2py_version'
p1657
asbag68
(g89
g70
NtRp1658
(dp1659
g73
(dp1660
g100
g101
ssg82
g1649
sg75
(lp1661
S':'
asbag68
(g89
g70
NtRp1662
(dp1663
g73
(dp1664
sg82
g1649
sg75
(lp1665
g68
(g69
g70
NtRp1666
(dp1667
g73
(dp1668
g81
I4
ssg82
g1662
sg75
(lp1669
S'Version 1.96.4 (2011-06-18 21:34:53)\n'
p1670
asbasbasbag68
(g84
g70
NtRp1671
(dp1672
g73
(dp1673
sg82
g1031
sg75
(lp1674
g68
(g89
g70
NtRp1675
(dp1676
g73
(dp1677
g93
g94
ssg82
g1671
sg75
(lp1678
S'wsgi_errors'
p1679
asbag68
(g89
g70
NtRp1680
(dp1681
g73
(dp1682
g100
g101
ssg82
g1671
sg75
(lp1683
S':'
asbag68
(g89
g70
NtRp1684
(dp1685
g73
(dp1686
sg82
g1671
sg75
(lp1687
g68
(g69
g70
NtRp1688
(dp1689
g73
(dp1690
g81
I4
ssg82
g1684
sg75
(lp1691
S"<open file '<stderr>', mode 'w' at 0xb78200d0>"
p1692
asbasbasbag68
(g84
g70
NtRp1693
(dp1694
g73
(dp1695
sg82
g1031
sg75
(lp1696
g68
(g89
g70
NtRp1697
(dp1698
g73
(dp1699
g93
g94
ssg82
g1693
sg75
(lp1700
S'wsgi_file_wrapper'
p1701
asbag68
(g89
g70
NtRp1702
(dp1703
g73
(dp1704
g100
g101
ssg82
g1693
sg75
(lp1705
S':'
asbag68
(g89
g70
NtRp1706
(dp1707
g73
(dp1708
sg82
g1693
sg75
(lp1709
g68
(g69
g70
NtRp1710
(dp1711
g73
(dp1712
g81
I4
ssg82
g1706
sg75
(lp1713
S'<class gluon.rocket.FileWrapper at 0x969cb9c>'
p1714
asbasbasbag68
(g84
g70
NtRp1715
(dp1716
g73
(dp1717
sg82
g1031
sg75
(lp1718
g68
(g89
g70
NtRp1719
(dp1720
g73
(dp1721
g93
g94
ssg82
g1715
sg75
(lp1722
S'wsgi_input'
p1723
asbag68
(g89
g70
NtRp1724
(dp1725
g73
(dp1726
g100
g101
ssg82
g1715
sg75
(lp1727
S':'
asbag68
(g89
g70
NtRp1728
(dp1729
g73
(dp1730
sg82
g1715
sg75
(lp1731
g68
(g69
g70
NtRp1732
(dp1733
g73
(dp1734
g81
I4
ssg82
g1728
sg75
(lp1735
S'<socket._fileobject object at 0x9ca7a2c>'
p1736
asbasbasbag68
(g84
g70
NtRp1737
(dp1738
g73
(dp1739
sg82
g1031
sg75
(lp1740
g68
(g89
g70
NtRp1741
(dp1742
g73
(dp1743
g93
g94
ssg82
g1737
sg75
(lp1744
S'wsgi_multiprocess'
p1745
asbag68
(g89
g70
NtRp1746
(dp1747
g73
(dp1748
g100
g101
ssg82
g1737
sg75
(lp1749
S':'
asbag68
(g89
g70
NtRp1750
(dp1751
g73
(dp1752
sg82
g1737
sg75
(lp1753
g68
(g69
g70
NtRp1754
(dp1755
g73
(dp1756
g81
I4
ssg82
g1750
sg75
(lp1757
g111
asbasbasbag68
(g84
g70
NtRp1758
(dp1759
g73
(dp1760
sg82
g1031
sg75
(lp1761
g68
(g89
g70
NtRp1762
(dp1763
g73
(dp1764
g93
g94
ssg82
g1758
sg75
(lp1765
S'wsgi_multithread'
p1766
asbag68
(g89
g70
NtRp1767
(dp1768
g73
(dp1769
g100
g101
ssg82
g1758
sg75
(lp1770
S':'
asbag68
(g89
g70
NtRp1771
(dp1772
g73
(dp1773
sg82
g1758
sg75
(lp1774
g68
(g69
g70
NtRp1775
(dp1776
g73
(dp1777
g81
I4
ssg82
g1771
sg75
(lp1778
S'True'
p1779
asbasbasbag68
(g84
g70
NtRp1780
(dp1781
g73
(dp1782
sg82
g1031
sg75
(lp1783
g68
(g89
g70
NtRp1784
(dp1785
g73
(dp1786
g93
g94
ssg82
g1780
sg75
(lp1787
S'wsgi_run_once'
p1788
asbag68
(g89
g70
NtRp1789
(dp1790
g73
(dp1791
g100
g101
ssg82
g1780
sg75
(lp1792
S':'
asbag68
(g89
g70
NtRp1793
(dp1794
g73
(dp1795
sg82
g1780
sg75
(lp1796
g68
(g69
g70
NtRp1797
(dp1798
g73
(dp1799
g81
I4
ssg82
g1793
sg75
(lp1800
g111
asbasbasbag68
(g84
g70
NtRp1801
(dp1802
g73
(dp1803
sg82
g1031
sg75
(lp1804
g68
(g89
g70
NtRp1805
(dp1806
g73
(dp1807
g93
g94
ssg82
g1801
sg75
(lp1808
S'wsgi_url_scheme'
p1809
asbag68
(g89
g70
NtRp1810
(dp1811
g73
(dp1812
g100
g101
ssg82
g1801
sg75
(lp1813
S':'
asbag68
(g89
g70
NtRp1814
(dp1815
g73
(dp1816
sg82
g1801
sg75
(lp1817
g68
(g69
g70
NtRp1818
(dp1819
g73
(dp1820
g81
I4
ssg82
g1814
sg75
(lp1821
S'http'
p1822
asbasbasbag68
(g84
g70
NtRp1823
(dp1824
g73
(dp1825
sg82
g1031
sg75
(lp1826
g68
(g89
g70
NtRp1827
(dp1828
g73
(dp1829
g93
g94
ssg82
g1823
sg75
(lp1830
S'wsgi_version'
p1831
asbag68
(g89
g70
NtRp1832
(dp1833
g73
(dp1834
g100
g101
ssg82
g1823
sg75
(lp1835
S':'
asbag68
(g89
g70
NtRp1836
(dp1837
g73
(dp1838
sg82
g1823
sg75
(lp1839
g68
(g69
g70
NtRp1840
(dp1841
g73
(dp1842
g81
I4
ssg82
g1836
sg75
(lp1843
g68
(g77
g70
NtRp1844
(dp1845
g73
(dp1846
g81
I3
ssg82
Nsg75
(lp1847
g68
(g84
g70
NtRp1848
(dp1849
g73
(dp1850
sg82
g1844
sg75
(lp1851
g68
(g89
g70
NtRp1852
(dp1853
g73
(dp1854
sg82
g1848
sg75
(lp1855
g68
(g69
g70
NtRp1856
(dp1857
g73
(dp1858
g81
I3
ssg82
g1852
sg75
(lp1859
S'1'
asbasbasbag68
(g84
g70
NtRp1860
(dp1861
g73
(dp1862
sg82
g1844
sg75
(lp1863
g68
(g89
g70
NtRp1864
(dp1865
g73
(dp1866
sg82
g1860
sg75
(lp1867
g68
(g69
g70
NtRp1868
(dp1869
g73
(dp1870
g81
I3
ssg82
g1864
sg75
(lp1871
S'0'
asbasbasbasbasbasbasbasbasbasbasbag68
(g84
g70
NtRp1872
(dp1873
g73
(dp1874
sg82
g78
sg75
(lp1875
g68
(g89
g70
NtRp1876
(dp1877
g73
(dp1878
g93
g94
ssg82
g1872
sg75
(lp1879
S'extension'
p1880
asbag68
(g89
g70
NtRp1881
(dp1882
g73
(dp1883
g100
g101
ssg82
g1872
sg75
(lp1884
S':'
asbag68
(g89
g70
NtRp1885
(dp1886
g73
(dp1887
sg82
g1872
sg75
(lp1888
g68
(g69
g70
NtRp1889
(dp1890
g73
(dp1891
g81
I5
ssg82
g1885
sg75
(lp1892
S'html'
p1893
asbasbasbag68
(g84
g70
NtRp1894
(dp1895
g73
(dp1896
sg82
g78
sg75
(lp1897
g68
(g89
g70
NtRp1898
(dp1899
g73
(dp1900
g93
g94
ssg82
g1894
sg75
(lp1901
S'folder'
p1902
asbag68
(g89
g70
NtRp1903
(dp1904
g73
(dp1905
g100
g101
ssg82
g1894
sg75
(lp1906
S':'
asbag68
(g89
g70
NtRp1907
(dp1908
g73
(dp1909
sg82
g1894
sg75
(lp1910
g68
(g69
g70
NtRp1911
(dp1912
g73
(dp1913
g81
I5
ssg82
g1907
sg75
(lp1914
S'/home/alumno/web2py/applications/datos/'
p1915
asbasbasbag68
(g84
g70
NtRp1916
(dp1917
g73
(dp1918
sg82
g78
sg75
(lp1919
g68
(g89
g70
NtRp1920
(dp1921
g73
(dp1922
g93
g94
ssg82
g1916
sg75
(lp1923
S'function'
p1924
asbag68
(g89
g70
NtRp1925
(dp1926
g73
(dp1927
g100
g101
ssg82
g1916
sg75
(lp1928
S':'
asbag68
(g89
g70
NtRp1929
(dp1930
g73
(dp1931
sg82
g1916
sg75
(lp1932
g68
(g69
g70
NtRp1933
(dp1934
g73
(dp1935
g81
I5
ssg82
g1929
sg75
(lp1936
S'detalle'
p1937
asbasbasbag68
(g84
g70
NtRp1938
(dp1939
g73
(dp1940
sg82
g78
sg75
(lp1941
g68
(g89
g70
NtRp1942
(dp1943
g73
(dp1944
g93
g94
ssg82
g1938
sg75
(lp1945
S'get_vars'
p1946
asbag68
(g89
g70
NtRp1947
(dp1948
g73
(dp1949
g100
g101
ssg82
g1938
sg75
(lp1950
S':'
asbag68
(g89
g70
NtRp1951
(dp1952
g73
(dp1953
sg82
g1938
sg75
(lp1954
g68
(g69
g70
NtRp1955
(dp1956
g73
(dp1957
g81
I5
ssg82
g1951
sg75
(lp1958
g68
(g77
g70
NtRp1959
(dp1960
g73
(dp1961
g81
I4
ssg82
Nsg75
(lp1962
sbasbasbasbag68
(g84
g70
NtRp1963
(dp1964
g73
(dp1965
sg82
g78
sg75
(lp1966
g68
(g89
g70
NtRp1967
(dp1968
g73
(dp1969
g93
g94
ssg82
g1963
sg75
(lp1970
S'is_https'
p1971
asbag68
(g89
g70
NtRp1972
(dp1973
g73
(dp1974
g100
g101
ssg82
g1963
sg75
(lp1975
S':'
asbag68
(g89
g70
NtRp1976
(dp1977
g73
(dp1978
sg82
g1963
sg75
(lp1979
g68
(g69
g70
NtRp1980
(dp1981
g73
(dp1982
g81
I5
ssg82
g1976
sg75
(lp1983
g111
asbasbasbag68
(g84
g70
NtRp1984
(dp1985
g73
(dp1986
sg82
g78
sg75
(lp1987
g68
(g89
g70
NtRp1988
(dp1989
g73
(dp1990
g93
g94
ssg82
g1984
sg75
(lp1991
S'is_local'
p1992
asbag68
(g89
g70
NtRp1993
(dp1994
g73
(dp1995
g100
g101
ssg82
g1984
sg75
(lp1996
S':'
asbag68
(g89
g70
NtRp1997
(dp1998
g73
(dp1999
sg82
g1984
sg75
(lp2000
g68
(g69
g70
NtRp2001
(dp2002
g73
(dp2003
g81
I5
ssg82
g1997
sg75
(lp2004
g1779
asbasbasbag68
(g84
g70
NtRp2005
(dp2006
g73
(dp2007
sg82
g78
sg75
(lp2008
g68
(g89
g70
NtRp2009
(dp2010
g73
(dp2011
g93
g94
ssg82
g2005
sg75
(lp2012
S'is_restful'
p2013
asbag68
(g89
g70
NtRp2014
(dp2015
g73
(dp2016
g100
g101
ssg82
g2005
sg75
(lp2017
S':'
asbag68
(g89
g70
NtRp2018
(dp2019
g73
(dp2020
sg82
g2005
sg75
(lp2021
g68
(g69
g70
NtRp2022
(dp2023
g73
(dp2024
g81
I5
ssg82
g2018
sg75
(lp2025
g111
asbasbasbag68
(g84
g70
NtRp2026
(dp2027
g73
(dp2028
sg82
g78
sg75
(lp2029
g68
(g89
g70
NtRp2030
(dp2031
g73
(dp2032
g93
g94
ssg82
g2026
sg75
(lp2033
S'now'
p2034
asbag68
(g89
g70
NtRp2035
(dp2036
g73
(dp2037
g100
g101
ssg82
g2026
sg75
(lp2038
S':'
asbag68
(g89
g70
NtRp2039
(dp2040
g73
(dp2041
sg82
g2026
sg75
(lp2042
g68
(g69
g70
NtRp2043
(dp2044
g73
(dp2045
g81
I5
ssg82
g2039
sg75
(lp2046
S'datetime.datetime(2011, 9, 7, 20, 48, 56, 770065)'
p2047
asbasbasbag68
(g84
g70
NtRp2048
(dp2049
g73
(dp2050
sg82
g78
sg75
(lp2051
g68
(g89
g70
NtRp2052
(dp2053
g73
(dp2054
g93
g94
ssg82
g2048
sg75
(lp2055
S'post_vars'
p2056
asbag68
(g89
g70
NtRp2057
(dp2058
g73
(dp2059
g100
g101
ssg82
g2048
sg75
(lp2060
S':'
asbag68
(g89
g70
NtRp2061
(dp2062
g73
(dp2063
sg82
g2048
sg75
(lp2064
g68
(g69
g70
NtRp2065
(dp2066
g73
(dp2067
g81
I5
ssg82
g2061
sg75
(lp2068
g68
(g77
g70
NtRp2069
(dp2070
g73
(dp2071
g81
I4
ssg82
Nsg75
(lp2072
sbasbasbasbag68
(g84
g70
NtRp2073
(dp2074
g73
(dp2075
sg82
g78
sg75
(lp2076
g68
(g89
g70
NtRp2077
(dp2078
g73
(dp2079
g93
g94
ssg82
g2073
sg75
(lp2080
S'raw_args'
p2081
asbag68
(g89
g70
NtRp2082
(dp2083
g73
(dp2084
g100
g101
ssg82
g2073
sg75
(lp2085
S':'
asbag68
(g89
g70
NtRp2086
(dp2087
g73
(dp2088
sg82
g2073
sg75
(lp2089
g68
(g69
g70
NtRp2090
(dp2091
g73
(dp2092
g81
I5
ssg82
g2086
sg75
(lp2093
g170
asbasbasbag68
(g84
g70
NtRp2094
(dp2095
g73
(dp2096
sg82
g78
sg75
(lp2097
g68
(g89
g70
NtRp2098
(dp2099
g73
(dp2100
g93
g94
ssg82
g2094
sg75
(lp2101
S'url'
p2102
asbag68
(g89
g70
NtRp2103
(dp2104
g73
(dp2105
g100
g101
ssg82
g2094
sg75
(lp2106
S':'
asbag68
(g89
g70
NtRp2107
(dp2108
g73
(dp2109
sg82
g2094
sg75
(lp2110
g68
(g69
g70
NtRp2111
(dp2112
g73
(dp2113
g81
I5
ssg82
g2107
sg75
(lp2114
S'/datos/default/detalle/a001'
p2115
asbasbasbag68
(g84
g70
NtRp2116
(dp2117
g73
(dp2118
sg82
g78
sg75
(lp2119
g68
(g89
g70
NtRp2120
(dp2121
g73
(dp2122
g93
g94
ssg82
g2116
sg75
(lp2123
S'uuid'
p2124
asbag68
(g89
g70
NtRp2125
(dp2126
g73
(dp2127
g100
g101
ssg82
g2116
sg75
(lp2128
S':'
asbag68
(g89
g70
NtRp2129
(dp2130
g73
(dp2131
sg82
g2116
sg75
(lp2132
g68
(g69
g70
NtRp2133
(dp2134
g73
(dp2135
g81
I5
ssg82
g2129
sg75
(lp2136
S'datos/127.0.0.1.2011-09-07.20-48-56.79fc8504-0961-4170-8ea0-d4b4190b31f1'
p2137
asbasbasbag68
(g84
g70
NtRp2138
(dp2139
g73
(dp2140
sg82
g78
sg75
(lp2141
g68
(g89
g70
NtRp2142
(dp2143
g73
(dp2144
g93
g94
ssg82
g2138
sg75
(lp2145
S'vars'
p2146
asbag68
(g89
g70
NtRp2147
(dp2148
g73
(dp2149
g100
g101
ssg82
g2138
sg75
(lp2150
S':'
asbag68
(g89
g70
NtRp2151
(dp2152
g73
(dp2153
sg82
g2138
sg75
(lp2154
g68
(g69
g70
NtRp2155
(dp2156
g73
(dp2157
g81
I5
ssg82
g2151
sg75
(lp2158
g68
(g77
g70
NtRp2159
(dp2160
g73
(dp2161
g81
I4
ssg82
Nsg75
(lp2162
sbasbasbasbag68
(g84
g70
NtRp2163
(dp2164
g73
(dp2165
sg82
g78
sg75
(lp2166
g68
(g89
g70
NtRp2167
(dp2168
g73
(dp2169
g93
g94
ssg82
g2163
sg75
(lp2170
S'wsgi'
p2171
asbag68
(g89
g70
NtRp2172
(dp2173
g73
(dp2174
g100
g101
ssg82
g2163
sg75
(lp2175
S':'
asbag68
(g89
g70
NtRp2176
(dp2177
g73
(dp2178
sg82
g2163
sg75
(lp2179
g68
(g69
g70
NtRp2180
(dp2181
g73
(dp2182
g81
I5
ssg82
g2176
sg75
(lp2183
g68
(g77
g70
NtRp2184
(dp2185
g73
(dp2186
g81
I4
ssg82
Nsg75
(lp2187
g68
(g84
g70
NtRp2188
(dp2189
g73
(dp2190
sg82
g2184
sg75
(lp2191
g68
(g89
g70
NtRp2192
(dp2193
g73
(dp2194
g93
g94
ssg82
g2188
sg75
(lp2195
S'environ'
p2196
asbag68
(g89
g70
NtRp2197
(dp2198
g73
(dp2199
g100
g101
ssg82
g2188
sg75
(lp2200
S':'
asbag68
(g89
g70
NtRp2201
(dp2202
g73
(dp2203
sg82
g2188
sg75
(lp2204
g68
(g69
g70
NtRp2205
(dp2206
g73
(dp2207
g81
I4
ssg82
g2201
sg75
(lp2208
g68
(g77
g70
NtRp2209
(dp2210
g73
(dp2211
g81
I3
ssg82
Nsg75
(lp2212
g68
(g84
g70
NtRp2213
(dp2214
g73
(dp2215
sg82
g2209
sg75
(lp2216
g68
(g89
g70
NtRp2217
(dp2218
g73
(dp2219
g93
g94
ssg82
g2213
sg75
(lp2220
S'HTTP_ACCEPT'
p2221
asbag68
(g89
g70
NtRp2222
(dp2223
g73
(dp2224
g100
g101
ssg82
g2213
sg75
(lp2225
S':'
asbag68
(g89
g70
NtRp2226
(dp2227
g73
(dp2228
sg82
g2213
sg75
(lp2229
g68
(g69
g70
NtRp2230
(dp2231
g73
(dp2232
g81
I3
ssg82
g2226
sg75
(lp2233
g1212
asbasbasbag68
(g84
g70
NtRp2234
(dp2235
g73
(dp2236
sg82
g2209
sg75
(lp2237
g68
(g89
g70
NtRp2238
(dp2239
g73
(dp2240
g93
g94
ssg82
g2234
sg75
(lp2241
S'HTTP_ACCEPT_CHARSET'
p2242
asbag68
(g89
g70
NtRp2243
(dp2244
g73
(dp2245
g100
g101
ssg82
g2234
sg75
(lp2246
S':'
asbag68
(g89
g70
NtRp2247
(dp2248
g73
(dp2249
sg82
g2234
sg75
(lp2250
g68
(g69
g70
NtRp2251
(dp2252
g73
(dp2253
g81
I3
ssg82
g2247
sg75
(lp2254
g1234
asbasbasbag68
(g84
g70
NtRp2255
(dp2256
g73
(dp2257
sg82
g2209
sg75
(lp2258
g68
(g89
g70
NtRp2259
(dp2260
g73
(dp2261
g93
g94
ssg82
g2255
sg75
(lp2262
S'HTTP_ACCEPT_ENCODING'
p2263
asbag68
(g89
g70
NtRp2264
(dp2265
g73
(dp2266
g100
g101
ssg82
g2255
sg75
(lp2267
S':'
asbag68
(g89
g70
NtRp2268
(dp2269
g73
(dp2270
sg82
g2255
sg75
(lp2271
g68
(g69
g70
NtRp2272
(dp2273
g73
(dp2274
g81
I3
ssg82
g2268
sg75
(lp2275
g1256
asbasbasbag68
(g84
g70
NtRp2276
(dp2277
g73
(dp2278
sg82
g2209
sg75
(lp2279
g68
(g89
g70
NtRp2280
(dp2281
g73
(dp2282
g93
g94
ssg82
g2276
sg75
(lp2283
S'HTTP_ACCEPT_LANGUAGE'
p2284
asbag68
(g89
g70
NtRp2285
(dp2286
g73
(dp2287
g100
g101
ssg82
g2276
sg75
(lp2288
S':'
asbag68
(g89
g70
NtRp2289
(dp2290
g73
(dp2291
sg82
g2276
sg75
(lp2292
g68
(g69
g70
NtRp2293
(dp2294
g73
(dp2295
g81
I3
ssg82
g2289
sg75
(lp2296
g1278
asbasbasbag68
(g84
g70
NtRp2297
(dp2298
g73
(dp2299
sg82
g2209
sg75
(lp2300
g68
(g89
g70
NtRp2301
(dp2302
g73
(dp2303
g93
g94
ssg82
g2297
sg75
(lp2304
S'HTTP_CONNECTION'
p2305
asbag68
(g89
g70
NtRp2306
(dp2307
g73
(dp2308
g100
g101
ssg82
g2297
sg75
(lp2309
S':'
asbag68
(g89
g70
NtRp2310
(dp2311
g73
(dp2312
sg82
g2297
sg75
(lp2313
g68
(g69
g70
NtRp2314
(dp2315
g73
(dp2316
g81
I3
ssg82
g2310
sg75
(lp2317
g1300
asbasbasbag68
(g84
g70
NtRp2318
(dp2319
g73
(dp2320
sg82
g2209
sg75
(lp2321
g68
(g89
g70
NtRp2322
(dp2323
g73
(dp2324
g93
g94
ssg82
g2318
sg75
(lp2325
S'HTTP_COOKIE'
p2326
asbag68
(g89
g70
NtRp2327
(dp2328
g73
(dp2329
g100
g101
ssg82
g2318
sg75
(lp2330
S':'
asbag68
(g89
g70
NtRp2331
(dp2332
g73
(dp2333
sg82
g2318
sg75
(lp2334
g68
(g69
g70
NtRp2335
(dp2336
g73
(dp2337
g81
I3
ssg82
g2331
sg75
(lp2338
g1322
asbasbasbag68
(g84
g70
NtRp2339
(dp2340
g73
(dp2341
sg82
g2209
sg75
(lp2342
g68
(g89
g70
NtRp2343
(dp2344
g73
(dp2345
g93
g94
ssg82
g2339
sg75
(lp2346
S'HTTP_HOST'
p2347
asbag68
(g89
g70
NtRp2348
(dp2349
g73
(dp2350
g100
g101
ssg82
g2339
sg75
(lp2351
S':'
asbag68
(g89
g70
NtRp2352
(dp2353
g73
(dp2354
sg82
g2339
sg75
(lp2355
g68
(g69
g70
NtRp2356
(dp2357
g73
(dp2358
g81
I3
ssg82
g2352
sg75
(lp2359
g1344
asbasbasbag68
(g84
g70
NtRp2360
(dp2361
g73
(dp2362
sg82
g2209
sg75
(lp2363
g68
(g89
g70
NtRp2364
(dp2365
g73
(dp2366
g93
g94
ssg82
g2360
sg75
(lp2367
S'HTTP_REFERER'
p2368
asbag68
(g89
g70
NtRp2369
(dp2370
g73
(dp2371
g100
g101
ssg82
g2360
sg75
(lp2372
S':'
asbag68
(g89
g70
NtRp2373
(dp2374
g73
(dp2375
sg82
g2360
sg75
(lp2376
g68
(g69
g70
NtRp2377
(dp2378
g73
(dp2379
g81
I3
ssg82
g2373
sg75
(lp2380
g1366
asbasbasbag68
(g84
g70
NtRp2381
(dp2382
g73
(dp2383
sg82
g2209
sg75
(lp2384
g68
(g89
g70
NtRp2385
(dp2386
g73
(dp2387
g93
g94
ssg82
g2381
sg75
(lp2388
S'HTTP_USER_AGENT'
p2389
asbag68
(g89
g70
NtRp2390
(dp2391
g73
(dp2392
g100
g101
ssg82
g2381
sg75
(lp2393
S':'
asbag68
(g89
g70
NtRp2394
(dp2395
g73
(dp2396
sg82
g2381
sg75
(lp2397
g68
(g69
g70
NtRp2398
(dp2399
g73
(dp2400
g81
I3
ssg82
g2394
sg75
(lp2401
g1388
asbasbasbag68
(g84
g70
NtRp2402
(dp2403
g73
(dp2404
sg82
g2209
sg75
(lp2405
g68
(g89
g70
NtRp2406
(dp2407
g73
(dp2408
g93
g94
ssg82
g2402
sg75
(lp2409
S'PATH_INFO'
p2410
asbag68
(g89
g70
NtRp2411
(dp2412
g73
(dp2413
g100
g101
ssg82
g2402
sg75
(lp2414
S':'
asbag68
(g89
g70
NtRp2415
(dp2416
g73
(dp2417
sg82
g2402
sg75
(lp2418
g68
(g69
g70
NtRp2419
(dp2420
g73
(dp2421
g81
I3
ssg82
g2415
sg75
(lp2422
g1410
asbasbasbag68
(g84
g70
NtRp2423
(dp2424
g73
(dp2425
sg82
g2209
sg75
(lp2426
g68
(g89
g70
NtRp2427
(dp2428
g73
(dp2429
g93
g94
ssg82
g2423
sg75
(lp2430
S'QUERY_STRING'
p2431
asbag68
(g89
g70
NtRp2432
(dp2433
g73
(dp2434
g100
g101
ssg82
g2423
sg75
(lp2435
S':'
asbag68
(g89
g70
NtRp2436
(dp2437
g73
(dp2438
sg82
g2423
sg75
(lp2439
g68
(g69
g70
NtRp2440
(dp2441
g73
(dp2442
g81
I3
ssg82
g2436
sg75
(lp2443
S''
asbasbasbag68
(g84
g70
NtRp2444
(dp2445
g73
(dp2446
sg82
g2209
sg75
(lp2447
g68
(g89
g70
NtRp2448
(dp2449
g73
(dp2450
g93
g94
ssg82
g2444
sg75
(lp2451
S'REMOTE_ADDR'
p2452
asbag68
(g89
g70
NtRp2453
(dp2454
g73
(dp2455
g100
g101
ssg82
g2444
sg75
(lp2456
S':'
asbag68
(g89
g70
NtRp2457
(dp2458
g73
(dp2459
sg82
g2444
sg75
(lp2460
g68
(g69
g70
NtRp2461
(dp2462
g73
(dp2463
g81
I3
ssg82
g2457
sg75
(lp2464
g214
asbasbasbag68
(g84
g70
NtRp2465
(dp2466
g73
(dp2467
sg82
g2209
sg75
(lp2468
g68
(g89
g70
NtRp2469
(dp2470
g73
(dp2471
g93
g94
ssg82
g2465
sg75
(lp2472
S'REMOTE_PORT'
p2473
asbag68
(g89
g70
NtRp2474
(dp2475
g73
(dp2476
g100
g101
ssg82
g2465
sg75
(lp2477
S':'
asbag68
(g89
g70
NtRp2478
(dp2479
g73
(dp2480
sg82
g2465
sg75
(lp2481
g68
(g69
g70
NtRp2482
(dp2483
g73
(dp2484
g81
I3
ssg82
g2478
sg75
(lp2485
g1474
asbasbasbag68
(g84
g70
NtRp2486
(dp2487
g73
(dp2488
sg82
g2209
sg75
(lp2489
g68
(g89
g70
NtRp2490
(dp2491
g73
(dp2492
g93
g94
ssg82
g2486
sg75
(lp2493
S'REQUEST_METHOD'
p2494
asbag68
(g89
g70
NtRp2495
(dp2496
g73
(dp2497
g100
g101
ssg82
g2486
sg75
(lp2498
S':'
asbag68
(g89
g70
NtRp2499
(dp2500
g73
(dp2501
sg82
g2486
sg75
(lp2502
g68
(g69
g70
NtRp2503
(dp2504
g73
(dp2505
g81
I3
ssg82
g2499
sg75
(lp2506
g1496
asbasbasbag68
(g84
g70
NtRp2507
(dp2508
g73
(dp2509
sg82
g2209
sg75
(lp2510
g68
(g89
g70
NtRp2511
(dp2512
g73
(dp2513
g93
g94
ssg82
g2507
sg75
(lp2514
S'SCRIPT_NAME'
p2515
asbag68
(g89
g70
NtRp2516
(dp2517
g73
(dp2518
g100
g101
ssg82
g2507
sg75
(lp2519
S':'
asbag68
(g89
g70
NtRp2520
(dp2521
g73
(dp2522
sg82
g2507
sg75
(lp2523
g68
(g69
g70
NtRp2524
(dp2525
g73
(dp2526
g81
I3
ssg82
g2520
sg75
(lp2527
S''
asbasbasbag68
(g84
g70
NtRp2528
(dp2529
g73
(dp2530
sg82
g2209
sg75
(lp2531
g68
(g89
g70
NtRp2532
(dp2533
g73
(dp2534
g93
g94
ssg82
g2528
sg75
(lp2535
S'SERVER_NAME'
p2536
asbag68
(g89
g70
NtRp2537
(dp2538
g73
(dp2539
g100
g101
ssg82
g2528
sg75
(lp2540
S':'
asbag68
(g89
g70
NtRp2541
(dp2542
g73
(dp2543
sg82
g2528
sg75
(lp2544
g68
(g69
g70
NtRp2545
(dp2546
g73
(dp2547
g81
I3
ssg82
g2541
sg75
(lp2548
g1539
asbasbasbag68
(g84
g70
NtRp2549
(dp2550
g73
(dp2551
sg82
g2209
sg75
(lp2552
g68
(g89
g70
NtRp2553
(dp2554
g73
(dp2555
g93
g94
ssg82
g2549
sg75
(lp2556
S'SERVER_PORT'
p2557
asbag68
(g89
g70
NtRp2558
(dp2559
g73
(dp2560
g100
g101
ssg82
g2549
sg75
(lp2561
S':'
asbag68
(g89
g70
NtRp2562
(dp2563
g73
(dp2564
sg82
g2549
sg75
(lp2565
g68
(g69
g70
NtRp2566
(dp2567
g73
(dp2568
g81
I3
ssg82
g2562
sg75
(lp2569
g1561
asbasbasbag68
(g84
g70
NtRp2570
(dp2571
g73
(dp2572
sg82
g2209
sg75
(lp2573
g68
(g89
g70
NtRp2574
(dp2575
g73
(dp2576
g93
g94
ssg82
g2570
sg75
(lp2577
S'SERVER_PROTOCOL'
p2578
asbag68
(g89
g70
NtRp2579
(dp2580
g73
(dp2581
g100
g101
ssg82
g2570
sg75
(lp2582
S':'
asbag68
(g89
g70
NtRp2583
(dp2584
g73
(dp2585
sg82
g2570
sg75
(lp2586
g68
(g69
g70
NtRp2587
(dp2588
g73
(dp2589
g81
I3
ssg82
g2583
sg75
(lp2590
g1583
asbasbasbag68
(g84
g70
NtRp2591
(dp2592
g73
(dp2593
sg82
g2209
sg75
(lp2594
g68
(g89
g70
NtRp2595
(dp2596
g73
(dp2597
g93
g94
ssg82
g2591
sg75
(lp2598
S'SERVER_SOFTWARE'
p2599
asbag68
(g89
g70
NtRp2600
(dp2601
g73
(dp2602
g100
g101
ssg82
g2591
sg75
(lp2603
S':'
asbag68
(g89
g70
NtRp2604
(dp2605
g73
(dp2606
sg82
g2591
sg75
(lp2607
g68
(g69
g70
NtRp2608
(dp2609
g73
(dp2610
g81
I3
ssg82
g2604
sg75
(lp2611
g1605
asbasbasbag68
(g84
g70
NtRp2612
(dp2613
g73
(dp2614
sg82
g2209
sg75
(lp2615
g68
(g89
g70
NtRp2616
(dp2617
g73
(dp2618
g93
g94
ssg82
g2612
sg75
(lp2619
S'wsgi.errors'
p2620
asbag68
(g89
g70
NtRp2621
(dp2622
g73
(dp2623
g100
g101
ssg82
g2612
sg75
(lp2624
S':'
asbag68
(g89
g70
NtRp2625
(dp2626
g73
(dp2627
sg82
g2612
sg75
(lp2628
g68
(g69
g70
NtRp2629
(dp2630
g73
(dp2631
g81
I3
ssg82
g2625
sg75
(lp2632
S"<open file '<stderr>', mode 'w' at 0xb78200d0>"
p2633
asbasbasbag68
(g84
g70
NtRp2634
(dp2635
g73
(dp2636
sg82
g2209
sg75
(lp2637
g68
(g89
g70
NtRp2638
(dp2639
g73
(dp2640
g93
g94
ssg82
g2634
sg75
(lp2641
S'wsgi.file_wrapper'
p2642
asbag68
(g89
g70
NtRp2643
(dp2644
g73
(dp2645
g100
g101
ssg82
g2634
sg75
(lp2646
S':'
asbag68
(g89
g70
NtRp2647
(dp2648
g73
(dp2649
sg82
g2634
sg75
(lp2650
g68
(g69
g70
NtRp2651
(dp2652
g73
(dp2653
g81
I3
ssg82
g2647
sg75
(lp2654
S'<class gluon.rocket.FileWrapper at 0x969cb9c>'
p2655
asbasbasbag68
(g84
g70
NtRp2656
(dp2657
g73
(dp2658
sg82
g2209
sg75
(lp2659
g68
(g89
g70
NtRp2660
(dp2661
g73
(dp2662
g93
g94
ssg82
g2656
sg75
(lp2663
S'wsgi.input'
p2664
asbag68
(g89
g70
NtRp2665
(dp2666
g73
(dp2667
g100
g101
ssg82
g2656
sg75
(lp2668
S':'
asbag68
(g89
g70
NtRp2669
(dp2670
g73
(dp2671
sg82
g2656
sg75
(lp2672
g68
(g69
g70
NtRp2673
(dp2674
g73
(dp2675
g81
I3
ssg82
g2669
sg75
(lp2676
S'<cStringIO.StringO object at 0x9a4b5a0>'
p2677
asbasbasbag68
(g84
g70
NtRp2678
(dp2679
g73
(dp2680
sg82
g2209
sg75
(lp2681
g68
(g89
g70
NtRp2682
(dp2683
g73
(dp2684
g93
g94
ssg82
g2678
sg75
(lp2685
S'wsgi.multiprocess'
p2686
asbag68
(g89
g70
NtRp2687
(dp2688
g73
(dp2689
g100
g101
ssg82
g2678
sg75
(lp2690
S':'
asbag68
(g89
g70
NtRp2691
(dp2692
g73
(dp2693
sg82
g2678
sg75
(lp2694
g68
(g69
g70
NtRp2695
(dp2696
g73
(dp2697
g81
I3
ssg82
g2691
sg75
(lp2698
g111
asbasbasbag68
(g84
g70
NtRp2699
(dp2700
g73
(dp2701
sg82
g2209
sg75
(lp2702
g68
(g89
g70
NtRp2703
(dp2704
g73
(dp2705
g93
g94
ssg82
g2699
sg75
(lp2706
S'wsgi.multithread'
p2707
asbag68
(g89
g70
NtRp2708
(dp2709
g73
(dp2710
g100
g101
ssg82
g2699
sg75
(lp2711
S':'
asbag68
(g89
g70
NtRp2712
(dp2713
g73
(dp2714
sg82
g2699
sg75
(lp2715
g68
(g69
g70
NtRp2716
(dp2717
g73
(dp2718
g81
I3
ssg82
g2712
sg75
(lp2719
g1779
asbasbasbag68
(g84
g70
NtRp2720
(dp2721
g73
(dp2722
sg82
g2209
sg75
(lp2723
g68
(g89
g70
NtRp2724
(dp2725
g73
(dp2726
g93
g94
ssg82
g2720
sg75
(lp2727
S'wsgi.run_once'
p2728
asbag68
(g89
g70
NtRp2729
(dp2730
g73
(dp2731
g100
g101
ssg82
g2720
sg75
(lp2732
S':'
asbag68
(g89
g70
NtRp2733
(dp2734
g73
(dp2735
sg82
g2720
sg75
(lp2736
g68
(g69
g70
NtRp2737
(dp2738
g73
(dp2739
g81
I3
ssg82
g2733
sg75
(lp2740
g111
asbasbasbag68
(g84
g70
NtRp2741
(dp2742
g73
(dp2743
sg82
g2209
sg75
(lp2744
g68
(g89
g70
NtRp2745
(dp2746
g73
(dp2747
g93
g94
ssg82
g2741
sg75
(lp2748
S'wsgi.url_scheme'
p2749
asbag68
(g89
g70
NtRp2750
(dp2751
g73
(dp2752
g100
g101
ssg82
g2741
sg75
(lp2753
S':'
asbag68
(g89
g70
NtRp2754
(dp2755
g73
(dp2756
sg82
g2741
sg75
(lp2757
g68
(g69
g70
NtRp2758
(dp2759
g73
(dp2760
g81
I3
ssg82
g2754
sg75
(lp2761
g1822
asbasbasbag68
(g84
g70
NtRp2762
(dp2763
g73
(dp2764
sg82
g2209
sg75
(lp2765
g68
(g89
g70
NtRp2766
(dp2767
g73
(dp2768
g93
g94
ssg82
g2762
sg75
(lp2769
S'wsgi.version'
p2770
asbag68
(g89
g70
NtRp2771
(dp2772
g73
(dp2773
g100
g101
ssg82
g2762
sg75
(lp2774
S':'
asbag68
(g89
g70
NtRp2775
(dp2776
g73
(dp2777
sg82
g2762
sg75
(lp2778
g68
(g69
g70
NtRp2779
(dp2780
g73
(dp2781
g81
I3
ssg82
g2775
sg75
(lp2782
S'1'
asbasbasbasbasbasbasbasbasbasbasbasbasbsS'frames'
p2783
(lp2784
(dp2785
S'file'
p2786
S'/home/alumno/web2py/gluon/restricted.py'
p2787
sS'dump'
p2788
(dp2789
S'code'
p2790
S'\'response.write(\\\'<!DOCTYPE html>\\\\n<html lang="\\\', ...t   -->    \\\\n  </body>\\\\n</html>\\\\n\\\', escape=False)\''
p2791
sS'layer'
p2792
S"'/home/alumno/web2py/applications/datos/views/default/detalle.html'"
p2793
sS'global compile2'
p2794
S'<function compile2>'
p2795
sS'ccode'
p2796
S'undefined'
p2797
ssS'lnum'
p2798
I191
sS'lines'
p2799
(dp2800
I192
S'        exec ccode in environment'
p2801
sI193
S'    except HTTP:'
p2802
sI194
S'        raise'
p2803
sI195
S'    except Exception:'
p2804
sI186
S"    environment['__file__'] = layer"
p2805
sI187
S'    try:'
p2806
sI188
S'        if type(code) == types.CodeType:'
p2807
sI189
S'            ccode = code'
p2808
sI190
S'        else:'
p2809
sI191
S'            ccode = compile2(code,layer)'
p2810
ssS'call'
p2811
S'(code=\'response.write(\\\'<!DOCTYPE html>\\\\n<html lang="\\\', ...t   -->    \\\\n  </body>\\\\n</html>\\\\n\\\', escape=False)\', environment={\'A\': <class \'gluon.html.A\'>, \'B\': <class \'gluon.html.B\'>, \'BEAUTIFY\': <class \'gluon.html.BEAUTIFY\'>, \'BODY\': <class \'gluon.html.BODY\'>, \'BR\': <class \'gluon.html.BR\'>, \'CENTER\': <class \'gluon.html.CENTER\'>, \'CLEANUP\': <class \'gluon.validators.CLEANUP\'>, \'CODE\': <class \'gluon.html.CODE\'>, \'CRYPT\': <class \'gluon.validators.CRYPT\'>, \'DAL\': <class \'gluon.dal.DAL\'>, ...}, layer=\'/home/alumno/web2py/applications/datos/views/default/detalle.html\')'
p2812
sS'func'
p2813
S'restricted'
p2814
sa(dp2815
g2786
S'/home/alumno/web2py/gluon/restricted.py'
p2816
sg2788
(dp2817
S'builtincompile'
p2818
S'<built-in function compile>'
p2819
sS'code'
p2820
S'\'response.write(\\\'<!DOCTYPE html>\\\\n<html lang="\\\', ...t   -->    \\\\n  </body>\\\\n</html>\\\\n\\\', escape=False)\''
p2821
sS'code.rstrip'
p2822
S'<built-in method rstrip of str object>'
p2823
sS').replace'
p2824
g2797
sS'layer'
p2825
S"'/home/alumno/web2py/applications/datos/views/default/detalle.html'"
p2826
ssg2798
I178
sg2799
(dp2827
I173
S''
sI174
S'def compile2(code,layer):'
p2828
sI175
S'    """'
p2829
sI176
S"    The +'\\n' is necessary else compile fails when code ends in a comment."
p2830
sI177
S'    """'
p2831
sI178
S"    return compile(code.rstrip().replace('\\r\\n','\\n')+'\\n', layer, 'exec')"
p2832
sI179
S''
sI180
S"def restricted(code, environment={}, layer='Unknown'):"
p2833
sI181
S'    """'
p2834
sI182
S'    runs code in environment and returns the output. if an exception occurs'
p2835
ssg2811
S'(code=\'response.write(\\\'<!DOCTYPE html>\\\\n<html lang="\\\', ...t   -->    \\\\n  </body>\\\\n</html>\\\\n\\\', escape=False)\', layer=\'/home/alumno/web2py/applications/datos/views/default/detalle.html\')'
p2836
sg2813
S'compile2'
p2837
sasS'pyver'
p2838
S'Python 2.6.6: /usr/bin/python'
p2839
sS'session'
p2840
g68
(g69
g70
NtRp2841
(dp2842
g73
(dp2843
sg75
(lp2844
g68
(g77
g70
NtRp2845
(dp2846
g73
(dp2847
g81
I5
ssg82
Nsg75
(lp2848
g68
(g84
g70
NtRp2849
(dp2850
g73
(dp2851
sg82
g2845
sg75
(lp2852
g68
(g89
g70
NtRp2853
(dp2854
g73
(dp2855
g93
g94
ssg82
g2849
sg75
(lp2856
S'last_query'
p2857
asbag68
(g89
g70
NtRp2858
(dp2859
g73
(dp2860
g100
g101
ssg82
g2849
sg75
(lp2861
S':'
asbag68
(g89
g70
NtRp2862
(dp2863
g73
(dp2864
sg82
g2849
sg75
(lp2865
g68
(g69
g70
NtRp2866
(dp2867
g73
(dp2868
g81
I5
ssg82
g2862
sg75
(lp2869
S'db.profesor.id>0'
p2870
asbasbasbasbasbsS'etype'
p2871
S"<type 'exceptions.SyntaxError'>"
p2872
sS'date'
p2873
S'Wed Sep  7 20:48:56 2011'
p2874
sS'response'
p2875
g68
(g69
g70
NtRp2876
(dp2877
g73
(dp2878
sg75
(lp2879
g68
(g77
g70
NtRp2880
(dp2881
g73
(dp2882
g81
I5
ssg82
Nsg75
(lp2883
g68
(g84
g70
NtRp2884
(dp2885
g73
(dp2886
sg82
g2880
sg75
(lp2887
g68
(g89
g70
NtRp2888
(dp2889
g73
(dp2890
g93
g94
ssg82
g2884
sg75
(lp2891
g179
asbag68
(g89
g70
NtRp2892
(dp2893
g73
(dp2894
g100
g101
ssg82
g2884
sg75
(lp2895
S':'
asbag68
(g89
g70
NtRp2896
(dp2897
g73
(dp2898
sg82
g2884
sg75
(lp2899
g68
(g69
g70
NtRp2900
(dp2901
g73
(dp2902
g81
I5
ssg82
g2896
sg75
(lp2903
S'<cStringIO.StringO object at 0xa247940>'
p2904
asbasbasbag68
(g84
g70
NtRp2905
(dp2906
g73
(dp2907
sg82
g2880
sg75
(lp2908
g68
(g89
g70
NtRp2909
(dp2910
g73
(dp2911
g93
g94
ssg82
g2905
sg75
(lp2912
g245
asbag68
(g89
g70
NtRp2913
(dp2914
g73
(dp2915
g100
g101
ssg82
g2905
sg75
(lp2916
S':'
asbag68
(g89
g70
NtRp2917
(dp2918
g73
(dp2919
sg82
g2905
sg75
(lp2920
g68
(g69
g70
NtRp2921
(dp2922
g73
(dp2923
g81
I5
ssg82
g2917
sg75
(lp2924
g68
(g77
g70
NtRp2925
(dp2926
g73
(dp2927
g81
I4
ssg82
Nsg75
(lp2928
g68
(g84
g70
NtRp2929
(dp2930
g73
(dp2931
sg82
g2925
sg75
(lp2932
g68
(g89
g70
NtRp2933
(dp2934
g73
(dp2935
g93
g94
ssg82
g2929
sg75
(lp2936
S'session_id_datos'
p2937
asbag68
(g89
g70
NtRp2938
(dp2939
g73
(dp2940
g100
g101
ssg82
g2929
sg75
(lp2941
S':'
asbag68
(g89
g70
NtRp2942
(dp2943
g73
(dp2944
sg82
g2929
sg75
(lp2945
g68
(g69
g70
NtRp2946
(dp2947
g73
(dp2948
g81
I4
ssg82
g2942
sg75
(lp2949
g68
(g77
g70
NtRp2950
(dp2951
g73
(dp2952
g81
I3
ssg82
Nsg75
(lp2953
g68
(g84
g70
NtRp2954
(dp2955
g73
(dp2956
sg82
g2950
sg75
(lp2957
g68
(g89
g70
NtRp2958
(dp2959
g73
(dp2960
g93
g94
ssg82
g2954
sg75
(lp2961
g295
asbag68
(g89
g70
NtRp2962
(dp2963
g73
(dp2964
g100
g101
ssg82
g2954
sg75
(lp2965
S':'
asbag68
(g89
g70
NtRp2966
(dp2967
g73
(dp2968
sg82
g2954
sg75
(lp2969
g68
(g69
g70
NtRp2970
(dp2971
g73
(dp2972
g81
I3
ssg82
g2966
sg75
(lp2973
S''
asbasbasbag68
(g84
g70
NtRp2974
(dp2975
g73
(dp2976
sg82
g2950
sg75
(lp2977
g68
(g89
g70
NtRp2978
(dp2979
g73
(dp2980
g93
g94
ssg82
g2974
sg75
(lp2981
g316
asbag68
(g89
g70
NtRp2982
(dp2983
g73
(dp2984
g100
g101
ssg82
g2974
sg75
(lp2985
S':'
asbag68
(g89
g70
NtRp2986
(dp2987
g73
(dp2988
sg82
g2974
sg75
(lp2989
g68
(g69
g70
NtRp2990
(dp2991
g73
(dp2992
g81
I3
ssg82
g2986
sg75
(lp2993
S''
asbasbasbag68
(g84
g70
NtRp2994
(dp2995
g73
(dp2996
sg82
g2950
sg75
(lp2997
g68
(g89
g70
NtRp2998
(dp2999
g73
(dp3000
g93
g94
ssg82
g2994
sg75
(lp3001
g337
asbag68
(g89
g70
NtRp3002
(dp3003
g73
(dp3004
g100
g101
ssg82
g2994
sg75
(lp3005
S':'
asbag68
(g89
g70
NtRp3006
(dp3007
g73
(dp3008
sg82
g2994
sg75
(lp3009
g68
(g69
g70
NtRp3010
(dp3011
g73
(dp3012
g81
I3
ssg82
g3006
sg75
(lp3013
S''
asbasbasbag68
(g84
g70
NtRp3014
(dp3015
g73
(dp3016
sg82
g2950
sg75
(lp3017
g68
(g89
g70
NtRp3018
(dp3019
g73
(dp3020
g93
g94
ssg82
g3014
sg75
(lp3021
g358
asbag68
(g89
g70
NtRp3022
(dp3023
g73
(dp3024
g100
g101
ssg82
g3014
sg75
(lp3025
S':'
asbag68
(g89
g70
NtRp3026
(dp3027
g73
(dp3028
sg82
g3014
sg75
(lp3029
g68
(g69
g70
NtRp3030
(dp3031
g73
(dp3032
g81
I3
ssg82
g3026
sg75
(lp3033
S''
asbasbasbag68
(g84
g70
NtRp3034
(dp3035
g73
(dp3036
sg82
g2950
sg75
(lp3037
g68
(g89
g70
NtRp3038
(dp3039
g73
(dp3040
g93
g94
ssg82
g3034
sg75
(lp3041
g379
asbag68
(g89
g70
NtRp3042
(dp3043
g73
(dp3044
g100
g101
ssg82
g3034
sg75
(lp3045
S':'
asbag68
(g89
g70
NtRp3046
(dp3047
g73
(dp3048
sg82
g3034
sg75
(lp3049
g68
(g69
g70
NtRp3050
(dp3051
g73
(dp3052
g81
I3
ssg82
g3046
sg75
(lp3053
S''
asbasbasbag68
(g84
g70
NtRp3054
(dp3055
g73
(dp3056
sg82
g2950
sg75
(lp3057
g68
(g89
g70
NtRp3058
(dp3059
g73
(dp3060
g93
g94
ssg82
g3054
sg75
(lp3061
g400
asbag68
(g89
g70
NtRp3062
(dp3063
g73
(dp3064
g100
g101
ssg82
g3054
sg75
(lp3065
S':'
asbag68
(g89
g70
NtRp3066
(dp3067
g73
(dp3068
sg82
g3054
sg75
(lp3069
g68
(g69
g70
NtRp3070
(dp3071
g73
(dp3072
g81
I3
ssg82
g3066
sg75
(lp3073
S'/'
asbasbasbag68
(g84
g70
NtRp3074
(dp3075
g73
(dp3076
sg82
g2950
sg75
(lp3077
g68
(g89
g70
NtRp3078
(dp3079
g73
(dp3080
g93
g94
ssg82
g3074
sg75
(lp3081
g421
asbag68
(g89
g70
NtRp3082
(dp3083
g73
(dp3084
g100
g101
ssg82
g3074
sg75
(lp3085
S':'
asbag68
(g89
g70
NtRp3086
(dp3087
g73
(dp3088
sg82
g3074
sg75
(lp3089
g68
(g69
g70
NtRp3090
(dp3091
g73
(dp3092
g81
I3
ssg82
g3086
sg75
(lp3093
S''
asbasbasbag68
(g84
g70
NtRp3094
(dp3095
g73
(dp3096
sg82
g2950
sg75
(lp3097
g68
(g89
g70
NtRp3098
(dp3099
g73
(dp3100
g93
g94
ssg82
g3094
sg75
(lp3101
g442
asbag68
(g89
g70
NtRp3102
(dp3103
g73
(dp3104
g100
g101
ssg82
g3094
sg75
(lp3105
S':'
asbag68
(g89
g70
NtRp3106
(dp3107
g73
(dp3108
sg82
g3094
sg75
(lp3109
g68
(g69
g70
NtRp3110
(dp3111
g73
(dp3112
g81
I3
ssg82
g3106
sg75
(lp3113
S''
asbasbasbasbasbasbasbasbasbasbasbag68
(g84
g70
NtRp3114
(dp3115
g73
(dp3116
sg82
g2880
sg75
(lp3117
g68
(g89
g70
NtRp3118
(dp3119
g73
(dp3120
g93
g94
ssg82
g3114
sg75
(lp3121
S'files'
p3122
asbag68
(g89
g70
NtRp3123
(dp3124
g73
(dp3125
g100
g101
ssg82
g3114
sg75
(lp3126
S':'
asbag68
(g89
g70
NtRp3127
(dp3128
g73
(dp3129
sg82
g3114
sg75
(lp3130
g68
(g69
g70
NtRp3131
(dp3132
g73
(dp3133
g81
I5
ssg82
g3127
sg75
(lp3134
g68
(g77
g70
NtRp3135
(dp3136
g73
(dp3137
g81
I4
ssg82
Nsg75
(lp3138
sbasbasbasbag68
(g84
g70
NtRp3139
(dp3140
g73
(dp3141
sg82
g2880
sg75
(lp3142
g68
(g89
g70
NtRp3143
(dp3144
g73
(dp3145
g93
g94
ssg82
g3139
sg75
(lp3146
S'flash'
p3147
asbag68
(g89
g70
NtRp3148
(dp3149
g73
(dp3150
g100
g101
ssg82
g3139
sg75
(lp3151
S':'
asbag68
(g89
g70
NtRp3152
(dp3153
g73
(dp3154
sg82
g3139
sg75
(lp3155
g68
(g69
g70
NtRp3156
(dp3157
g73
(dp3158
g81
I5
ssg82
g3152
sg75
(lp3159
S''
asbasbasbag68
(g84
g70
NtRp3160
(dp3161
g73
(dp3162
sg82
g2880
sg75
(lp3163
g68
(g89
g70
NtRp3164
(dp3165
g73
(dp3166
g93
g94
ssg82
g3160
sg75
(lp3167
S'headers'
p3168
asbag68
(g89
g70
NtRp3169
(dp3170
g73
(dp3171
g100
g101
ssg82
g3160
sg75
(lp3172
S':'
asbag68
(g89
g70
NtRp3173
(dp3174
g73
(dp3175
sg82
g3160
sg75
(lp3176
g68
(g69
g70
NtRp3177
(dp3178
g73
(dp3179
g81
I5
ssg82
g3173
sg75
(lp3180
g68
(g77
g70
NtRp3181
(dp3182
g73
(dp3183
g81
I4
ssg82
Nsg75
(lp3184
g68
(g84
g70
NtRp3185
(dp3186
g73
(dp3187
sg82
g3181
sg75
(lp3188
g68
(g89
g70
NtRp3189
(dp3190
g73
(dp3191
g93
g94
ssg82
g3185
sg75
(lp3192
S'Cache-Control'
p3193
asbag68
(g89
g70
NtRp3194
(dp3195
g73
(dp3196
g100
g101
ssg82
g3185
sg75
(lp3197
S':'
asbag68
(g89
g70
NtRp3198
(dp3199
g73
(dp3200
sg82
g3185
sg75
(lp3201
g68
(g69
g70
NtRp3202
(dp3203
g73
(dp3204
g81
I4
ssg82
g3198
sg75
(lp3205
S'no-store, no-cache, must-revalidate, post-check=0, pre-check=0'
p3206
asbasbasbag68
(g84
g70
NtRp3207
(dp3208
g73
(dp3209
sg82
g3181
sg75
(lp3210
g68
(g89
g70
NtRp3211
(dp3212
g73
(dp3213
g93
g94
ssg82
g3207
sg75
(lp3214
S'Content-Type'
p3215
asbag68
(g89
g70
NtRp3216
(dp3217
g73
(dp3218
g100
g101
ssg82
g3207
sg75
(lp3219
S':'
asbag68
(g89
g70
NtRp3220
(dp3221
g73
(dp3222
sg82
g3207
sg75
(lp3223
g68
(g69
g70
NtRp3224
(dp3225
g73
(dp3226
g81
I4
ssg82
g3220
sg75
(lp3227
S'text/html; charset=utf-8'
p3228
asbasbasbag68
(g84
g70
NtRp3229
(dp3230
g73
(dp3231
sg82
g3181
sg75
(lp3232
g68
(g89
g70
NtRp3233
(dp3234
g73
(dp3235
g93
g94
ssg82
g3229
sg75
(lp3236
S'Expires'
p3237
asbag68
(g89
g70
NtRp3238
(dp3239
g73
(dp3240
g100
g101
ssg82
g3229
sg75
(lp3241
S':'
asbag68
(g89
g70
NtRp3242
(dp3243
g73
(dp3244
sg82
g3229
sg75
(lp3245
g68
(g69
g70
NtRp3246
(dp3247
g73
(dp3248
g81
I4
ssg82
g3242
sg75
(lp3249
S'Thu, 08 Sep 2011 01:48:56 GMT'
p3250
asbasbasbag68
(g84
g70
NtRp3251
(dp3252
g73
(dp3253
sg82
g3181
sg75
(lp3254
g68
(g89
g70
NtRp3255
(dp3256
g73
(dp3257
g93
g94
ssg82
g3251
sg75
(lp3258
S'Pragma'
p3259
asbag68
(g89
g70
NtRp3260
(dp3261
g73
(dp3262
g100
g101
ssg82
g3251
sg75
(lp3263
S':'
asbag68
(g89
g70
NtRp3264
(dp3265
g73
(dp3266
sg82
g3251
sg75
(lp3267
g68
(g69
g70
NtRp3268
(dp3269
g73
(dp3270
g81
I4
ssg82
g3264
sg75
(lp3271
S'no-cache'
p3272
asbasbasbag68
(g84
g70
NtRp3273
(dp3274
g73
(dp3275
sg82
g3181
sg75
(lp3276
g68
(g89
g70
NtRp3277
(dp3278
g73
(dp3279
g93
g94
ssg82
g3273
sg75
(lp3280
S'X-Powered-By'
p3281
asbag68
(g89
g70
NtRp3282
(dp3283
g73
(dp3284
g100
g101
ssg82
g3273
sg75
(lp3285
S':'
asbag68
(g89
g70
NtRp3286
(dp3287
g73
(dp3288
sg82
g3273
sg75
(lp3289
g68
(g69
g70
NtRp3290
(dp3291
g73
(dp3292
g81
I4
ssg82
g3286
sg75
(lp3293
S'web2py'
p3294
asbasbasbasbasbasbasbag68
(g84
g70
NtRp3295
(dp3296
g73
(dp3297
sg82
g2880
sg75
(lp3298
g68
(g89
g70
NtRp3299
(dp3300
g73
(dp3301
g93
g94
ssg82
g3295
sg75
(lp3302
S'menu'
p3303
asbag68
(g89
g70
NtRp3304
(dp3305
g73
(dp3306
g100
g101
ssg82
g3295
sg75
(lp3307
S':'
asbag68
(g89
g70
NtRp3308
(dp3309
g73
(dp3310
sg82
g3295
sg75
(lp3311
g68
(g69
g70
NtRp3312
(dp3313
g73
(dp3314
g81
I5
ssg82
g3308
sg75
(lp3315
g68
(g77
g70
NtRp3316
(dp3317
g73
(dp3318
g81
I4
ssg82
Nsg75
(lp3319
g68
(g84
g70
NtRp3320
(dp3321
g73
(dp3322
sg82
g3316
sg75
(lp3323
g68
(g89
g70
NtRp3324
(dp3325
g73
(dp3326
sg82
g3320
sg75
(lp3327
g68
(g69
g70
NtRp3328
(dp3329
g73
(dp3330
g81
I4
ssg82
g3324
sg75
(lp3331
g68
(g77
g70
NtRp3332
(dp3333
g73
(dp3334
g81
I3
ssg82
Nsg75
(lp3335
g68
(g84
g70
NtRp3336
(dp3337
g73
(dp3338
sg82
g3332
sg75
(lp3339
g68
(g89
g70
NtRp3340
(dp3341
g73
(dp3342
sg82
g3336
sg75
(lp3343
g68
(g69
g70
NtRp3344
(dp3345
g73
(dp3346
g81
I3
ssg82
g3340
sg75
(lp3347
cgluon.languages
lazyT_unpickle
p3348
(S's\x04\x00\x00\x00Home'
tRp3349
asbasbasbag68
(g84
g70
NtRp3350
(dp3351
g73
(dp3352
sg82
g3332
sg75
(lp3353
g68
(g89
g70
NtRp3354
(dp3355
g73
(dp3356
sg82
g3350
sg75
(lp3357
g68
(g69
g70
NtRp3358
(dp3359
g73
(dp3360
g81
I3
ssg82
g3354
sg75
(lp3361
g111
asbasbasbag68
(g84
g70
NtRp3362
(dp3363
g73
(dp3364
sg82
g3332
sg75
(lp3365
g68
(g89
g70
NtRp3366
(dp3367
g73
(dp3368
sg82
g3362
sg75
(lp3369
g68
(g69
g70
NtRp3370
(dp3371
g73
(dp3372
g81
I3
ssg82
g3366
sg75
(lp3373
S'/datos/default/index'
p3374
asbasbasbag68
(g84
g70
NtRp3375
(dp3376
g73
(dp3377
sg82
g3332
sg75
(lp3378
g68
(g89
g70
NtRp3379
(dp3380
g73
(dp3381
sg82
g3375
sg75
(lp3382
g68
(g69
g70
NtRp3383
(dp3384
g73
(dp3385
g81
I3
ssg82
g3379
sg75
(lp3386
g68
(g77
g70
NtRp3387
(dp3388
g73
(dp3389
g81
I2
ssg82
Nsg75
(lp3390
sbasbasbasbasbasbasbasbag68
(g84
g70
NtRp3391
(dp3392
g73
(dp3393
sg82
g3316
sg75
(lp3394
g68
(g89
g70
NtRp3395
(dp3396
g73
(dp3397
sg82
g3391
sg75
(lp3398
g68
(g69
g70
NtRp3399
(dp3400
g73
(dp3401
g81
I4
ssg82
g3395
sg75
(lp3402
g68
(g77
g70
NtRp3403
(dp3404
g73
(dp3405
g81
I3
ssg82
Nsg75
(lp3406
g68
(g84
g70
NtRp3407
(dp3408
g73
(dp3409
sg82
g3403
sg75
(lp3410
g68
(g89
g70
NtRp3411
(dp3412
g73
(dp3413
sg82
g3407
sg75
(lp3414
g68
(g69
g70
NtRp3415
(dp3416
g73
(dp3417
g81
I3
ssg82
g3411
sg75
(lp3418
g3348
(S's\x08\x00\x00\x00This App'
tRp3419
asbasbasbag68
(g84
g70
NtRp3420
(dp3421
g73
(dp3422
sg82
g3403
sg75
(lp3423
g68
(g89
g70
NtRp3424
(dp3425
g73
(dp3426
sg82
g3420
sg75
(lp3427
g68
(g69
g70
NtRp3428
(dp3429
g73
(dp3430
g81
I3
ssg82
g3424
sg75
(lp3431
g111
asbasbasbag68
(g84
g70
NtRp3432
(dp3433
g73
(dp3434
sg82
g3403
sg75
(lp3435
g68
(g89
g70
NtRp3436
(dp3437
g73
(dp3438
sg82
g3432
sg75
(lp3439
g68
(g69
g70
NtRp3440
(dp3441
g73
(dp3442
g81
I3
ssg82
g3436
sg75
(lp3443
S'/admin/default/design/datos'
p3444
asbasbasbag68
(g84
g70
NtRp3445
(dp3446
g73
(dp3447
sg82
g3403
sg75
(lp3448
g68
(g89
g70
NtRp3449
(dp3450
g73
(dp3451
sg82
g3445
sg75
(lp3452
g68
(g69
g70
NtRp3453
(dp3454
g73
(dp3455
g81
I3
ssg82
g3449
sg75
(lp3456
g68
(g77
g70
NtRp3457
(dp3458
g73
(dp3459
g81
I2
ssg82
Nsg75
(lp3460
g68
(g84
g70
NtRp3461
(dp3462
g73
(dp3463
sg82
g3457
sg75
(lp3464
g68
(g89
g70
NtRp3465
(dp3466
g73
(dp3467
sg82
g3461
sg75
(lp3468
g68
(g69
g70
NtRp3469
(dp3470
g73
(dp3471
g81
I2
ssg82
g3465
sg75
(lp3472
g68
(g77
g70
NtRp3473
(dp3474
g73
(dp3475
g81
I1
ssg82
Nsg75
(lp3476
g68
(g84
g70
NtRp3477
(dp3478
g73
(dp3479
sg82
g3473
sg75
(lp3480
g68
(g89
g70
NtRp3481
(dp3482
g73
(dp3483
sg82
g3477
sg75
(lp3484
g68
(g69
g70
NtRp3485
(dp3486
g73
(dp3487
g81
I1
ssg82
g3481
sg75
(lp3488
g3348
(S's\n\x00\x00\x00Controller'
tRp3489
asbasbasbag68
(g84
g70
NtRp3490
(dp3491
g73
(dp3492
sg82
g3473
sg75
(lp3493
g68
(g89
g70
NtRp3494
(dp3495
g73
(dp3496
sg82
g3490
sg75
(lp3497
g68
(g69
g70
NtRp3498
(dp3499
g73
(dp3500
g81
I1
ssg82
g3494
sg75
(lp3501
I00
asbasbasbag68
(g84
g70
NtRp3502
(dp3503
g73
(dp3504
sg82
g3473
sg75
(lp3505
g68
(g89
g70
NtRp3506
(dp3507
g73
(dp3508
sg82
g3502
sg75
(lp3509
g68
(g69
g70
NtRp3510
(dp3511
g73
(dp3512
g81
I1
ssg82
g3506
sg75
(lp3513
S'/admin/default/edit/datos/controllers/default.py'
p3514
asbasbasbasbasbasbasbag68
(g84
g70
NtRp3515
(dp3516
g73
(dp3517
sg82
g3457
sg75
(lp3518
g68
(g89
g70
NtRp3519
(dp3520
g73
(dp3521
sg82
g3515
sg75
(lp3522
g68
(g69
g70
NtRp3523
(dp3524
g73
(dp3525
g81
I2
ssg82
g3519
sg75
(lp3526
g68
(g77
g70
NtRp3527
(dp3528
g73
(dp3529
g81
I1
ssg82
Nsg75
(lp3530
g68
(g84
g70
NtRp3531
(dp3532
g73
(dp3533
sg82
g3527
sg75
(lp3534
g68
(g89
g70
NtRp3535
(dp3536
g73
(dp3537
sg82
g3531
sg75
(lp3538
g68
(g69
g70
NtRp3539
(dp3540
g73
(dp3541
g81
I1
ssg82
g3535
sg75
(lp3542
g3348
(S's\x04\x00\x00\x00View'
tRp3543
asbasbasbag68
(g84
g70
NtRp3544
(dp3545
g73
(dp3546
sg82
g3527
sg75
(lp3547
g68
(g89
g70
NtRp3548
(dp3549
g73
(dp3550
sg82
g3544
sg75
(lp3551
g68
(g69
g70
NtRp3552
(dp3553
g73
(dp3554
g81
I1
ssg82
g3548
sg75
(lp3555
I00
asbasbasbag68
(g84
g70
NtRp3556
(dp3557
g73
(dp3558
sg82
g3527
sg75
(lp3559
g68
(g89
g70
NtRp3560
(dp3561
g73
(dp3562
sg82
g3556
sg75
(lp3563
g68
(g69
g70
NtRp3564
(dp3565
g73
(dp3566
g81
I1
ssg82
g3560
sg75
(lp3567
S'/admin/default/edit/datos/views/default/detalle.html'
p3568
asbasbasbasbasbasbasbag68
(g84
g70
NtRp3569
(dp3570
g73
(dp3571
sg82
g3457
sg75
(lp3572
g68
(g89
g70
NtRp3573
(dp3574
g73
(dp3575
sg82
g3569
sg75
(lp3576
g68
(g69
g70
NtRp3577
(dp3578
g73
(dp3579
g81
I2
ssg82
g3573
sg75
(lp3580
g68
(g77
g70
NtRp3581
(dp3582
g73
(dp3583
g81
I1
ssg82
Nsg75
(lp3584
g68
(g84
g70
NtRp3585
(dp3586
g73
(dp3587
sg82
g3581
sg75
(lp3588
g68
(g89
g70
NtRp3589
(dp3590
g73
(dp3591
sg82
g3585
sg75
(lp3592
g68
(g69
g70
NtRp3593
(dp3594
g73
(dp3595
g81
I1
ssg82
g3589
sg75
(lp3596
g3348
(S's\x06\x00\x00\x00Layout'
tRp3597
asbasbasbag68
(g84
g70
NtRp3598
(dp3599
g73
(dp3600
sg82
g3581
sg75
(lp3601
g68
(g89
g70
NtRp3602
(dp3603
g73
(dp3604
sg82
g3598
sg75
(lp3605
g68
(g69
g70
NtRp3606
(dp3607
g73
(dp3608
g81
I1
ssg82
g3602
sg75
(lp3609
I00
asbasbasbag68
(g84
g70
NtRp3610
(dp3611
g73
(dp3612
sg82
g3581
sg75
(lp3613
g68
(g89
g70
NtRp3614
(dp3615
g73
(dp3616
sg82
g3610
sg75
(lp3617
g68
(g69
g70
NtRp3618
(dp3619
g73
(dp3620
g81
I1
ssg82
g3614
sg75
(lp3621
S'/admin/default/edit/datos/views/layout.html'
p3622
asbasbasbasbasbasbasbag68
(g84
g70
NtRp3623
(dp3624
g73
(dp3625
sg82
g3457
sg75
(lp3626
g68
(g89
g70
NtRp3627
(dp3628
g73
(dp3629
sg82
g3623
sg75
(lp3630
g68
(g69
g70
NtRp3631
(dp3632
g73
(dp3633
g81
I2
ssg82
g3627
sg75
(lp3634
g68
(g77
g70
NtRp3635
(dp3636
g73
(dp3637
g81
I1
ssg82
Nsg75
(lp3638
g68
(g84
g70
NtRp3639
(dp3640
g73
(dp3641
sg82
g3635
sg75
(lp3642
g68
(g89
g70
NtRp3643
(dp3644
g73
(dp3645
sg82
g3639
sg75
(lp3646
g68
(g69
g70
NtRp3647
(dp3648
g73
(dp3649
g81
I1
ssg82
g3643
sg75
(lp3650
g3348
(S's\n\x00\x00\x00Stylesheet'
tRp3651
asbasbasbag68
(g84
g70
NtRp3652
(dp3653
g73
(dp3654
sg82
g3635
sg75
(lp3655
g68
(g89
g70
NtRp3656
(dp3657
g73
(dp3658
sg82
g3652
sg75
(lp3659
g68
(g69
g70
NtRp3660
(dp3661
g73
(dp3662
g81
I1
ssg82
g3656
sg75
(lp3663
I00
asbasbasbag68
(g84
g70
NtRp3664
(dp3665
g73
(dp3666
sg82
g3635
sg75
(lp3667
g68
(g89
g70
NtRp3668
(dp3669
g73
(dp3670
sg82
g3664
sg75
(lp3671
g68
(g69
g70
NtRp3672
(dp3673
g73
(dp3674
g81
I1
ssg82
g3668
sg75
(lp3675
S'/admin/default/edit/datos/static/base.css'
p3676
asbasbasbasbasbasbasbag68
(g84
g70
NtRp3677
(dp3678
g73
(dp3679
sg82
g3457
sg75
(lp3680
g68
(g89
g70
NtRp3681
(dp3682
g73
(dp3683
sg82
g3677
sg75
(lp3684
g68
(g69
g70
NtRp3685
(dp3686
g73
(dp3687
g81
I2
ssg82
g3681
sg75
(lp3688
g68
(g77
g70
NtRp3689
(dp3690
g73
(dp3691
g81
I1
ssg82
Nsg75
(lp3692
g68
(g84
g70
NtRp3693
(dp3694
g73
(dp3695
sg82
g3689
sg75
(lp3696
g68
(g89
g70
NtRp3697
(dp3698
g73
(dp3699
sg82
g3693
sg75
(lp3700
g68
(g69
g70
NtRp3701
(dp3702
g73
(dp3703
g81
I1
ssg82
g3697
sg75
(lp3704
g3348
(S's\x08\x00\x00\x00DB Model'
tRp3705
asbasbasbag68
(g84
g70
NtRp3706
(dp3707
g73
(dp3708
sg82
g3689
sg75
(lp3709
g68
(g89
g70
NtRp3710
(dp3711
g73
(dp3712
sg82
g3706
sg75
(lp3713
g68
(g69
g70
NtRp3714
(dp3715
g73
(dp3716
g81
I1
ssg82
g3710
sg75
(lp3717
I00
asbasbasbag68
(g84
g70
NtRp3718
(dp3719
g73
(dp3720
sg82
g3689
sg75
(lp3721
g68
(g89
g70
NtRp3722
(dp3723
g73
(dp3724
sg82
g3718
sg75
(lp3725
g68
(g69
g70
NtRp3726
(dp3727
g73
(dp3728
g81
I1
ssg82
g3722
sg75
(lp3729
S'/admin/default/edit/datos/models/db.py'
p3730
asbasbasbasbasbasbasbag68
(g84
g70
NtRp3731
(dp3732
g73
(dp3733
sg82
g3457
sg75
(lp3734
g68
(g89
g70
NtRp3735
(dp3736
g73
(dp3737
sg82
g3731
sg75
(lp3738
g68
(g69
g70
NtRp3739
(dp3740
g73
(dp3741
g81
I2
ssg82
g3735
sg75
(lp3742
g68
(g77
g70
NtRp3743
(dp3744
g73
(dp3745
g81
I1
ssg82
Nsg75
(lp3746
g68
(g84
g70
NtRp3747
(dp3748
g73
(dp3749
sg82
g3743
sg75
(lp3750
g68
(g89
g70
NtRp3751
(dp3752
g73
(dp3753
sg82
g3747
sg75
(lp3754
g68
(g69
g70
NtRp3755
(dp3756
g73
(dp3757
g81
I1
ssg82
g3751
sg75
(lp3758
g3348
(S's\n\x00\x00\x00Menu Model'
tRp3759
asbasbasbag68
(g84
g70
NtRp3760
(dp3761
g73
(dp3762
sg82
g3743
sg75
(lp3763
g68
(g89
g70
NtRp3764
(dp3765
g73
(dp3766
sg82
g3760
sg75
(lp3767
g68
(g69
g70
NtRp3768
(dp3769
g73
(dp3770
g81
I1
ssg82
g3764
sg75
(lp3771
I00
asbasbasbag68
(g84
g70
NtRp3772
(dp3773
g73
(dp3774
sg82
g3743
sg75
(lp3775
g68
(g89
g70
NtRp3776
(dp3777
g73
(dp3778
sg82
g3772
sg75
(lp3779
g68
(g69
g70
NtRp3780
(dp3781
g73
(dp3782
g81
I1
ssg82
g3776
sg75
(lp3783
S'/admin/default/edit/datos/models/menu.py'
p3784
asbasbasbasbasbasbasbag68
(g84
g70
NtRp3785
(dp3786
g73
(dp3787
sg82
g3457
sg75
(lp3788
g68
(g89
g70
NtRp3789
(dp3790
g73
(dp3791
sg82
g3785
sg75
(lp3792
g68
(g69
g70
NtRp3793
(dp3794
g73
(dp3795
g81
I2
ssg82
g3789
sg75
(lp3796
g68
(g77
g70
NtRp3797
(dp3798
g73
(dp3799
g81
I1
ssg82
Nsg75
(lp3800
g68
(g84
g70
NtRp3801
(dp3802
g73
(dp3803
sg82
g3797
sg75
(lp3804
g68
(g89
g70
NtRp3805
(dp3806
g73
(dp3807
sg82
g3801
sg75
(lp3808
g68
(g69
g70
NtRp3809
(dp3810
g73
(dp3811
g81
I1
ssg82
g3805
sg75
(lp3812
g3348
(S's\x08\x00\x00\x00Database'
tRp3813
asbasbasbag68
(g84
g70
NtRp3814
(dp3815
g73
(dp3816
sg82
g3797
sg75
(lp3817
g68
(g89
g70
NtRp3818
(dp3819
g73
(dp3820
sg82
g3814
sg75
(lp3821
g68
(g69
g70
NtRp3822
(dp3823
g73
(dp3824
g81
I1
ssg82
g3818
sg75
(lp3825
I00
asbasbasbag68
(g84
g70
NtRp3826
(dp3827
g73
(dp3828
sg82
g3797
sg75
(lp3829
g68
(g89
g70
NtRp3830
(dp3831
g73
(dp3832
sg82
g3826
sg75
(lp3833
g68
(g69
g70
NtRp3834
(dp3835
g73
(dp3836
g81
I1
ssg82
g3830
sg75
(lp3837
S'/datos/appadmin/index'
p3838
asbasbasbasbasbasbasbag68
(g84
g70
NtRp3839
(dp3840
g73
(dp3841
sg82
g3457
sg75
(lp3842
g68
(g89
g70
NtRp3843
(dp3844
g73
(dp3845
sg82
g3839
sg75
(lp3846
g68
(g69
g70
NtRp3847
(dp3848
g73
(dp3849
g81
I2
ssg82
g3843
sg75
(lp3850
g68
(g77
g70
NtRp3851
(dp3852
g73
(dp3853
g81
I1
ssg82
Nsg75
(lp3854
g68
(g84
g70
NtRp3855
(dp3856
g73
(dp3857
sg82
g3851
sg75
(lp3858
g68
(g89
g70
NtRp3859
(dp3860
g73
(dp3861
sg82
g3855
sg75
(lp3862
g68
(g69
g70
NtRp3863
(dp3864
g73
(dp3865
g81
I1
ssg82
g3859
sg75
(lp3866
g3348
(S's\x06\x00\x00\x00Errors'
tRp3867
asbasbasbag68
(g84
g70
NtRp3868
(dp3869
g73
(dp3870
sg82
g3851
sg75
(lp3871
g68
(g89
g70
NtRp3872
(dp3873
g73
(dp3874
sg82
g3868
sg75
(lp3875
g68
(g69
g70
NtRp3876
(dp3877
g73
(dp3878
g81
I1
ssg82
g3872
sg75
(lp3879
I00
asbasbasbag68
(g84
g70
NtRp3880
(dp3881
g73
(dp3882
sg82
g3851
sg75
(lp3883
g68
(g89
g70
NtRp3884
(dp3885
g73
(dp3886
sg82
g3880
sg75
(lp3887
g68
(g69
g70
NtRp3888
(dp3889
g73
(dp3890
g81
I1
ssg82
g3884
sg75
(lp3891
S'/admin/default/errors/datos'
p3892
asbasbasbasbasbasbasbag68
(g84
g70
NtRp3893
(dp3894
g73
(dp3895
sg82
g3457
sg75
(lp3896
g68
(g89
g70
NtRp3897
(dp3898
g73
(dp3899
sg82
g3893
sg75
(lp3900
g68
(g69
g70
NtRp3901
(dp3902
g73
(dp3903
g81
I2
ssg82
g3897
sg75
(lp3904
g68
(g77
g70
NtRp3905
(dp3906
g73
(dp3907
g81
I1
ssg82
Nsg75
(lp3908
g68
(g84
g70
NtRp3909
(dp3910
g73
(dp3911
sg82
g3905
sg75
(lp3912
g68
(g89
g70
NtRp3913
(dp3914
g73
(dp3915
sg82
g3909
sg75
(lp3916
g68
(g69
g70
NtRp3917
(dp3918
g73
(dp3919
g81
I1
ssg82
g3913
sg75
(lp3920
g3348
(S's\x05\x00\x00\x00About'
tRp3921
asbasbasbag68
(g84
g70
NtRp3922
(dp3923
g73
(dp3924
sg82
g3905
sg75
(lp3925
g68
(g89
g70
NtRp3926
(dp3927
g73
(dp3928
sg82
g3922
sg75
(lp3929
g68
(g69
g70
NtRp3930
(dp3931
g73
(dp3932
g81
I1
ssg82
g3926
sg75
(lp3933
I00
asbasbasbag68
(g84
g70
NtRp3934
(dp3935
g73
(dp3936
sg82
g3905
sg75
(lp3937
g68
(g89
g70
NtRp3938
(dp3939
g73
(dp3940
sg82
g3934
sg75
(lp3941
g68
(g69
g70
NtRp3942
(dp3943
g73
(dp3944
g81
I1
ssg82
g3938
sg75
(lp3945
S'/admin/default/about/datos'
p3946
asbasbasbasbasbasbasbasbasbasbasbasbasbasbasbag68
(g84
g70
NtRp3947
(dp3948
g73
(dp3949
sg82
g3316
sg75
(lp3950
g68
(g89
g70
NtRp3951
(dp3952
g73
(dp3953
sg82
g3947
sg75
(lp3954
g68
(g69
g70
NtRp3955
(dp3956
g73
(dp3957
g81
I4
ssg82
g3951
sg75
(lp3958
g68
(g77
g70
NtRp3959
(dp3960
g73
(dp3961
g81
I3
ssg82
Nsg75
(lp3962
g68
(g84
g70
NtRp3963
(dp3964
g73
(dp3965
sg82
g3959
sg75
(lp3966
g68
(g89
g70
NtRp3967
(dp3968
g73
(dp3969
sg82
g3963
sg75
(lp3970
g68
(g69
g70
NtRp3971
(dp3972
g73
(dp3973
g81
I3
ssg82
g3967
sg75
(lp3974
g3348
(S's\t\x00\x00\x00Resources'
tRp3975
asbasbasbag68
(g84
g70
NtRp3976
(dp3977
g73
(dp3978
sg82
g3959
sg75
(lp3979
g68
(g89
g70
NtRp3980
(dp3981
g73
(dp3982
sg82
g3976
sg75
(lp3983
g68
(g69
g70
NtRp3984
(dp3985
g73
(dp3986
g81
I3
ssg82
g3980
sg75
(lp3987
g111
asbasbasbag68
(g84
g70
NtRp3988
(dp3989
g73
(dp3990
sg82
g3959
sg75
(lp3991
g68
(g89
g70
NtRp3992
(dp3993
g73
(dp3994
sg82
g3988
sg75
(lp3995
g68
(g69
g70
NtRp3996
(dp3997
g73
(dp3998
g81
I3
ssg82
g3992
sg75
(lp3999
S'None'
p4000
asbasbasbag68
(g84
g70
NtRp4001
(dp4002
g73
(dp4003
sg82
g3959
sg75
(lp4004
g68
(g89
g70
NtRp4005
(dp4006
g73
(dp4007
sg82
g4001
sg75
(lp4008
g68
(g69
g70
NtRp4009
(dp4010
g73
(dp4011
g81
I3
ssg82
g4005
sg75
(lp4012
g68
(g77
g70
NtRp4013
(dp4014
g73
(dp4015
g81
I2
ssg82
Nsg75
(lp4016
g68
(g84
g70
NtRp4017
(dp4018
g73
(dp4019
sg82
g4013
sg75
(lp4020
g68
(g89
g70
NtRp4021
(dp4022
g73
(dp4023
sg82
g4017
sg75
(lp4024
g68
(g69
g70
NtRp4025
(dp4026
g73
(dp4027
g81
I2
ssg82
g4021
sg75
(lp4028
g68
(g77
g70
NtRp4029
(dp4030
g73
(dp4031
g81
I1
ssg82
Nsg75
(lp4032
g68
(g84
g70
NtRp4033
(dp4034
g73
(dp4035
sg82
g4029
sg75
(lp4036
g68
(g89
g70
NtRp4037
(dp4038
g73
(dp4039
sg82
g4033
sg75
(lp4040
g68
(g69
g70
NtRp4041
(dp4042
g73
(dp4043
g81
I1
ssg82
g4037
sg75
(lp4044
g3348
(S's\r\x00\x00\x00Documentation'
tRp4045
asbasbasbag68
(g84
g70
NtRp4046
(dp4047
g73
(dp4048
sg82
g4029
sg75
(lp4049
g68
(g89
g70
NtRp4050
(dp4051
g73
(dp4052
sg82
g4046
sg75
(lp4053
g68
(g69
g70
NtRp4054
(dp4055
g73
(dp4056
g81
I1
ssg82
g4050
sg75
(lp4057
I00
asbasbasbag68
(g84
g70
NtRp4058
(dp4059
g73
(dp4060
sg82
g4029
sg75
(lp4061
g68
(g89
g70
NtRp4062
(dp4063
g73
(dp4064
sg82
g4058
sg75
(lp4065
g68
(g69
g70
NtRp4066
(dp4067
g73
(dp4068
g81
I1
ssg82
g4062
sg75
(lp4069
S'http://www.web2py.com/book'
p4070
asbasbasbag68
(g84
g70
NtRp4071
(dp4072
g73
(dp4073
sg82
g4029
sg75
(lp4074
g68
(g89
g70
NtRp4075
(dp4076
g73
(dp4077
sg82
g4071
sg75
(lp4078
g68
(g69
g70
NtRp4079
(dp4080
g73
(dp4081
g81
I1
ssg82
g4075
sg75
(lp4082
(lp4083
(g3348
(S's\x07\x00\x00\x00Preface'
tRp4084
I00
S'http://www.web2py.com/book/default/chapter/00'
tp4085
a(g3348
(S's\x0c\x00\x00\x00Introduction'
tRp4086
I00
S'http://www.web2py.com/book/default/chapter/01'
tp4087
a(g3348
(S's\x06\x00\x00\x00Python'
tRp4088
I00
S'http://www.web2py.com/book/default/chapter/02'
tp4089
a(g3348
(S's\x08\x00\x00\x00Overview'
tRp4090
I00
S'http://www.web2py.com/book/default/chapter/03'
tp4091
a(g3348
(S's\x08\x00\x00\x00The Core'
tRp4092
I00
S'http://www.web2py.com/book/default/chapter/04'
tp4093
a(g3348
(S's\t\x00\x00\x00The Views'
tRp4094
I00
S'http://www.web2py.com/book/default/chapter/05'
tp4095
a(g3348
(S's\x08\x00\x00\x00Database'
tRp4096
I00
S'http://www.web2py.com/book/default/chapter/06'
tp4097
a(g3348
(S's\x14\x00\x00\x00Forms and Validators'
tRp4098
I00
S'http://www.web2py.com/book/default/chapter/07'
tp4099
a(g3348
(S's\x0e\x00\x00\x00Access Control'
tRp4100
I00
S'http://www.web2py.com/book/default/chapter/08'
tp4101
a(g3348
(S's\x08\x00\x00\x00Services'
tRp4102
I00
S'http://www.web2py.com/book/default/chapter/09'
tp4103
a(g3348
(S's\x0c\x00\x00\x00Ajax Recipes'
tRp4104
I00
S'http://www.web2py.com/book/default/chapter/10'
tp4105
a(g3348
(S's\x12\x00\x00\x00Deployment Recipes'
tRp4106
I00
S'http://www.web2py.com/book/default/chapter/11'
tp4107
a(g3348
(S's\r\x00\x00\x00Other Recipes'
tRp4108
I00
S'http://www.web2py.com/book/default/chapter/12'
tp4109
a(g3348
(S's\r\x00\x00\x00Buy this book'
tRp4110
I00
S'http://stores.lulu.com/web2py'
tp4111
aasbasbasbasbasbasbasbag68
(g84
g70
NtRp4112
(dp4113
g73
(dp4114
sg82
g4013
sg75
(lp4115
g68
(g89
g70
NtRp4116
(dp4117
g73
(dp4118
sg82
g4112
sg75
(lp4119
g68
(g69
g70
NtRp4120
(dp4121
g73
(dp4122
g81
I2
ssg82
g4116
sg75
(lp4123
g68
(g77
g70
NtRp4124
(dp4125
g73
(dp4126
g81
I1
ssg82
Nsg75
(lp4127
g68
(g84
g70
NtRp4128
(dp4129
g73
(dp4130
sg82
g4124
sg75
(lp4131
g68
(g89
g70
NtRp4132
(dp4133
g73
(dp4134
sg82
g4128
sg75
(lp4135
g68
(g69
g70
NtRp4136
(dp4137
g73
(dp4138
g81
I1
ssg82
g4132
sg75
(lp4139
g3348
(S's\t\x00\x00\x00Community'
tRp4140
asbasbasbag68
(g84
g70
NtRp4141
(dp4142
g73
(dp4143
sg82
g4124
sg75
(lp4144
g68
(g89
g70
NtRp4145
(dp4146
g73
(dp4147
sg82
g4141
sg75
(lp4148
g68
(g69
g70
NtRp4149
(dp4150
g73
(dp4151
g81
I1
ssg82
g4145
sg75
(lp4152
I00
asbasbasbag68
(g84
g70
NtRp4153
(dp4154
g73
(dp4155
sg82
g4124
sg75
(lp4156
g68
(g89
g70
NtRp4157
(dp4158
g73
(dp4159
sg82
g4153
sg75
(lp4160
g68
(g69
g70
NtRp4161
(dp4162
g73
(dp4163
g81
I1
ssg82
g4157
sg75
(lp4164
Nasbasbasbag68
(g84
g70
NtRp4165
(dp4166
g73
(dp4167
sg82
g4124
sg75
(lp4168
g68
(g89
g70
NtRp4169
(dp4170
g73
(dp4171
sg82
g4165
sg75
(lp4172
g68
(g69
g70
NtRp4173
(dp4174
g73
(dp4175
g81
I1
ssg82
g4169
sg75
(lp4176
(lp4177
(g3348
(S's\x06\x00\x00\x00Groups'
tRp4178
I00
S'http://www.web2py.com/examples/default/usergroups'
tp4179
a(g3348
(S's\x07\x00\x00\x00Twitter'
tRp4180
I00
S'http://twitter.com/web2py'
tp4181
a(g3348
(S's\t\x00\x00\x00Live chat'
tRp4182
I00
S'http://mibbit.com/?channel=%23web2py&server=irc.mibbit.net'
tp4183
a(g3348
(S's\n\x00\x00\x00User Voice'
tRp4184
I00
S'http://web2py.uservoice.com/'
tp4185
aasbasbasbasbasbasbasbag68
(g84
g70
NtRp4186
(dp4187
g73
(dp4188
sg82
g4013
sg75
(lp4189
g68
(g89
g70
NtRp4190
(dp4191
g73
(dp4192
sg82
g4186
sg75
(lp4193
g68
(g69
g70
NtRp4194
(dp4195
g73
(dp4196
g81
I2
ssg82
g4190
sg75
(lp4197
g68
(g77
g70
NtRp4198
(dp4199
g73
(dp4200
g81
I1
ssg82
Nsg75
(lp4201
g68
(g84
g70
NtRp4202
(dp4203
g73
(dp4204
sg82
g4198
sg75
(lp4205
g68
(g89
g70
NtRp4206
(dp4207
g73
(dp4208
sg82
g4202
sg75
(lp4209
g68
(g69
g70
NtRp4210
(dp4211
g73
(dp4212
g81
I1
ssg82
g4206
sg75
(lp4213
g3348
(S's\x06\x00\x00\x00Web2py'
tRp4214
asbasbasbag68
(g84
g70
NtRp4215
(dp4216
g73
(dp4217
sg82
g4198
sg75
(lp4218
g68
(g89
g70
NtRp4219
(dp4220
g73
(dp4221
sg82
g4215
sg75
(lp4222
g68
(g69
g70
NtRp4223
(dp4224
g73
(dp4225
g81
I1
ssg82
g4219
sg75
(lp4226
I00
asbasbasbag68
(g84
g70
NtRp4227
(dp4228
g73
(dp4229
sg82
g4198
sg75
(lp4230
g68
(g89
g70
NtRp4231
(dp4232
g73
(dp4233
sg82
g4227
sg75
(lp4234
g68
(g69
g70
NtRp4235
(dp4236
g73
(dp4237
g81
I1
ssg82
g4231
sg75
(lp4238
S'http://www.web2py.com'
p4239
asbasbasbag68
(g84
g70
NtRp4240
(dp4241
g73
(dp4242
sg82
g4198
sg75
(lp4243
g68
(g89
g70
NtRp4244
(dp4245
g73
(dp4246
sg82
g4240
sg75
(lp4247
g68
(g69
g70
NtRp4248
(dp4249
g73
(dp4250
g81
I1
ssg82
g4244
sg75
(lp4251
(lp4252
(g3348
(S's\x08\x00\x00\x00Download'
tRp4253
I00
S'http://www.web2py.com/examples/default/download'
tp4254
a(g3348
(S's\x07\x00\x00\x00Support'
tRp4255
I00
S'http://www.web2py.com/examples/default/support'
tp4256
a(g3348
(S's\x0e\x00\x00\x00Quick Examples'
tRp4257
I00
S'http://web2py.com/examples/default/examples'
tp4258
a(g3348
(S's\x03\x00\x00\x00FAQ'
tRp4259
I00
S'http://web2py.com/AlterEgo'
tp4260
a(g3348
(S's\x11\x00\x00\x00Free Applications'
tRp4261
I00
S'http://web2py.com/appliances'
tp4262
a(g3348
(S's\x07\x00\x00\x00Plugins'
tRp4263
I00
S'http://web2py.com/plugins'
tp4264
a(g3348
(S's\x07\x00\x00\x00Recipes'
tRp4265
I00
S'http://web2pyslices.com/'
tp4266
a(g3348
(S's\x04\x00\x00\x00Demo'
tRp4267
I00
S'http://web2py.com/demo_admin'
tp4268
a(g3348
(S's\x08\x00\x00\x00Semantic'
tRp4269
I00
S'http://web2py.com/semantic'
tp4270
a(g3348
(S's\x07\x00\x00\x00Layouts'
tRp4271
I00
S'http://web2py.com/layouts'
tp4272
a(g3348
(S's\x06\x00\x00\x00Videos'
tRp4273
I00
S'http://www.web2py.com/examples/default/videos/'
tp4274
aasbasbasbasbasbasbasbasbasbasbasbasbasbasbasbasbasbasbasbag68
(g84
g70
NtRp4275
(dp4276
g73
(dp4277
sg82
g2880
sg75
(lp4278
g68
(g89
g70
NtRp4279
(dp4280
g73
(dp4281
g93
g94
ssg82
g4275
sg75
(lp4282
S'meta'
p4283
asbag68
(g89
g70
NtRp4284
(dp4285
g73
(dp4286
g100
g101
ssg82
g4275
sg75
(lp4287
S':'
asbag68
(g89
g70
NtRp4288
(dp4289
g73
(dp4290
sg82
g4275
sg75
(lp4291
g68
(g69
g70
NtRp4292
(dp4293
g73
(dp4294
g81
I5
ssg82
g4288
sg75
(lp4295
g68
(g77
g70
NtRp4296
(dp4297
g73
(dp4298
g81
I4
ssg82
Nsg75
(lp4299
g68
(g84
g70
NtRp4300
(dp4301
g73
(dp4302
sg82
g4296
sg75
(lp4303
g68
(g89
g70
NtRp4304
(dp4305
g73
(dp4306
g93
g94
ssg82
g4300
sg75
(lp4307
S'author'
p4308
asbag68
(g89
g70
NtRp4309
(dp4310
g73
(dp4311
g100
g101
ssg82
g4300
sg75
(lp4312
S':'
asbag68
(g89
g70
NtRp4313
(dp4314
g73
(dp4315
sg82
g4300
sg75
(lp4316
g68
(g69
g70
NtRp4317
(dp4318
g73
(dp4319
g81
I4
ssg82
g4313
sg75
(lp4320
S'you'
p4321
asbasbasbag68
(g84
g70
NtRp4322
(dp4323
g73
(dp4324
sg82
g4296
sg75
(lp4325
g68
(g89
g70
NtRp4326
(dp4327
g73
(dp4328
g93
g94
ssg82
g4322
sg75
(lp4329
S'copyright'
p4330
asbag68
(g89
g70
NtRp4331
(dp4332
g73
(dp4333
g100
g101
ssg82
g4322
sg75
(lp4334
S':'
asbag68
(g89
g70
NtRp4335
(dp4336
g73
(dp4337
sg82
g4322
sg75
(lp4338
g68
(g69
g70
NtRp4339
(dp4340
g73
(dp4341
g81
I4
ssg82
g4335
sg75
(lp4342
S'Copyright 2007-2010'
p4343
asbasbasbag68
(g84
g70
NtRp4344
(dp4345
g73
(dp4346
sg82
g4296
sg75
(lp4347
g68
(g89
g70
NtRp4348
(dp4349
g73
(dp4350
g93
g94
ssg82
g4344
sg75
(lp4351
S'description'
p4352
asbag68
(g89
g70
NtRp4353
(dp4354
g73
(dp4355
g100
g101
ssg82
g4344
sg75
(lp4356
S':'
asbag68
(g89
g70
NtRp4357
(dp4358
g73
(dp4359
sg82
g4344
sg75
(lp4360
g68
(g69
g70
NtRp4361
(dp4362
g73
(dp4363
g81
I4
ssg82
g4357
sg75
(lp4364
S'Free and open source full-stack enterprise framework for agile development of fast, scalable, secure and portable database-driven web-based applications. Written and programmable in Python'
p4365
asbasbasbag68
(g84
g70
NtRp4366
(dp4367
g73
(dp4368
sg82
g4296
sg75
(lp4369
g68
(g89
g70
NtRp4370
(dp4371
g73
(dp4372
g93
g94
ssg82
g4366
sg75
(lp4373
S'generator'
p4374
asbag68
(g89
g70
NtRp4375
(dp4376
g73
(dp4377
g100
g101
ssg82
g4366
sg75
(lp4378
S':'
asbag68
(g89
g70
NtRp4379
(dp4380
g73
(dp4381
sg82
g4366
sg75
(lp4382
g68
(g69
g70
NtRp4383
(dp4384
g73
(dp4385
g81
I4
ssg82
g4379
sg75
(lp4386
S'Web2py Enterprise Framework'
p4387
asbasbasbag68
(g84
g70
NtRp4388
(dp4389
g73
(dp4390
sg82
g4296
sg75
(lp4391
g68
(g89
g70
NtRp4392
(dp4393
g73
(dp4394
g93
g94
ssg82
g4388
sg75
(lp4395
S'keywords'
p4396
asbag68
(g89
g70
NtRp4397
(dp4398
g73
(dp4399
g100
g101
ssg82
g4388
sg75
(lp4400
S':'
asbag68
(g89
g70
NtRp4401
(dp4402
g73
(dp4403
sg82
g4388
sg75
(lp4404
g68
(g69
g70
NtRp4405
(dp4406
g73
(dp4407
g81
I4
ssg82
g4401
sg75
(lp4408
S'web2py, python, framework'
p4409
asbasbasbasbasbasbasbag68
(g84
g70
NtRp4410
(dp4411
g73
(dp4412
sg82
g2880
sg75
(lp4413
g68
(g89
g70
NtRp4414
(dp4415
g73
(dp4416
g93
g94
ssg82
g4410
sg75
(lp4417
S'postprocessing'
p4418
asbag68
(g89
g70
NtRp4419
(dp4420
g73
(dp4421
g100
g101
ssg82
g4410
sg75
(lp4422
S':'
asbag68
(g89
g70
NtRp4423
(dp4424
g73
(dp4425
sg82
g4410
sg75
(lp4426
g68
(g69
g70
NtRp4427
(dp4428
g73
(dp4429
g81
I5
ssg82
g4423
sg75
(lp4430
g68
(g77
g70
NtRp4431
(dp4432
g73
(dp4433
g81
I4
ssg82
Nsg75
(lp4434
sbasbasbasbag68
(g84
g70
NtRp4435
(dp4436
g73
(dp4437
sg82
g2880
sg75
(lp4438
g68
(g89
g70
NtRp4439
(dp4440
g73
(dp4441
g93
g94
ssg82
g4435
sg75
(lp4442
S'session_file'
p4443
asbag68
(g89
g70
NtRp4444
(dp4445
g73
(dp4446
g100
g101
ssg82
g4435
sg75
(lp4447
S':'
asbag68
(g89
g70
NtRp4448
(dp4449
g73
(dp4450
sg82
g4435
sg75
(lp4451
g68
(g69
g70
NtRp4452
(dp4453
g73
(dp4454
g81
I5
ssg82
g4448
sg75
(lp4455
S"<open file '/home/alumno/web2py/applications/datos/sessions/127.0.0.1-cd811d2b-4b1e-4778-9b0e-2b7f0d822087', mode 'rb+' at 0x9c97f40>"
p4456
asbasbasbag68
(g84
g70
NtRp4457
(dp4458
g73
(dp4459
sg82
g2880
sg75
(lp4460
g68
(g89
g70
NtRp4461
(dp4462
g73
(dp4463
g93
g94
ssg82
g4457
sg75
(lp4464
S'session_filename'
p4465
asbag68
(g89
g70
NtRp4466
(dp4467
g73
(dp4468
g100
g101
ssg82
g4457
sg75
(lp4469
S':'
asbag68
(g89
g70
NtRp4470
(dp4471
g73
(dp4472
sg82
g4457
sg75
(lp4473
g68
(g69
g70
NtRp4474
(dp4475
g73
(dp4476
g81
I5
ssg82
g4470
sg75
(lp4477
S'/home/alumno/web2py/applications/datos/sessions/127.0.0.1-cd811d2b-4b1e-4778-9b0e-2b7f0d822087'
p4478
asbasbasbag68
(g84
g70
NtRp4479
(dp4480
g73
(dp4481
sg82
g2880
sg75
(lp4482
g68
(g89
g70
NtRp4483
(dp4484
g73
(dp4485
g93
g94
ssg82
g4479
sg75
(lp4486
S'session_id'
p4487
asbag68
(g89
g70
NtRp4488
(dp4489
g73
(dp4490
g100
g101
ssg82
g4479
sg75
(lp4491
S':'
asbag68
(g89
g70
NtRp4492
(dp4493
g73
(dp4494
sg82
g4479
sg75
(lp4495
g68
(g69
g70
NtRp4496
(dp4497
g73
(dp4498
g81
I5
ssg82
g4492
sg75
(lp4499
S'127.0.0.1-cd811d2b-4b1e-4778-9b0e-2b7f0d822087'
p4500
asbasbasbag68
(g84
g70
NtRp4501
(dp4502
g73
(dp4503
sg82
g2880
sg75
(lp4504
g68
(g89
g70
NtRp4505
(dp4506
g73
(dp4507
g93
g94
ssg82
g4501
sg75
(lp4508
S'session_id_name'
p4509
asbag68
(g89
g70
NtRp4510
(dp4511
g73
(dp4512
g100
g101
ssg82
g4501
sg75
(lp4513
S':'
asbag68
(g89
g70
NtRp4514
(dp4515
g73
(dp4516
sg82
g4501
sg75
(lp4517
g68
(g69
g70
NtRp4518
(dp4519
g73
(dp4520
g81
I5
ssg82
g4514
sg75
(lp4521
g2937
asbasbasbag68
(g84
g70
NtRp4522
(dp4523
g73
(dp4524
sg82
g2880
sg75
(lp4525
g68
(g89
g70
NtRp4526
(dp4527
g73
(dp4528
g93
g94
ssg82
g4522
sg75
(lp4529
S'session_locked'
p4530
asbag68
(g89
g70
NtRp4531
(dp4532
g73
(dp4533
g100
g101
ssg82
g4522
sg75
(lp4534
S':'
asbag68
(g89
g70
NtRp4535
(dp4536
g73
(dp4537
sg82
g4522
sg75
(lp4538
g68
(g69
g70
NtRp4539
(dp4540
g73
(dp4541
g81
I5
ssg82
g4535
sg75
(lp4542
g1779
asbasbasbag68
(g84
g70
NtRp4543
(dp4544
g73
(dp4545
sg82
g2880
sg75
(lp4546
g68
(g89
g70
NtRp4547
(dp4548
g73
(dp4549
g93
g94
ssg82
g4543
sg75
(lp4550
S'session_new'
p4551
asbag68
(g89
g70
NtRp4552
(dp4553
g73
(dp4554
g100
g101
ssg82
g4543
sg75
(lp4555
S':'
asbag68
(g89
g70
NtRp4556
(dp4557
g73
(dp4558
sg82
g4543
sg75
(lp4559
g68
(g69
g70
NtRp4560
(dp4561
g73
(dp4562
g81
I5
ssg82
g4556
sg75
(lp4563
g111
asbasbasbag68
(g84
g70
NtRp4564
(dp4565
g73
(dp4566
sg82
g2880
sg75
(lp4567
g68
(g89
g70
NtRp4568
(dp4569
g73
(dp4570
g93
g94
ssg82
g4564
sg75
(lp4571
S'status'
p4572
asbag68
(g89
g70
NtRp4573
(dp4574
g73
(dp4575
g100
g101
ssg82
g4564
sg75
(lp4576
S':'
asbag68
(g89
g70
NtRp4577
(dp4578
g73
(dp4579
sg82
g4564
sg75
(lp4580
g68
(g69
g70
NtRp4581
(dp4582
g73
(dp4583
g81
I5
ssg82
g4577
sg75
(lp4584
S'200'
p4585
asbasbasbag68
(g84
g70
NtRp4586
(dp4587
g73
(dp4588
sg82
g2880
sg75
(lp4589
g68
(g89
g70
NtRp4590
(dp4591
g73
(dp4592
g93
g94
ssg82
g4586
sg75
(lp4593
S'subtitle'
p4594
asbag68
(g89
g70
NtRp4595
(dp4596
g73
(dp4597
g100
g101
ssg82
g4586
sg75
(lp4598
S':'
asbag68
(g89
g70
NtRp4599
(dp4600
g73
(dp4601
sg82
g4586
sg75
(lp4602
g68
(g69
g70
NtRp4603
(dp4604
g73
(dp4605
g81
I5
ssg82
g4599
sg75
(lp4606
g3348
(S's\r\x00\x00\x00customize me!'
tRp4607
asbasbasbag68
(g84
g70
NtRp4608
(dp4609
g73
(dp4610
sg82
g2880
sg75
(lp4611
g68
(g89
g70
NtRp4612
(dp4613
g73
(dp4614
g93
g94
ssg82
g4608
sg75
(lp4615
S'title'
p4616
asbag68
(g89
g70
NtRp4617
(dp4618
g73
(dp4619
g100
g101
ssg82
g4608
sg75
(lp4620
S':'
asbag68
(g89
g70
NtRp4621
(dp4622
g73
(dp4623
sg82
g4608
sg75
(lp4624
g68
(g69
g70
NtRp4625
(dp4626
g73
(dp4627
g81
I5
ssg82
g4621
sg75
(lp4628
g133
asbasbasbag68
(g84
g70
NtRp4629
(dp4630
g73
(dp4631
sg82
g2880
sg75
(lp4632
g68
(g89
g70
NtRp4633
(dp4634
g73
(dp4635
g93
g94
ssg82
g4629
sg75
(lp4636
g2124
asbag68
(g89
g70
NtRp4637
(dp4638
g73
(dp4639
g100
g101
ssg82
g4629
sg75
(lp4640
S':'
asbag68
(g89
g70
NtRp4641
(dp4642
g73
(dp4643
sg82
g4629
sg75
(lp4644
g68
(g69
g70
NtRp4645
(dp4646
g73
(dp4647
g81
I5
ssg82
g4641
sg75
(lp4648
g2137
asbasbasbag68
(g84
g70
NtRp4649
(dp4650
g73
(dp4651
sg82
g2880
sg75
(lp4652
g68
(g89
g70
NtRp4653
(dp4654
g73
(dp4655
g93
g94
ssg82
g4649
sg75
(lp4656
S'view'
p4657
asbag68
(g89
g70
NtRp4658
(dp4659
g73
(dp4660
g100
g101
ssg82
g4649
sg75
(lp4661
S':'
asbag68
(g89
g70
NtRp4662
(dp4663
g73
(dp4664
sg82
g4649
sg75
(lp4665
g68
(g69
g70
NtRp4666
(dp4667
g73
(dp4668
g81
I5
ssg82
g4662
sg75
(lp4669
S'default/detalle.html'
p4670
asbasbasbasbasbsS'locals'
p4671
(dp4672
g3
S"'/home/alumno/web2py/applications/datos/views/default/detalle.html'"
p4673
sg5
S'\'response.write(\\\'<!DOCTYPE html>\\\\n<html lang="\\\', ...t   -->    \\\\n  </body>\\\\n</html>\\\\n\\\', escape=False)\''
p4674
sssS'traceback'
p4675
S'Traceback (most recent call last):\n  File "/home/alumno/web2py/gluon/restricted.py", line 191, in restricted\n    ccode = compile2(code,layer)\n  File "/home/alumno/web2py/gluon/restricted.py", line 178, in compile2\n    return compile(code.rstrip().replace(\'\\r\\n\',\'\\n\')+\'\\n\', layer, \'exec\')\n  File "/home/alumno/web2py/applications/datos/views/default/detalle.html", line 107\n    codigo estudiante: {{data.codigo\n                    ^\nSyntaxError: invalid syntax\n'
p4676
s.