(dp1
S'output'
p2
S''
sS'layer'
p3
S'/home/alumno/web2py/applications/datos/models/db.py'
p4
sS'code'
p5
S"# -*- coding: utf-8 -*-\n\ndb=DAL('sqlite://datos.db');\ndb.define_table('alumno',Field('codigo'),\n                        Field('nombre'),\n                        Field('apellidos'),\n                        Field('fnacimiento'),\n                        Field('email'),\n                        Field('hobby'))\n                        \ndb.alumno.codigo.requires=IS_NOT_EMPTY()\ndb.alumno.nombre.requires=IS_LENGHT(100)\ndb.alumno.apellidos.requires=IS_ALPHANUMERIC()\ndb.alumno.fnacimiento.requires=IS_DATE('%Y-%m-%d')\ndb.alumno.email.requires=IS_EMAIL()\ndb.alumno.hobby.default='estudiar :P'\n"
p6
sS'snapshot'
p7
(dp8
S'exception'
p9
(dp10
S'__hash__'
p11
S"<method-wrapper '__hash__' of exceptions.NameError object>"
p12
sS'__setattr__'
p13
S"<method-wrapper '__setattr__' of exceptions.NameError object>"
p14
sS'__reduce_ex__'
p15
S'<built-in method __reduce_ex__ of exceptions.NameError object>'
p16
sS'__getslice__'
p17
S"<method-wrapper '__getslice__' of exceptions.NameError object>"
p18
sS'__getitem__'
p19
S"<method-wrapper '__getitem__' of exceptions.NameError object>"
p20
sS'__setstate__'
p21
S'<built-in method __setstate__ of exceptions.NameError object>'
p22
sS'__reduce__'
p23
S'<built-in method __reduce__ of exceptions.NameError object>'
p24
sS'__str__'
p25
S"<method-wrapper '__str__' of exceptions.NameError object>"
p26
sS'__format__'
p27
S'<built-in method __format__ of exceptions.NameError object>'
p28
sS'__getattribute__'
p29
S"<method-wrapper '__getattribute__' of exceptions.NameError object>"
p30
sS'__class__'
p31
S"<type 'exceptions.NameError'>"
p32
sS'__unicode__'
p33
S'<built-in method __unicode__ of exceptions.NameError object>'
p34
sS'__delattr__'
p35
S"<method-wrapper '__delattr__' of exceptions.NameError object>"
p36
sS'__subclasshook__'
p37
S'<built-in method __subclasshook__ of type object>'
p38
sS'__repr__'
p39
S"<method-wrapper '__repr__' of exceptions.NameError object>"
p40
sS'args'
p41
S'("name \'IS_LENGHT\' is not defined",)'
p42
sS'__dict__'
p43
S'{}'
p44
sS'__sizeof__'
p45
S'<built-in method __sizeof__ of exceptions.NameError object>'
p46
sS'__doc__'
p47
S"'Name not found globally.'"
p48
sS'__init__'
p49
S"<method-wrapper '__init__' of exceptions.NameError object>"
p50
sS'__new__'
p51
S'<built-in method __new__ of type object>'
p52
ssS'evalue'
p53
S"name 'IS_LENGHT' is not defined"
p54
sS'request'
p55
ccopy_reg
_reconstructor
p56
(cgluon.html
BEAUTIFY
p57
c__builtin__
object
p58
NtRp59
(dp60
S'attributes'
p61
(dp62
sS'components'
p63
(lp64
g56
(cgluon.html
TABLE
p65
g58
NtRp66
(dp67
g61
(dp68
S'level'
p69
I5
ssS'parent'
p70
Nsg63
(lp71
g56
(cgluon.html
TR
p72
g58
NtRp73
(dp74
g61
(dp75
sg70
g66
sg63
(lp76
g56
(cgluon.html
TD
p77
g58
NtRp78
(dp79
g61
(dp80
S'_style'
p81
S'font-weight:bold;'
p82
ssg70
g73
sg63
(lp83
S'ajax'
p84
asbag56
(g77
g58
NtRp85
(dp86
g61
(dp87
S'_valign'
p88
S'top'
p89
ssg70
g73
sg63
(lp90
S':'
asbag56
(g77
g58
NtRp91
(dp92
g61
(dp93
sg70
g73
sg63
(lp94
g56
(g57
g58
NtRp95
(dp96
g61
(dp97
g69
I5
ssg70
g91
sg63
(lp98
S'False'
p99
asbasbasbag56
(g72
g58
NtRp100
(dp101
g61
(dp102
sg70
g66
sg63
(lp103
g56
(g77
g58
NtRp104
(dp105
g61
(dp106
g81
g82
ssg70
g100
sg63
(lp107
S'application'
p108
asbag56
(g77
g58
NtRp109
(dp110
g61
(dp111
g88
g89
ssg70
g100
sg63
(lp112
S':'
asbag56
(g77
g58
NtRp113
(dp114
g61
(dp115
sg70
g100
sg63
(lp116
g56
(g57
g58
NtRp117
(dp118
g61
(dp119
g69
I5
ssg70
g113
sg63
(lp120
S'datos'
p121
asbasbasbag56
(g72
g58
NtRp122
(dp123
g61
(dp124
sg70
g66
sg63
(lp125
g56
(g77
g58
NtRp126
(dp127
g61
(dp128
g81
g82
ssg70
g122
sg63
(lp129
g41
asbag56
(g77
g58
NtRp130
(dp131
g61
(dp132
g88
g89
ssg70
g122
sg63
(lp133
S':'
asbag56
(g77
g58
NtRp134
(dp135
g61
(dp136
sg70
g122
sg63
(lp137
g56
(g57
g58
NtRp138
(dp139
g61
(dp140
g69
I5
ssg70
g134
sg63
(lp141
g56
(g65
g58
NtRp142
(dp143
g61
(dp144
g69
I4
ssg70
Nsg63
(lp145
sbasbasbasbag56
(g72
g58
NtRp146
(dp147
g61
(dp148
sg70
g66
sg63
(lp149
g56
(g77
g58
NtRp150
(dp151
g61
(dp152
g81
g82
ssg70
g146
sg63
(lp153
S'body'
p154
asbag56
(g77
g58
NtRp155
(dp156
g61
(dp157
g88
g89
ssg70
g146
sg63
(lp158
S':'
asbag56
(g77
g58
NtRp159
(dp160
g61
(dp161
sg70
g146
sg63
(lp162
g56
(g57
g58
NtRp163
(dp164
g61
(dp165
g69
I5
ssg70
g159
sg63
(lp166
S'<cStringIO.StringO object at 0x9cdea00>'
p167
asbasbasbag56
(g72
g58
NtRp168
(dp169
g61
(dp170
sg70
g66
sg63
(lp171
g56
(g77
g58
NtRp172
(dp173
g61
(dp174
g81
g82
ssg70
g168
sg63
(lp175
S'client'
p176
asbag56
(g77
g58
NtRp177
(dp178
g61
(dp179
g88
g89
ssg70
g168
sg63
(lp180
S':'
asbag56
(g77
g58
NtRp181
(dp182
g61
(dp183
sg70
g168
sg63
(lp184
g56
(g57
g58
NtRp185
(dp186
g61
(dp187
g69
I5
ssg70
g181
sg63
(lp188
S'127.0.0.1'
p189
asbasbasbag56
(g72
g58
NtRp190
(dp191
g61
(dp192
sg70
g66
sg63
(lp193
g56
(g77
g58
NtRp194
(dp195
g61
(dp196
g81
g82
ssg70
g190
sg63
(lp197
S'controller'
p198
asbag56
(g77
g58
NtRp199
(dp200
g61
(dp201
g88
g89
ssg70
g190
sg63
(lp202
S':'
asbag56
(g77
g58
NtRp203
(dp204
g61
(dp205
sg70
g190
sg63
(lp206
g56
(g57
g58
NtRp207
(dp208
g61
(dp209
g69
I5
ssg70
g203
sg63
(lp210
S'appadmin'
p211
asbasbasbag56
(g72
g58
NtRp212
(dp213
g61
(dp214
sg70
g66
sg63
(lp215
g56
(g77
g58
NtRp216
(dp217
g61
(dp218
g81
g82
ssg70
g212
sg63
(lp219
S'cookies'
p220
asbag56
(g77
g58
NtRp221
(dp222
g61
(dp223
g88
g89
ssg70
g212
sg63
(lp224
S':'
asbag56
(g77
g58
NtRp225
(dp226
g61
(dp227
sg70
g212
sg63
(lp228
g56
(g57
g58
NtRp229
(dp230
g61
(dp231
g69
I5
ssg70
g225
sg63
(lp232
g56
(g65
g58
NtRp233
(dp234
g61
(dp235
g69
I4
ssg70
Nsg63
(lp236
g56
(g72
g58
NtRp237
(dp238
g61
(dp239
sg70
g233
sg63
(lp240
g56
(g77
g58
NtRp241
(dp242
g61
(dp243
g81
g82
ssg70
g237
sg63
(lp244
S'session_id_about_me'
p245
asbag56
(g77
g58
NtRp246
(dp247
g61
(dp248
g88
g89
ssg70
g237
sg63
(lp249
S':'
asbag56
(g77
g58
NtRp250
(dp251
g61
(dp252
sg70
g237
sg63
(lp253
g56
(g57
g58
NtRp254
(dp255
g61
(dp256
g69
I4
ssg70
g250
sg63
(lp257
g56
(g65
g58
NtRp258
(dp259
g61
(dp260
g69
I3
ssg70
Nsg63
(lp261
g56
(g72
g58
NtRp262
(dp263
g61
(dp264
sg70
g258
sg63
(lp265
g56
(g77
g58
NtRp266
(dp267
g61
(dp268
g81
g82
ssg70
g262
sg63
(lp269
S'comment'
p270
asbag56
(g77
g58
NtRp271
(dp272
g61
(dp273
g88
g89
ssg70
g262
sg63
(lp274
S':'
asbag56
(g77
g58
NtRp275
(dp276
g61
(dp277
sg70
g262
sg63
(lp278
g56
(g57
g58
NtRp279
(dp280
g61
(dp281
g69
I3
ssg70
g275
sg63
(lp282
S''
asbasbasbag56
(g72
g58
NtRp283
(dp284
g61
(dp285
sg70
g258
sg63
(lp286
g56
(g77
g58
NtRp287
(dp288
g61
(dp289
g81
g82
ssg70
g283
sg63
(lp290
S'domain'
p291
asbag56
(g77
g58
NtRp292
(dp293
g61
(dp294
g88
g89
ssg70
g283
sg63
(lp295
S':'
asbag56
(g77
g58
NtRp296
(dp297
g61
(dp298
sg70
g283
sg63
(lp299
g56
(g57
g58
NtRp300
(dp301
g61
(dp302
g69
I3
ssg70
g296
sg63
(lp303
S''
asbasbasbag56
(g72
g58
NtRp304
(dp305
g61
(dp306
sg70
g258
sg63
(lp307
g56
(g77
g58
NtRp308
(dp309
g61
(dp310
g81
g82
ssg70
g304
sg63
(lp311
S'expires'
p312
asbag56
(g77
g58
NtRp313
(dp314
g61
(dp315
g88
g89
ssg70
g304
sg63
(lp316
S':'
asbag56
(g77
g58
NtRp317
(dp318
g61
(dp319
sg70
g304
sg63
(lp320
g56
(g57
g58
NtRp321
(dp322
g61
(dp323
g69
I3
ssg70
g317
sg63
(lp324
S''
asbasbasbag56
(g72
g58
NtRp325
(dp326
g61
(dp327
sg70
g258
sg63
(lp328
g56
(g77
g58
NtRp329
(dp330
g61
(dp331
g81
g82
ssg70
g325
sg63
(lp332
S'httponly'
p333
asbag56
(g77
g58
NtRp334
(dp335
g61
(dp336
g88
g89
ssg70
g325
sg63
(lp337
S':'
asbag56
(g77
g58
NtRp338
(dp339
g61
(dp340
sg70
g325
sg63
(lp341
g56
(g57
g58
NtRp342
(dp343
g61
(dp344
g69
I3
ssg70
g338
sg63
(lp345
S''
asbasbasbag56
(g72
g58
NtRp346
(dp347
g61
(dp348
sg70
g258
sg63
(lp349
g56
(g77
g58
NtRp350
(dp351
g61
(dp352
g81
g82
ssg70
g346
sg63
(lp353
S'max-age'
p354
asbag56
(g77
g58
NtRp355
(dp356
g61
(dp357
g88
g89
ssg70
g346
sg63
(lp358
S':'
asbag56
(g77
g58
NtRp359
(dp360
g61
(dp361
sg70
g346
sg63
(lp362
g56
(g57
g58
NtRp363
(dp364
g61
(dp365
g69
I3
ssg70
g359
sg63
(lp366
S''
asbasbasbag56
(g72
g58
NtRp367
(dp368
g61
(dp369
sg70
g258
sg63
(lp370
g56
(g77
g58
NtRp371
(dp372
g61
(dp373
g81
g82
ssg70
g367
sg63
(lp374
S'path'
p375
asbag56
(g77
g58
NtRp376
(dp377
g61
(dp378
g88
g89
ssg70
g367
sg63
(lp379
S':'
asbag56
(g77
g58
NtRp380
(dp381
g61
(dp382
sg70
g367
sg63
(lp383
g56
(g57
g58
NtRp384
(dp385
g61
(dp386
g69
I3
ssg70
g380
sg63
(lp387
S''
asbasbasbag56
(g72
g58
NtRp388
(dp389
g61
(dp390
sg70
g258
sg63
(lp391
g56
(g77
g58
NtRp392
(dp393
g61
(dp394
g81
g82
ssg70
g388
sg63
(lp395
S'secure'
p396
asbag56
(g77
g58
NtRp397
(dp398
g61
(dp399
g88
g89
ssg70
g388
sg63
(lp400
S':'
asbag56
(g77
g58
NtRp401
(dp402
g61
(dp403
sg70
g388
sg63
(lp404
g56
(g57
g58
NtRp405
(dp406
g61
(dp407
g69
I3
ssg70
g401
sg63
(lp408
S''
asbasbasbag56
(g72
g58
NtRp409
(dp410
g61
(dp411
sg70
g258
sg63
(lp412
g56
(g77
g58
NtRp413
(dp414
g61
(dp415
g81
g82
ssg70
g409
sg63
(lp416
S'version'
p417
asbag56
(g77
g58
NtRp418
(dp419
g61
(dp420
g88
g89
ssg70
g409
sg63
(lp421
S':'
asbag56
(g77
g58
NtRp422
(dp423
g61
(dp424
sg70
g409
sg63
(lp425
g56
(g57
g58
NtRp426
(dp427
g61
(dp428
g69
I3
ssg70
g422
sg63
(lp429
S''
asbasbasbasbasbasbasbag56
(g72
g58
NtRp430
(dp431
g61
(dp432
sg70
g233
sg63
(lp433
g56
(g77
g58
NtRp434
(dp435
g61
(dp436
g81
g82
ssg70
g430
sg63
(lp437
S'session_id_admin'
p438
asbag56
(g77
g58
NtRp439
(dp440
g61
(dp441
g88
g89
ssg70
g430
sg63
(lp442
S':'
asbag56
(g77
g58
NtRp443
(dp444
g61
(dp445
sg70
g430
sg63
(lp446
g56
(g57
g58
NtRp447
(dp448
g61
(dp449
g69
I4
ssg70
g443
sg63
(lp450
g56
(g65
g58
NtRp451
(dp452
g61
(dp453
g69
I3
ssg70
Nsg63
(lp454
g56
(g72
g58
NtRp455
(dp456
g61
(dp457
sg70
g451
sg63
(lp458
g56
(g77
g58
NtRp459
(dp460
g61
(dp461
g81
g82
ssg70
g455
sg63
(lp462
g270
asbag56
(g77
g58
NtRp463
(dp464
g61
(dp465
g88
g89
ssg70
g455
sg63
(lp466
S':'
asbag56
(g77
g58
NtRp467
(dp468
g61
(dp469
sg70
g455
sg63
(lp470
g56
(g57
g58
NtRp471
(dp472
g61
(dp473
g69
I3
ssg70
g467
sg63
(lp474
S''
asbasbasbag56
(g72
g58
NtRp475
(dp476
g61
(dp477
sg70
g451
sg63
(lp478
g56
(g77
g58
NtRp479
(dp480
g61
(dp481
g81
g82
ssg70
g475
sg63
(lp482
g291
asbag56
(g77
g58
NtRp483
(dp484
g61
(dp485
g88
g89
ssg70
g475
sg63
(lp486
S':'
asbag56
(g77
g58
NtRp487
(dp488
g61
(dp489
sg70
g475
sg63
(lp490
g56
(g57
g58
NtRp491
(dp492
g61
(dp493
g69
I3
ssg70
g487
sg63
(lp494
S''
asbasbasbag56
(g72
g58
NtRp495
(dp496
g61
(dp497
sg70
g451
sg63
(lp498
g56
(g77
g58
NtRp499
(dp500
g61
(dp501
g81
g82
ssg70
g495
sg63
(lp502
g312
asbag56
(g77
g58
NtRp503
(dp504
g61
(dp505
g88
g89
ssg70
g495
sg63
(lp506
S':'
asbag56
(g77
g58
NtRp507
(dp508
g61
(dp509
sg70
g495
sg63
(lp510
g56
(g57
g58
NtRp511
(dp512
g61
(dp513
g69
I3
ssg70
g507
sg63
(lp514
S''
asbasbasbag56
(g72
g58
NtRp515
(dp516
g61
(dp517
sg70
g451
sg63
(lp518
g56
(g77
g58
NtRp519
(dp520
g61
(dp521
g81
g82
ssg70
g515
sg63
(lp522
g333
asbag56
(g77
g58
NtRp523
(dp524
g61
(dp525
g88
g89
ssg70
g515
sg63
(lp526
S':'
asbag56
(g77
g58
NtRp527
(dp528
g61
(dp529
sg70
g515
sg63
(lp530
g56
(g57
g58
NtRp531
(dp532
g61
(dp533
g69
I3
ssg70
g527
sg63
(lp534
S''
asbasbasbag56
(g72
g58
NtRp535
(dp536
g61
(dp537
sg70
g451
sg63
(lp538
g56
(g77
g58
NtRp539
(dp540
g61
(dp541
g81
g82
ssg70
g535
sg63
(lp542
g354
asbag56
(g77
g58
NtRp543
(dp544
g61
(dp545
g88
g89
ssg70
g535
sg63
(lp546
S':'
asbag56
(g77
g58
NtRp547
(dp548
g61
(dp549
sg70
g535
sg63
(lp550
g56
(g57
g58
NtRp551
(dp552
g61
(dp553
g69
I3
ssg70
g547
sg63
(lp554
S''
asbasbasbag56
(g72
g58
NtRp555
(dp556
g61
(dp557
sg70
g451
sg63
(lp558
g56
(g77
g58
NtRp559
(dp560
g61
(dp561
g81
g82
ssg70
g555
sg63
(lp562
g375
asbag56
(g77
g58
NtRp563
(dp564
g61
(dp565
g88
g89
ssg70
g555
sg63
(lp566
S':'
asbag56
(g77
g58
NtRp567
(dp568
g61
(dp569
sg70
g555
sg63
(lp570
g56
(g57
g58
NtRp571
(dp572
g61
(dp573
g69
I3
ssg70
g567
sg63
(lp574
S''
asbasbasbag56
(g72
g58
NtRp575
(dp576
g61
(dp577
sg70
g451
sg63
(lp578
g56
(g77
g58
NtRp579
(dp580
g61
(dp581
g81
g82
ssg70
g575
sg63
(lp582
g396
asbag56
(g77
g58
NtRp583
(dp584
g61
(dp585
g88
g89
ssg70
g575
sg63
(lp586
S':'
asbag56
(g77
g58
NtRp587
(dp588
g61
(dp589
sg70
g575
sg63
(lp590
g56
(g57
g58
NtRp591
(dp592
g61
(dp593
g69
I3
ssg70
g587
sg63
(lp594
S''
asbasbasbag56
(g72
g58
NtRp595
(dp596
g61
(dp597
sg70
g451
sg63
(lp598
g56
(g77
g58
NtRp599
(dp600
g61
(dp601
g81
g82
ssg70
g595
sg63
(lp602
g417
asbag56
(g77
g58
NtRp603
(dp604
g61
(dp605
g88
g89
ssg70
g595
sg63
(lp606
S':'
asbag56
(g77
g58
NtRp607
(dp608
g61
(dp609
sg70
g595
sg63
(lp610
g56
(g57
g58
NtRp611
(dp612
g61
(dp613
g69
I3
ssg70
g607
sg63
(lp614
S''
asbasbasbasbasbasbasbag56
(g72
g58
NtRp615
(dp616
g61
(dp617
sg70
g233
sg63
(lp618
g56
(g77
g58
NtRp619
(dp620
g61
(dp621
g81
g82
ssg70
g615
sg63
(lp622
S'session_id_welcome'
p623
asbag56
(g77
g58
NtRp624
(dp625
g61
(dp626
g88
g89
ssg70
g615
sg63
(lp627
S':'
asbag56
(g77
g58
NtRp628
(dp629
g61
(dp630
sg70
g615
sg63
(lp631
g56
(g57
g58
NtRp632
(dp633
g61
(dp634
g69
I4
ssg70
g628
sg63
(lp635
g56
(g65
g58
NtRp636
(dp637
g61
(dp638
g69
I3
ssg70
Nsg63
(lp639
g56
(g72
g58
NtRp640
(dp641
g61
(dp642
sg70
g636
sg63
(lp643
g56
(g77
g58
NtRp644
(dp645
g61
(dp646
g81
g82
ssg70
g640
sg63
(lp647
g270
asbag56
(g77
g58
NtRp648
(dp649
g61
(dp650
g88
g89
ssg70
g640
sg63
(lp651
S':'
asbag56
(g77
g58
NtRp652
(dp653
g61
(dp654
sg70
g640
sg63
(lp655
g56
(g57
g58
NtRp656
(dp657
g61
(dp658
g69
I3
ssg70
g652
sg63
(lp659
S''
asbasbasbag56
(g72
g58
NtRp660
(dp661
g61
(dp662
sg70
g636
sg63
(lp663
g56
(g77
g58
NtRp664
(dp665
g61
(dp666
g81
g82
ssg70
g660
sg63
(lp667
g291
asbag56
(g77
g58
NtRp668
(dp669
g61
(dp670
g88
g89
ssg70
g660
sg63
(lp671
S':'
asbag56
(g77
g58
NtRp672
(dp673
g61
(dp674
sg70
g660
sg63
(lp675
g56
(g57
g58
NtRp676
(dp677
g61
(dp678
g69
I3
ssg70
g672
sg63
(lp679
S''
asbasbasbag56
(g72
g58
NtRp680
(dp681
g61
(dp682
sg70
g636
sg63
(lp683
g56
(g77
g58
NtRp684
(dp685
g61
(dp686
g81
g82
ssg70
g680
sg63
(lp687
g312
asbag56
(g77
g58
NtRp688
(dp689
g61
(dp690
g88
g89
ssg70
g680
sg63
(lp691
S':'
asbag56
(g77
g58
NtRp692
(dp693
g61
(dp694
sg70
g680
sg63
(lp695
g56
(g57
g58
NtRp696
(dp697
g61
(dp698
g69
I3
ssg70
g692
sg63
(lp699
S''
asbasbasbag56
(g72
g58
NtRp700
(dp701
g61
(dp702
sg70
g636
sg63
(lp703
g56
(g77
g58
NtRp704
(dp705
g61
(dp706
g81
g82
ssg70
g700
sg63
(lp707
g333
asbag56
(g77
g58
NtRp708
(dp709
g61
(dp710
g88
g89
ssg70
g700
sg63
(lp711
S':'
asbag56
(g77
g58
NtRp712
(dp713
g61
(dp714
sg70
g700
sg63
(lp715
g56
(g57
g58
NtRp716
(dp717
g61
(dp718
g69
I3
ssg70
g712
sg63
(lp719
S''
asbasbasbag56
(g72
g58
NtRp720
(dp721
g61
(dp722
sg70
g636
sg63
(lp723
g56
(g77
g58
NtRp724
(dp725
g61
(dp726
g81
g82
ssg70
g720
sg63
(lp727
g354
asbag56
(g77
g58
NtRp728
(dp729
g61
(dp730
g88
g89
ssg70
g720
sg63
(lp731
S':'
asbag56
(g77
g58
NtRp732
(dp733
g61
(dp734
sg70
g720
sg63
(lp735
g56
(g57
g58
NtRp736
(dp737
g61
(dp738
g69
I3
ssg70
g732
sg63
(lp739
S''
asbasbasbag56
(g72
g58
NtRp740
(dp741
g61
(dp742
sg70
g636
sg63
(lp743
g56
(g77
g58
NtRp744
(dp745
g61
(dp746
g81
g82
ssg70
g740
sg63
(lp747
g375
asbag56
(g77
g58
NtRp748
(dp749
g61
(dp750
g88
g89
ssg70
g740
sg63
(lp751
S':'
asbag56
(g77
g58
NtRp752
(dp753
g61
(dp754
sg70
g740
sg63
(lp755
g56
(g57
g58
NtRp756
(dp757
g61
(dp758
g69
I3
ssg70
g752
sg63
(lp759
S''
asbasbasbag56
(g72
g58
NtRp760
(dp761
g61
(dp762
sg70
g636
sg63
(lp763
g56
(g77
g58
NtRp764
(dp765
g61
(dp766
g81
g82
ssg70
g760
sg63
(lp767
g396
asbag56
(g77
g58
NtRp768
(dp769
g61
(dp770
g88
g89
ssg70
g760
sg63
(lp771
S':'
asbag56
(g77
g58
NtRp772
(dp773
g61
(dp774
sg70
g760
sg63
(lp775
g56
(g57
g58
NtRp776
(dp777
g61
(dp778
g69
I3
ssg70
g772
sg63
(lp779
S''
asbasbasbag56
(g72
g58
NtRp780
(dp781
g61
(dp782
sg70
g636
sg63
(lp783
g56
(g77
g58
NtRp784
(dp785
g61
(dp786
g81
g82
ssg70
g780
sg63
(lp787
g417
asbag56
(g77
g58
NtRp788
(dp789
g61
(dp790
g88
g89
ssg70
g780
sg63
(lp791
S':'
asbag56
(g77
g58
NtRp792
(dp793
g61
(dp794
sg70
g780
sg63
(lp795
g56
(g57
g58
NtRp796
(dp797
g61
(dp798
g69
I3
ssg70
g792
sg63
(lp799
S''
asbasbasbasbasbasbasbasbasbasbasbag56
(g72
g58
NtRp800
(dp801
g61
(dp802
sg70
g66
sg63
(lp803
g56
(g77
g58
NtRp804
(dp805
g61
(dp806
g81
g82
ssg70
g800
sg63
(lp807
S'env'
p808
asbag56
(g77
g58
NtRp809
(dp810
g61
(dp811
g88
g89
ssg70
g800
sg63
(lp812
S':'
asbag56
(g77
g58
NtRp813
(dp814
g61
(dp815
sg70
g800
sg63
(lp816
g56
(g57
g58
NtRp817
(dp818
g61
(dp819
g69
I5
ssg70
g813
sg63
(lp820
g56
(g65
g58
NtRp821
(dp822
g61
(dp823
g69
I4
ssg70
Nsg63
(lp824
g56
(g72
g58
NtRp825
(dp826
g61
(dp827
sg70
g821
sg63
(lp828
g56
(g77
g58
NtRp829
(dp830
g61
(dp831
g81
g82
ssg70
g825
sg63
(lp832
S'app_folders'
p833
asbag56
(g77
g58
NtRp834
(dp835
g61
(dp836
g88
g89
ssg70
g825
sg63
(lp837
S':'
asbag56
(g77
g58
NtRp838
(dp839
g61
(dp840
sg70
g825
sg63
(lp841
g56
(g57
g58
NtRp842
(dp843
g61
(dp844
g69
I4
ssg70
g838
sg63
(lp845
S"set(['/home/alumno/web2py/applications/admin/', '/home/alumno/web2py/applications/about_me/', '/home/alumno/web2py/applications/welcome/', '/home/alumno/web2py/applications/datos/'])"
p846
asbasbasbag56
(g72
g58
NtRp847
(dp848
g61
(dp849
sg70
g821
sg63
(lp850
g56
(g77
g58
NtRp851
(dp852
g61
(dp853
g81
g82
ssg70
g847
sg63
(lp854
S'applications_parent'
p855
asbag56
(g77
g58
NtRp856
(dp857
g61
(dp858
g88
g89
ssg70
g847
sg63
(lp859
S':'
asbag56
(g77
g58
NtRp860
(dp861
g61
(dp862
sg70
g847
sg63
(lp863
g56
(g57
g58
NtRp864
(dp865
g61
(dp866
g69
I4
ssg70
g860
sg63
(lp867
S'/home/alumno/web2py'
p868
asbasbasbag56
(g72
g58
NtRp869
(dp870
g61
(dp871
sg70
g821
sg63
(lp872
g56
(g77
g58
NtRp873
(dp874
g61
(dp875
g81
g82
ssg70
g869
sg63
(lp876
S'cmd_args'
p877
asbag56
(g77
g58
NtRp878
(dp879
g61
(dp880
g88
g89
ssg70
g869
sg63
(lp881
S':'
asbag56
(g77
g58
NtRp882
(dp883
g61
(dp884
sg70
g869
sg63
(lp885
g56
(g57
g58
NtRp886
(dp887
g61
(dp888
g69
I4
ssg70
g882
sg63
(lp889
g56
(g65
g58
NtRp890
(dp891
g61
(dp892
g69
I3
ssg70
Nsg63
(lp893
sbasbasbasbag56
(g72
g58
NtRp894
(dp895
g61
(dp896
sg70
g821
sg63
(lp897
g56
(g77
g58
NtRp898
(dp899
g61
(dp900
g81
g82
ssg70
g894
sg63
(lp901
S'cmd_options'
p902
asbag56
(g77
g58
NtRp903
(dp904
g61
(dp905
g88
g89
ssg70
g894
sg63
(lp906
S':'
asbag56
(g77
g58
NtRp907
(dp908
g61
(dp909
sg70
g894
sg63
(lp910
g56
(g57
g58
NtRp911
(dp912
g61
(dp913
g69
I4
ssg70
g907
sg63
(lp914
S"<Values at 0x9716ecc: {'verbose': False, 'ip': '127.0.0.1', 'shutdown_timeout': 5, 'taskbar': False, 'port': 8000, 'maxthreads': None, 'softcron': False, 'server_name': 'ubuntu-dev', 'bpython': False, 'nogui': False, 'nocron': False, 'extcron': False, 'debuglevel': 30, 'test': None, 'folder': '/home/alumno/web2py', 'config': '', 'import_models': False, 'winservice': '', 'shell': None, 'run': '', 'log_filename': 'httpserver.log', 'args': [''], 'profiler_filename': None, 'ssl_private_key': '', 'password': 'toor', 'request_queue_size': 5, 'ssl_certificate': '', 'cronjob': False, 'plain': False, 'quiet': False, 'interfaces': None, 'minthreads': None, 'timeout': 10, 'numthreads': None, 'nobanner': False, 'pid_filename': 'httpserver.pid'}>"
p915
asbasbasbag56
(g72
g58
NtRp916
(dp917
g61
(dp918
sg70
g821
sg63
(lp919
g56
(g77
g58
NtRp920
(dp921
g61
(dp922
g81
g82
ssg70
g916
sg63
(lp923
S'db_sessions'
p924
asbag56
(g77
g58
NtRp925
(dp926
g61
(dp927
g88
g89
ssg70
g916
sg63
(lp928
S':'
asbag56
(g77
g58
NtRp929
(dp930
g61
(dp931
sg70
g916
sg63
(lp932
g56
(g57
g58
NtRp933
(dp934
g61
(dp935
g69
I4
ssg70
g929
sg63
(lp936
S'set([])'
p937
asbasbasbag56
(g72
g58
NtRp938
(dp939
g61
(dp940
sg70
g821
sg63
(lp941
g56
(g77
g58
NtRp942
(dp943
g61
(dp944
g81
g82
ssg70
g938
sg63
(lp945
S'debugging'
p946
asbag56
(g77
g58
NtRp947
(dp948
g61
(dp949
g88
g89
ssg70
g938
sg63
(lp950
S':'
asbag56
(g77
g58
NtRp951
(dp952
g61
(dp953
sg70
g938
sg63
(lp954
g56
(g57
g58
NtRp955
(dp956
g61
(dp957
g69
I4
ssg70
g951
sg63
(lp958
g99
asbasbasbag56
(g72
g58
NtRp959
(dp960
g61
(dp961
sg70
g821
sg63
(lp962
g56
(g77
g58
NtRp963
(dp964
g61
(dp965
g81
g82
ssg70
g959
sg63
(lp966
S'gluon_parent'
p967
asbag56
(g77
g58
NtRp968
(dp969
g61
(dp970
g88
g89
ssg70
g959
sg63
(lp971
S':'
asbag56
(g77
g58
NtRp972
(dp973
g61
(dp974
sg70
g959
sg63
(lp975
g56
(g57
g58
NtRp976
(dp977
g61
(dp978
g69
I4
ssg70
g972
sg63
(lp979
S'/home/alumno/web2py'
p980
asbasbasbag56
(g72
g58
NtRp981
(dp982
g61
(dp983
sg70
g821
sg63
(lp984
g56
(g77
g58
NtRp985
(dp986
g61
(dp987
g81
g82
ssg70
g981
sg63
(lp988
S'http_accept'
p989
asbag56
(g77
g58
NtRp990
(dp991
g61
(dp992
g88
g89
ssg70
g981
sg63
(lp993
S':'
asbag56
(g77
g58
NtRp994
(dp995
g61
(dp996
sg70
g981
sg63
(lp997
g56
(g57
g58
NtRp998
(dp999
g61
(dp1000
g69
I4
ssg70
g994
sg63
(lp1001
S'text/html,application/xhtml+xml,application/xml;q=0.9,*/*;q=0.8'
p1002
asbasbasbag56
(g72
g58
NtRp1003
(dp1004
g61
(dp1005
sg70
g821
sg63
(lp1006
g56
(g77
g58
NtRp1007
(dp1008
g61
(dp1009
g81
g82
ssg70
g1003
sg63
(lp1010
S'http_accept_charset'
p1011
asbag56
(g77
g58
NtRp1012
(dp1013
g61
(dp1014
g88
g89
ssg70
g1003
sg63
(lp1015
S':'
asbag56
(g77
g58
NtRp1016
(dp1017
g61
(dp1018
sg70
g1003
sg63
(lp1019
g56
(g57
g58
NtRp1020
(dp1021
g61
(dp1022
g69
I4
ssg70
g1016
sg63
(lp1023
S'ISO-8859-1,utf-8;q=0.7,*;q=0.7'
p1024
asbasbasbag56
(g72
g58
NtRp1025
(dp1026
g61
(dp1027
sg70
g821
sg63
(lp1028
g56
(g77
g58
NtRp1029
(dp1030
g61
(dp1031
g81
g82
ssg70
g1025
sg63
(lp1032
S'http_accept_encoding'
p1033
asbag56
(g77
g58
NtRp1034
(dp1035
g61
(dp1036
g88
g89
ssg70
g1025
sg63
(lp1037
S':'
asbag56
(g77
g58
NtRp1038
(dp1039
g61
(dp1040
sg70
g1025
sg63
(lp1041
g56
(g57
g58
NtRp1042
(dp1043
g61
(dp1044
g69
I4
ssg70
g1038
sg63
(lp1045
S'gzip, deflate'
p1046
asbasbasbag56
(g72
g58
NtRp1047
(dp1048
g61
(dp1049
sg70
g821
sg63
(lp1050
g56
(g77
g58
NtRp1051
(dp1052
g61
(dp1053
g81
g82
ssg70
g1047
sg63
(lp1054
S'http_accept_language'
p1055
asbag56
(g77
g58
NtRp1056
(dp1057
g61
(dp1058
g88
g89
ssg70
g1047
sg63
(lp1059
S':'
asbag56
(g77
g58
NtRp1060
(dp1061
g61
(dp1062
sg70
g1047
sg63
(lp1063
g56
(g57
g58
NtRp1064
(dp1065
g61
(dp1066
g69
I4
ssg70
g1060
sg63
(lp1067
S'es-ar,es;q=0.8,en-us;q=0.5,en;q=0.3'
p1068
asbasbasbag56
(g72
g58
NtRp1069
(dp1070
g61
(dp1071
sg70
g821
sg63
(lp1072
g56
(g77
g58
NtRp1073
(dp1074
g61
(dp1075
g81
g82
ssg70
g1069
sg63
(lp1076
S'http_connection'
p1077
asbag56
(g77
g58
NtRp1078
(dp1079
g61
(dp1080
g88
g89
ssg70
g1069
sg63
(lp1081
S':'
asbag56
(g77
g58
NtRp1082
(dp1083
g61
(dp1084
sg70
g1069
sg63
(lp1085
g56
(g57
g58
NtRp1086
(dp1087
g61
(dp1088
g69
I4
ssg70
g1082
sg63
(lp1089
S'keep-alive'
p1090
asbasbasbag56
(g72
g58
NtRp1091
(dp1092
g61
(dp1093
sg70
g821
sg63
(lp1094
g56
(g77
g58
NtRp1095
(dp1096
g61
(dp1097
g81
g82
ssg70
g1091
sg63
(lp1098
S'http_cookie'
p1099
asbag56
(g77
g58
NtRp1100
(dp1101
g61
(dp1102
g88
g89
ssg70
g1091
sg63
(lp1103
S':'
asbag56
(g77
g58
NtRp1104
(dp1105
g61
(dp1106
sg70
g1091
sg63
(lp1107
g56
(g57
g58
NtRp1108
(dp1109
g61
(dp1110
g69
I4
ssg70
g1104
sg63
(lp1111
S'session_id_welcome=127.0.0.1-9a64e71a-71c9-4c62-b046-090ea7d45525; session_id_admin=127.0.0.1-fd47075d-a50d-4307-a71d-53fd6091c621; session_id_about_me=127.0.0.1-7001d55b-0853-4806-9a34-cb98dbab722d'
p1112
asbasbasbag56
(g72
g58
NtRp1113
(dp1114
g61
(dp1115
sg70
g821
sg63
(lp1116
g56
(g77
g58
NtRp1117
(dp1118
g61
(dp1119
g81
g82
ssg70
g1113
sg63
(lp1120
S'http_host'
p1121
asbag56
(g77
g58
NtRp1122
(dp1123
g61
(dp1124
g88
g89
ssg70
g1113
sg63
(lp1125
S':'
asbag56
(g77
g58
NtRp1126
(dp1127
g61
(dp1128
sg70
g1113
sg63
(lp1129
g56
(g57
g58
NtRp1130
(dp1131
g61
(dp1132
g69
I4
ssg70
g1126
sg63
(lp1133
S'127.0.0.1:8000'
p1134
asbasbasbag56
(g72
g58
NtRp1135
(dp1136
g61
(dp1137
sg70
g821
sg63
(lp1138
g56
(g77
g58
NtRp1139
(dp1140
g61
(dp1141
g81
g82
ssg70
g1135
sg63
(lp1142
S'http_referer'
p1143
asbag56
(g77
g58
NtRp1144
(dp1145
g61
(dp1146
g88
g89
ssg70
g1135
sg63
(lp1147
S':'
asbag56
(g77
g58
NtRp1148
(dp1149
g61
(dp1150
sg70
g1135
sg63
(lp1151
g56
(g57
g58
NtRp1152
(dp1153
g61
(dp1154
g69
I4
ssg70
g1148
sg63
(lp1155
S'http://127.0.0.1:8000/admin/default/design/datos'
p1156
asbasbasbag56
(g72
g58
NtRp1157
(dp1158
g61
(dp1159
sg70
g821
sg63
(lp1160
g56
(g77
g58
NtRp1161
(dp1162
g61
(dp1163
g81
g82
ssg70
g1157
sg63
(lp1164
S'http_user_agent'
p1165
asbag56
(g77
g58
NtRp1166
(dp1167
g61
(dp1168
g88
g89
ssg70
g1157
sg63
(lp1169
S':'
asbag56
(g77
g58
NtRp1170
(dp1171
g61
(dp1172
sg70
g1157
sg63
(lp1173
g56
(g57
g58
NtRp1174
(dp1175
g61
(dp1176
g69
I4
ssg70
g1170
sg63
(lp1177
S'Mozilla/5.0 (X11; Linux i686; rv:6.0) Gecko/20100101 Firefox/6.0'
p1178
asbasbasbag56
(g72
g58
NtRp1179
(dp1180
g61
(dp1181
sg70
g821
sg63
(lp1182
g56
(g77
g58
NtRp1183
(dp1184
g61
(dp1185
g81
g82
ssg70
g1179
sg63
(lp1186
S'path_info'
p1187
asbag56
(g77
g58
NtRp1188
(dp1189
g61
(dp1190
g88
g89
ssg70
g1179
sg63
(lp1191
S':'
asbag56
(g77
g58
NtRp1192
(dp1193
g61
(dp1194
sg70
g1179
sg63
(lp1195
g56
(g57
g58
NtRp1196
(dp1197
g61
(dp1198
g69
I4
ssg70
g1192
sg63
(lp1199
S'/datos/appadmin/index'
p1200
asbasbasbag56
(g72
g58
NtRp1201
(dp1202
g61
(dp1203
sg70
g821
sg63
(lp1204
g56
(g77
g58
NtRp1205
(dp1206
g61
(dp1207
g81
g82
ssg70
g1201
sg63
(lp1208
S'query_string'
p1209
asbag56
(g77
g58
NtRp1210
(dp1211
g61
(dp1212
g88
g89
ssg70
g1201
sg63
(lp1213
S':'
asbag56
(g77
g58
NtRp1214
(dp1215
g61
(dp1216
sg70
g1201
sg63
(lp1217
g56
(g57
g58
NtRp1218
(dp1219
g61
(dp1220
g69
I4
ssg70
g1214
sg63
(lp1221
S''
asbasbasbag56
(g72
g58
NtRp1222
(dp1223
g61
(dp1224
sg70
g821
sg63
(lp1225
g56
(g77
g58
NtRp1226
(dp1227
g61
(dp1228
g81
g82
ssg70
g1222
sg63
(lp1229
S'remote_addr'
p1230
asbag56
(g77
g58
NtRp1231
(dp1232
g61
(dp1233
g88
g89
ssg70
g1222
sg63
(lp1234
S':'
asbag56
(g77
g58
NtRp1235
(dp1236
g61
(dp1237
sg70
g1222
sg63
(lp1238
g56
(g57
g58
NtRp1239
(dp1240
g61
(dp1241
g69
I4
ssg70
g1235
sg63
(lp1242
g189
asbasbasbag56
(g72
g58
NtRp1243
(dp1244
g61
(dp1245
sg70
g821
sg63
(lp1246
g56
(g77
g58
NtRp1247
(dp1248
g61
(dp1249
g81
g82
ssg70
g1243
sg63
(lp1250
S'remote_port'
p1251
asbag56
(g77
g58
NtRp1252
(dp1253
g61
(dp1254
g88
g89
ssg70
g1243
sg63
(lp1255
S':'
asbag56
(g77
g58
NtRp1256
(dp1257
g61
(dp1258
sg70
g1243
sg63
(lp1259
g56
(g57
g58
NtRp1260
(dp1261
g61
(dp1262
g69
I4
ssg70
g1256
sg63
(lp1263
S'59290'
p1264
asbasbasbag56
(g72
g58
NtRp1265
(dp1266
g61
(dp1267
sg70
g821
sg63
(lp1268
g56
(g77
g58
NtRp1269
(dp1270
g61
(dp1271
g81
g82
ssg70
g1265
sg63
(lp1272
S'request_method'
p1273
asbag56
(g77
g58
NtRp1274
(dp1275
g61
(dp1276
g88
g89
ssg70
g1265
sg63
(lp1277
S':'
asbag56
(g77
g58
NtRp1278
(dp1279
g61
(dp1280
sg70
g1265
sg63
(lp1281
g56
(g57
g58
NtRp1282
(dp1283
g61
(dp1284
g69
I4
ssg70
g1278
sg63
(lp1285
S'GET'
p1286
asbasbasbag56
(g72
g58
NtRp1287
(dp1288
g61
(dp1289
sg70
g821
sg63
(lp1290
g56
(g77
g58
NtRp1291
(dp1292
g61
(dp1293
g81
g82
ssg70
g1287
sg63
(lp1294
S'script_name'
p1295
asbag56
(g77
g58
NtRp1296
(dp1297
g61
(dp1298
g88
g89
ssg70
g1287
sg63
(lp1299
S':'
asbag56
(g77
g58
NtRp1300
(dp1301
g61
(dp1302
sg70
g1287
sg63
(lp1303
g56
(g57
g58
NtRp1304
(dp1305
g61
(dp1306
g69
I4
ssg70
g1300
sg63
(lp1307
S''
asbasbasbag56
(g72
g58
NtRp1308
(dp1309
g61
(dp1310
sg70
g821
sg63
(lp1311
g56
(g77
g58
NtRp1312
(dp1313
g61
(dp1314
g81
g82
ssg70
g1308
sg63
(lp1315
S'server_name'
p1316
asbag56
(g77
g58
NtRp1317
(dp1318
g61
(dp1319
g88
g89
ssg70
g1308
sg63
(lp1320
S':'
asbag56
(g77
g58
NtRp1321
(dp1322
g61
(dp1323
sg70
g1308
sg63
(lp1324
g56
(g57
g58
NtRp1325
(dp1326
g61
(dp1327
g69
I4
ssg70
g1321
sg63
(lp1328
S'ubuntu-dev'
p1329
asbasbasbag56
(g72
g58
NtRp1330
(dp1331
g61
(dp1332
sg70
g821
sg63
(lp1333
g56
(g77
g58
NtRp1334
(dp1335
g61
(dp1336
g81
g82
ssg70
g1330
sg63
(lp1337
S'server_port'
p1338
asbag56
(g77
g58
NtRp1339
(dp1340
g61
(dp1341
g88
g89
ssg70
g1330
sg63
(lp1342
S':'
asbag56
(g77
g58
NtRp1343
(dp1344
g61
(dp1345
sg70
g1330
sg63
(lp1346
g56
(g57
g58
NtRp1347
(dp1348
g61
(dp1349
g69
I4
ssg70
g1343
sg63
(lp1350
S'8000'
p1351
asbasbasbag56
(g72
g58
NtRp1352
(dp1353
g61
(dp1354
sg70
g821
sg63
(lp1355
g56
(g77
g58
NtRp1356
(dp1357
g61
(dp1358
g81
g82
ssg70
g1352
sg63
(lp1359
S'server_protocol'
p1360
asbag56
(g77
g58
NtRp1361
(dp1362
g61
(dp1363
g88
g89
ssg70
g1352
sg63
(lp1364
S':'
asbag56
(g77
g58
NtRp1365
(dp1366
g61
(dp1367
sg70
g1352
sg63
(lp1368
g56
(g57
g58
NtRp1369
(dp1370
g61
(dp1371
g69
I4
ssg70
g1365
sg63
(lp1372
S'HTTP/1.1'
p1373
asbasbasbag56
(g72
g58
NtRp1374
(dp1375
g61
(dp1376
sg70
g821
sg63
(lp1377
g56
(g77
g58
NtRp1378
(dp1379
g61
(dp1380
g81
g82
ssg70
g1374
sg63
(lp1381
S'server_software'
p1382
asbag56
(g77
g58
NtRp1383
(dp1384
g61
(dp1385
g88
g89
ssg70
g1374
sg63
(lp1386
S':'
asbag56
(g77
g58
NtRp1387
(dp1388
g61
(dp1389
sg70
g1374
sg63
(lp1390
g56
(g57
g58
NtRp1391
(dp1392
g61
(dp1393
g69
I4
ssg70
g1387
sg63
(lp1394
S'Rocket 1.2.2'
p1395
asbasbasbag56
(g72
g58
NtRp1396
(dp1397
g61
(dp1398
sg70
g821
sg63
(lp1399
g56
(g77
g58
NtRp1400
(dp1401
g61
(dp1402
g81
g82
ssg70
g1396
sg63
(lp1403
S'web2py_crontype'
p1404
asbag56
(g77
g58
NtRp1405
(dp1406
g61
(dp1407
g88
g89
ssg70
g1396
sg63
(lp1408
S':'
asbag56
(g77
g58
NtRp1409
(dp1410
g61
(dp1411
sg70
g1396
sg63
(lp1412
g56
(g57
g58
NtRp1413
(dp1414
g61
(dp1415
g69
I4
ssg70
g1409
sg63
(lp1416
S'hard'
p1417
asbasbasbag56
(g72
g58
NtRp1418
(dp1419
g61
(dp1420
sg70
g821
sg63
(lp1421
g56
(g77
g58
NtRp1422
(dp1423
g61
(dp1424
g81
g82
ssg70
g1418
sg63
(lp1425
S'web2py_path'
p1426
asbag56
(g77
g58
NtRp1427
(dp1428
g61
(dp1429
g88
g89
ssg70
g1418
sg63
(lp1430
S':'
asbag56
(g77
g58
NtRp1431
(dp1432
g61
(dp1433
sg70
g1418
sg63
(lp1434
g56
(g57
g58
NtRp1435
(dp1436
g61
(dp1437
g69
I4
ssg70
g1431
sg63
(lp1438
g868
asbasbasbag56
(g72
g58
NtRp1439
(dp1440
g61
(dp1441
sg70
g821
sg63
(lp1442
g56
(g77
g58
NtRp1443
(dp1444
g61
(dp1445
g81
g82
ssg70
g1439
sg63
(lp1446
S'web2py_version'
p1447
asbag56
(g77
g58
NtRp1448
(dp1449
g61
(dp1450
g88
g89
ssg70
g1439
sg63
(lp1451
S':'
asbag56
(g77
g58
NtRp1452
(dp1453
g61
(dp1454
sg70
g1439
sg63
(lp1455
g56
(g57
g58
NtRp1456
(dp1457
g61
(dp1458
g69
I4
ssg70
g1452
sg63
(lp1459
S'Version 1.96.4 (2011-06-18 21:34:53)\n'
p1460
asbasbasbag56
(g72
g58
NtRp1461
(dp1462
g61
(dp1463
sg70
g821
sg63
(lp1464
g56
(g77
g58
NtRp1465
(dp1466
g61
(dp1467
g81
g82
ssg70
g1461
sg63
(lp1468
S'wsgi_errors'
p1469
asbag56
(g77
g58
NtRp1470
(dp1471
g61
(dp1472
g88
g89
ssg70
g1461
sg63
(lp1473
S':'
asbag56
(g77
g58
NtRp1474
(dp1475
g61
(dp1476
sg70
g1461
sg63
(lp1477
g56
(g57
g58
NtRp1478
(dp1479
g61
(dp1480
g69
I4
ssg70
g1474
sg63
(lp1481
S"<open file '<stderr>', mode 'w' at 0xb78200d0>"
p1482
asbasbasbag56
(g72
g58
NtRp1483
(dp1484
g61
(dp1485
sg70
g821
sg63
(lp1486
g56
(g77
g58
NtRp1487
(dp1488
g61
(dp1489
g81
g82
ssg70
g1483
sg63
(lp1490
S'wsgi_file_wrapper'
p1491
asbag56
(g77
g58
NtRp1492
(dp1493
g61
(dp1494
g88
g89
ssg70
g1483
sg63
(lp1495
S':'
asbag56
(g77
g58
NtRp1496
(dp1497
g61
(dp1498
sg70
g1483
sg63
(lp1499
g56
(g57
g58
NtRp1500
(dp1501
g61
(dp1502
g69
I4
ssg70
g1496
sg63
(lp1503
S'<class gluon.rocket.FileWrapper at 0x969cb9c>'
p1504
asbasbasbag56
(g72
g58
NtRp1505
(dp1506
g61
(dp1507
sg70
g821
sg63
(lp1508
g56
(g77
g58
NtRp1509
(dp1510
g61
(dp1511
g81
g82
ssg70
g1505
sg63
(lp1512
S'wsgi_input'
p1513
asbag56
(g77
g58
NtRp1514
(dp1515
g61
(dp1516
g88
g89
ssg70
g1505
sg63
(lp1517
S':'
asbag56
(g77
g58
NtRp1518
(dp1519
g61
(dp1520
sg70
g1505
sg63
(lp1521
g56
(g57
g58
NtRp1522
(dp1523
g61
(dp1524
g69
I4
ssg70
g1518
sg63
(lp1525
S'<socket._fileobject object at 0x9bee36c>'
p1526
asbasbasbag56
(g72
g58
NtRp1527
(dp1528
g61
(dp1529
sg70
g821
sg63
(lp1530
g56
(g77
g58
NtRp1531
(dp1532
g61
(dp1533
g81
g82
ssg70
g1527
sg63
(lp1534
S'wsgi_multiprocess'
p1535
asbag56
(g77
g58
NtRp1536
(dp1537
g61
(dp1538
g88
g89
ssg70
g1527
sg63
(lp1539
S':'
asbag56
(g77
g58
NtRp1540
(dp1541
g61
(dp1542
sg70
g1527
sg63
(lp1543
g56
(g57
g58
NtRp1544
(dp1545
g61
(dp1546
g69
I4
ssg70
g1540
sg63
(lp1547
g99
asbasbasbag56
(g72
g58
NtRp1548
(dp1549
g61
(dp1550
sg70
g821
sg63
(lp1551
g56
(g77
g58
NtRp1552
(dp1553
g61
(dp1554
g81
g82
ssg70
g1548
sg63
(lp1555
S'wsgi_multithread'
p1556
asbag56
(g77
g58
NtRp1557
(dp1558
g61
(dp1559
g88
g89
ssg70
g1548
sg63
(lp1560
S':'
asbag56
(g77
g58
NtRp1561
(dp1562
g61
(dp1563
sg70
g1548
sg63
(lp1564
g56
(g57
g58
NtRp1565
(dp1566
g61
(dp1567
g69
I4
ssg70
g1561
sg63
(lp1568
S'True'
p1569
asbasbasbag56
(g72
g58
NtRp1570
(dp1571
g61
(dp1572
sg70
g821
sg63
(lp1573
g56
(g77
g58
NtRp1574
(dp1575
g61
(dp1576
g81
g82
ssg70
g1570
sg63
(lp1577
S'wsgi_run_once'
p1578
asbag56
(g77
g58
NtRp1579
(dp1580
g61
(dp1581
g88
g89
ssg70
g1570
sg63
(lp1582
S':'
asbag56
(g77
g58
NtRp1583
(dp1584
g61
(dp1585
sg70
g1570
sg63
(lp1586
g56
(g57
g58
NtRp1587
(dp1588
g61
(dp1589
g69
I4
ssg70
g1583
sg63
(lp1590
g99
asbasbasbag56
(g72
g58
NtRp1591
(dp1592
g61
(dp1593
sg70
g821
sg63
(lp1594
g56
(g77
g58
NtRp1595
(dp1596
g61
(dp1597
g81
g82
ssg70
g1591
sg63
(lp1598
S'wsgi_url_scheme'
p1599
asbag56
(g77
g58
NtRp1600
(dp1601
g61
(dp1602
g88
g89
ssg70
g1591
sg63
(lp1603
S':'
asbag56
(g77
g58
NtRp1604
(dp1605
g61
(dp1606
sg70
g1591
sg63
(lp1607
g56
(g57
g58
NtRp1608
(dp1609
g61
(dp1610
g69
I4
ssg70
g1604
sg63
(lp1611
S'http'
p1612
asbasbasbag56
(g72
g58
NtRp1613
(dp1614
g61
(dp1615
sg70
g821
sg63
(lp1616
g56
(g77
g58
NtRp1617
(dp1618
g61
(dp1619
g81
g82
ssg70
g1613
sg63
(lp1620
S'wsgi_version'
p1621
asbag56
(g77
g58
NtRp1622
(dp1623
g61
(dp1624
g88
g89
ssg70
g1613
sg63
(lp1625
S':'
asbag56
(g77
g58
NtRp1626
(dp1627
g61
(dp1628
sg70
g1613
sg63
(lp1629
g56
(g57
g58
NtRp1630
(dp1631
g61
(dp1632
g69
I4
ssg70
g1626
sg63
(lp1633
g56
(g65
g58
NtRp1634
(dp1635
g61
(dp1636
g69
I3
ssg70
Nsg63
(lp1637
g56
(g72
g58
NtRp1638
(dp1639
g61
(dp1640
sg70
g1634
sg63
(lp1641
g56
(g77
g58
NtRp1642
(dp1643
g61
(dp1644
sg70
g1638
sg63
(lp1645
g56
(g57
g58
NtRp1646
(dp1647
g61
(dp1648
g69
I3
ssg70
g1642
sg63
(lp1649
S'1'
asbasbasbag56
(g72
g58
NtRp1650
(dp1651
g61
(dp1652
sg70
g1634
sg63
(lp1653
g56
(g77
g58
NtRp1654
(dp1655
g61
(dp1656
sg70
g1650
sg63
(lp1657
g56
(g57
g58
NtRp1658
(dp1659
g61
(dp1660
g69
I3
ssg70
g1654
sg63
(lp1661
S'0'
asbasbasbasbasbasbasbasbasbasbasbag56
(g72
g58
NtRp1662
(dp1663
g61
(dp1664
sg70
g66
sg63
(lp1665
g56
(g77
g58
NtRp1666
(dp1667
g61
(dp1668
g81
g82
ssg70
g1662
sg63
(lp1669
S'extension'
p1670
asbag56
(g77
g58
NtRp1671
(dp1672
g61
(dp1673
g88
g89
ssg70
g1662
sg63
(lp1674
S':'
asbag56
(g77
g58
NtRp1675
(dp1676
g61
(dp1677
sg70
g1662
sg63
(lp1678
g56
(g57
g58
NtRp1679
(dp1680
g61
(dp1681
g69
I5
ssg70
g1675
sg63
(lp1682
S'html'
p1683
asbasbasbag56
(g72
g58
NtRp1684
(dp1685
g61
(dp1686
sg70
g66
sg63
(lp1687
g56
(g77
g58
NtRp1688
(dp1689
g61
(dp1690
g81
g82
ssg70
g1684
sg63
(lp1691
S'folder'
p1692
asbag56
(g77
g58
NtRp1693
(dp1694
g61
(dp1695
g88
g89
ssg70
g1684
sg63
(lp1696
S':'
asbag56
(g77
g58
NtRp1697
(dp1698
g61
(dp1699
sg70
g1684
sg63
(lp1700
g56
(g57
g58
NtRp1701
(dp1702
g61
(dp1703
g69
I5
ssg70
g1697
sg63
(lp1704
S'/home/alumno/web2py/applications/datos/'
p1705
asbasbasbag56
(g72
g58
NtRp1706
(dp1707
g61
(dp1708
sg70
g66
sg63
(lp1709
g56
(g77
g58
NtRp1710
(dp1711
g61
(dp1712
g81
g82
ssg70
g1706
sg63
(lp1713
S'function'
p1714
asbag56
(g77
g58
NtRp1715
(dp1716
g61
(dp1717
g88
g89
ssg70
g1706
sg63
(lp1718
S':'
asbag56
(g77
g58
NtRp1719
(dp1720
g61
(dp1721
sg70
g1706
sg63
(lp1722
g56
(g57
g58
NtRp1723
(dp1724
g61
(dp1725
g69
I5
ssg70
g1719
sg63
(lp1726
S'index'
p1727
asbasbasbag56
(g72
g58
NtRp1728
(dp1729
g61
(dp1730
sg70
g66
sg63
(lp1731
g56
(g77
g58
NtRp1732
(dp1733
g61
(dp1734
g81
g82
ssg70
g1728
sg63
(lp1735
S'get_vars'
p1736
asbag56
(g77
g58
NtRp1737
(dp1738
g61
(dp1739
g88
g89
ssg70
g1728
sg63
(lp1740
S':'
asbag56
(g77
g58
NtRp1741
(dp1742
g61
(dp1743
sg70
g1728
sg63
(lp1744
g56
(g57
g58
NtRp1745
(dp1746
g61
(dp1747
g69
I5
ssg70
g1741
sg63
(lp1748
g56
(g65
g58
NtRp1749
(dp1750
g61
(dp1751
g69
I4
ssg70
Nsg63
(lp1752
sbasbasbasbag56
(g72
g58
NtRp1753
(dp1754
g61
(dp1755
sg70
g66
sg63
(lp1756
g56
(g77
g58
NtRp1757
(dp1758
g61
(dp1759
g81
g82
ssg70
g1753
sg63
(lp1760
S'is_https'
p1761
asbag56
(g77
g58
NtRp1762
(dp1763
g61
(dp1764
g88
g89
ssg70
g1753
sg63
(lp1765
S':'
asbag56
(g77
g58
NtRp1766
(dp1767
g61
(dp1768
sg70
g1753
sg63
(lp1769
g56
(g57
g58
NtRp1770
(dp1771
g61
(dp1772
g69
I5
ssg70
g1766
sg63
(lp1773
g99
asbasbasbag56
(g72
g58
NtRp1774
(dp1775
g61
(dp1776
sg70
g66
sg63
(lp1777
g56
(g77
g58
NtRp1778
(dp1779
g61
(dp1780
g81
g82
ssg70
g1774
sg63
(lp1781
S'is_local'
p1782
asbag56
(g77
g58
NtRp1783
(dp1784
g61
(dp1785
g88
g89
ssg70
g1774
sg63
(lp1786
S':'
asbag56
(g77
g58
NtRp1787
(dp1788
g61
(dp1789
sg70
g1774
sg63
(lp1790
g56
(g57
g58
NtRp1791
(dp1792
g61
(dp1793
g69
I5
ssg70
g1787
sg63
(lp1794
g1569
asbasbasbag56
(g72
g58
NtRp1795
(dp1796
g61
(dp1797
sg70
g66
sg63
(lp1798
g56
(g77
g58
NtRp1799
(dp1800
g61
(dp1801
g81
g82
ssg70
g1795
sg63
(lp1802
S'is_restful'
p1803
asbag56
(g77
g58
NtRp1804
(dp1805
g61
(dp1806
g88
g89
ssg70
g1795
sg63
(lp1807
S':'
asbag56
(g77
g58
NtRp1808
(dp1809
g61
(dp1810
sg70
g1795
sg63
(lp1811
g56
(g57
g58
NtRp1812
(dp1813
g61
(dp1814
g69
I5
ssg70
g1808
sg63
(lp1815
g99
asbasbasbag56
(g72
g58
NtRp1816
(dp1817
g61
(dp1818
sg70
g66
sg63
(lp1819
g56
(g77
g58
NtRp1820
(dp1821
g61
(dp1822
g81
g82
ssg70
g1816
sg63
(lp1823
S'now'
p1824
asbag56
(g77
g58
NtRp1825
(dp1826
g61
(dp1827
g88
g89
ssg70
g1816
sg63
(lp1828
S':'
asbag56
(g77
g58
NtRp1829
(dp1830
g61
(dp1831
sg70
g1816
sg63
(lp1832
g56
(g57
g58
NtRp1833
(dp1834
g61
(dp1835
g69
I5
ssg70
g1829
sg63
(lp1836
S'datetime.datetime(2011, 9, 7, 19, 7, 18, 482412)'
p1837
asbasbasbag56
(g72
g58
NtRp1838
(dp1839
g61
(dp1840
sg70
g66
sg63
(lp1841
g56
(g77
g58
NtRp1842
(dp1843
g61
(dp1844
g81
g82
ssg70
g1838
sg63
(lp1845
S'post_vars'
p1846
asbag56
(g77
g58
NtRp1847
(dp1848
g61
(dp1849
g88
g89
ssg70
g1838
sg63
(lp1850
S':'
asbag56
(g77
g58
NtRp1851
(dp1852
g61
(dp1853
sg70
g1838
sg63
(lp1854
g56
(g57
g58
NtRp1855
(dp1856
g61
(dp1857
g69
I5
ssg70
g1851
sg63
(lp1858
g56
(g65
g58
NtRp1859
(dp1860
g61
(dp1861
g69
I4
ssg70
Nsg63
(lp1862
sbasbasbasbag56
(g72
g58
NtRp1863
(dp1864
g61
(dp1865
sg70
g66
sg63
(lp1866
g56
(g77
g58
NtRp1867
(dp1868
g61
(dp1869
g81
g82
ssg70
g1863
sg63
(lp1870
S'url'
p1871
asbag56
(g77
g58
NtRp1872
(dp1873
g61
(dp1874
g88
g89
ssg70
g1863
sg63
(lp1875
S':'
asbag56
(g77
g58
NtRp1876
(dp1877
g61
(dp1878
sg70
g1863
sg63
(lp1879
g56
(g57
g58
NtRp1880
(dp1881
g61
(dp1882
g69
I5
ssg70
g1876
sg63
(lp1883
S'/datos/appadmin/index'
p1884
asbasbasbag56
(g72
g58
NtRp1885
(dp1886
g61
(dp1887
sg70
g66
sg63
(lp1888
g56
(g77
g58
NtRp1889
(dp1890
g61
(dp1891
g81
g82
ssg70
g1885
sg63
(lp1892
S'uuid'
p1893
asbag56
(g77
g58
NtRp1894
(dp1895
g61
(dp1896
g88
g89
ssg70
g1885
sg63
(lp1897
S':'
asbag56
(g77
g58
NtRp1898
(dp1899
g61
(dp1900
sg70
g1885
sg63
(lp1901
g56
(g57
g58
NtRp1902
(dp1903
g61
(dp1904
g69
I5
ssg70
g1898
sg63
(lp1905
S'datos/127.0.0.1.2011-09-07.19-07-18.1b59a008-bf5d-4ae2-a4ed-55ae267b1ac7'
p1906
asbasbasbag56
(g72
g58
NtRp1907
(dp1908
g61
(dp1909
sg70
g66
sg63
(lp1910
g56
(g77
g58
NtRp1911
(dp1912
g61
(dp1913
g81
g82
ssg70
g1907
sg63
(lp1914
S'vars'
p1915
asbag56
(g77
g58
NtRp1916
(dp1917
g61
(dp1918
g88
g89
ssg70
g1907
sg63
(lp1919
S':'
asbag56
(g77
g58
NtRp1920
(dp1921
g61
(dp1922
sg70
g1907
sg63
(lp1923
g56
(g57
g58
NtRp1924
(dp1925
g61
(dp1926
g69
I5
ssg70
g1920
sg63
(lp1927
g56
(g65
g58
NtRp1928
(dp1929
g61
(dp1930
g69
I4
ssg70
Nsg63
(lp1931
sbasbasbasbag56
(g72
g58
NtRp1932
(dp1933
g61
(dp1934
sg70
g66
sg63
(lp1935
g56
(g77
g58
NtRp1936
(dp1937
g61
(dp1938
g81
g82
ssg70
g1932
sg63
(lp1939
S'wsgi'
p1940
asbag56
(g77
g58
NtRp1941
(dp1942
g61
(dp1943
g88
g89
ssg70
g1932
sg63
(lp1944
S':'
asbag56
(g77
g58
NtRp1945
(dp1946
g61
(dp1947
sg70
g1932
sg63
(lp1948
g56
(g57
g58
NtRp1949
(dp1950
g61
(dp1951
g69
I5
ssg70
g1945
sg63
(lp1952
g56
(g65
g58
NtRp1953
(dp1954
g61
(dp1955
g69
I4
ssg70
Nsg63
(lp1956
g56
(g72
g58
NtRp1957
(dp1958
g61
(dp1959
sg70
g1953
sg63
(lp1960
g56
(g77
g58
NtRp1961
(dp1962
g61
(dp1963
g81
g82
ssg70
g1957
sg63
(lp1964
S'environ'
p1965
asbag56
(g77
g58
NtRp1966
(dp1967
g61
(dp1968
g88
g89
ssg70
g1957
sg63
(lp1969
S':'
asbag56
(g77
g58
NtRp1970
(dp1971
g61
(dp1972
sg70
g1957
sg63
(lp1973
g56
(g57
g58
NtRp1974
(dp1975
g61
(dp1976
g69
I4
ssg70
g1970
sg63
(lp1977
g56
(g65
g58
NtRp1978
(dp1979
g61
(dp1980
g69
I3
ssg70
Nsg63
(lp1981
g56
(g72
g58
NtRp1982
(dp1983
g61
(dp1984
sg70
g1978
sg63
(lp1985
g56
(g77
g58
NtRp1986
(dp1987
g61
(dp1988
g81
g82
ssg70
g1982
sg63
(lp1989
S'HTTP_ACCEPT'
p1990
asbag56
(g77
g58
NtRp1991
(dp1992
g61
(dp1993
g88
g89
ssg70
g1982
sg63
(lp1994
S':'
asbag56
(g77
g58
NtRp1995
(dp1996
g61
(dp1997
sg70
g1982
sg63
(lp1998
g56
(g57
g58
NtRp1999
(dp2000
g61
(dp2001
g69
I3
ssg70
g1995
sg63
(lp2002
g1002
asbasbasbag56
(g72
g58
NtRp2003
(dp2004
g61
(dp2005
sg70
g1978
sg63
(lp2006
g56
(g77
g58
NtRp2007
(dp2008
g61
(dp2009
g81
g82
ssg70
g2003
sg63
(lp2010
S'HTTP_ACCEPT_CHARSET'
p2011
asbag56
(g77
g58
NtRp2012
(dp2013
g61
(dp2014
g88
g89
ssg70
g2003
sg63
(lp2015
S':'
asbag56
(g77
g58
NtRp2016
(dp2017
g61
(dp2018
sg70
g2003
sg63
(lp2019
g56
(g57
g58
NtRp2020
(dp2021
g61
(dp2022
g69
I3
ssg70
g2016
sg63
(lp2023
g1024
asbasbasbag56
(g72
g58
NtRp2024
(dp2025
g61
(dp2026
sg70
g1978
sg63
(lp2027
g56
(g77
g58
NtRp2028
(dp2029
g61
(dp2030
g81
g82
ssg70
g2024
sg63
(lp2031
S'HTTP_ACCEPT_ENCODING'
p2032
asbag56
(g77
g58
NtRp2033
(dp2034
g61
(dp2035
g88
g89
ssg70
g2024
sg63
(lp2036
S':'
asbag56
(g77
g58
NtRp2037
(dp2038
g61
(dp2039
sg70
g2024
sg63
(lp2040
g56
(g57
g58
NtRp2041
(dp2042
g61
(dp2043
g69
I3
ssg70
g2037
sg63
(lp2044
g1046
asbasbasbag56
(g72
g58
NtRp2045
(dp2046
g61
(dp2047
sg70
g1978
sg63
(lp2048
g56
(g77
g58
NtRp2049
(dp2050
g61
(dp2051
g81
g82
ssg70
g2045
sg63
(lp2052
S'HTTP_ACCEPT_LANGUAGE'
p2053
asbag56
(g77
g58
NtRp2054
(dp2055
g61
(dp2056
g88
g89
ssg70
g2045
sg63
(lp2057
S':'
asbag56
(g77
g58
NtRp2058
(dp2059
g61
(dp2060
sg70
g2045
sg63
(lp2061
g56
(g57
g58
NtRp2062
(dp2063
g61
(dp2064
g69
I3
ssg70
g2058
sg63
(lp2065
g1068
asbasbasbag56
(g72
g58
NtRp2066
(dp2067
g61
(dp2068
sg70
g1978
sg63
(lp2069
g56
(g77
g58
NtRp2070
(dp2071
g61
(dp2072
g81
g82
ssg70
g2066
sg63
(lp2073
S'HTTP_CONNECTION'
p2074
asbag56
(g77
g58
NtRp2075
(dp2076
g61
(dp2077
g88
g89
ssg70
g2066
sg63
(lp2078
S':'
asbag56
(g77
g58
NtRp2079
(dp2080
g61
(dp2081
sg70
g2066
sg63
(lp2082
g56
(g57
g58
NtRp2083
(dp2084
g61
(dp2085
g69
I3
ssg70
g2079
sg63
(lp2086
g1090
asbasbasbag56
(g72
g58
NtRp2087
(dp2088
g61
(dp2089
sg70
g1978
sg63
(lp2090
g56
(g77
g58
NtRp2091
(dp2092
g61
(dp2093
g81
g82
ssg70
g2087
sg63
(lp2094
S'HTTP_COOKIE'
p2095
asbag56
(g77
g58
NtRp2096
(dp2097
g61
(dp2098
g88
g89
ssg70
g2087
sg63
(lp2099
S':'
asbag56
(g77
g58
NtRp2100
(dp2101
g61
(dp2102
sg70
g2087
sg63
(lp2103
g56
(g57
g58
NtRp2104
(dp2105
g61
(dp2106
g69
I3
ssg70
g2100
sg63
(lp2107
g1112
asbasbasbag56
(g72
g58
NtRp2108
(dp2109
g61
(dp2110
sg70
g1978
sg63
(lp2111
g56
(g77
g58
NtRp2112
(dp2113
g61
(dp2114
g81
g82
ssg70
g2108
sg63
(lp2115
S'HTTP_HOST'
p2116
asbag56
(g77
g58
NtRp2117
(dp2118
g61
(dp2119
g88
g89
ssg70
g2108
sg63
(lp2120
S':'
asbag56
(g77
g58
NtRp2121
(dp2122
g61
(dp2123
sg70
g2108
sg63
(lp2124
g56
(g57
g58
NtRp2125
(dp2126
g61
(dp2127
g69
I3
ssg70
g2121
sg63
(lp2128
g1134
asbasbasbag56
(g72
g58
NtRp2129
(dp2130
g61
(dp2131
sg70
g1978
sg63
(lp2132
g56
(g77
g58
NtRp2133
(dp2134
g61
(dp2135
g81
g82
ssg70
g2129
sg63
(lp2136
S'HTTP_REFERER'
p2137
asbag56
(g77
g58
NtRp2138
(dp2139
g61
(dp2140
g88
g89
ssg70
g2129
sg63
(lp2141
S':'
asbag56
(g77
g58
NtRp2142
(dp2143
g61
(dp2144
sg70
g2129
sg63
(lp2145
g56
(g57
g58
NtRp2146
(dp2147
g61
(dp2148
g69
I3
ssg70
g2142
sg63
(lp2149
g1156
asbasbasbag56
(g72
g58
NtRp2150
(dp2151
g61
(dp2152
sg70
g1978
sg63
(lp2153
g56
(g77
g58
NtRp2154
(dp2155
g61
(dp2156
g81
g82
ssg70
g2150
sg63
(lp2157
S'HTTP_USER_AGENT'
p2158
asbag56
(g77
g58
NtRp2159
(dp2160
g61
(dp2161
g88
g89
ssg70
g2150
sg63
(lp2162
S':'
asbag56
(g77
g58
NtRp2163
(dp2164
g61
(dp2165
sg70
g2150
sg63
(lp2166
g56
(g57
g58
NtRp2167
(dp2168
g61
(dp2169
g69
I3
ssg70
g2163
sg63
(lp2170
g1178
asbasbasbag56
(g72
g58
NtRp2171
(dp2172
g61
(dp2173
sg70
g1978
sg63
(lp2174
g56
(g77
g58
NtRp2175
(dp2176
g61
(dp2177
g81
g82
ssg70
g2171
sg63
(lp2178
S'PATH_INFO'
p2179
asbag56
(g77
g58
NtRp2180
(dp2181
g61
(dp2182
g88
g89
ssg70
g2171
sg63
(lp2183
S':'
asbag56
(g77
g58
NtRp2184
(dp2185
g61
(dp2186
sg70
g2171
sg63
(lp2187
g56
(g57
g58
NtRp2188
(dp2189
g61
(dp2190
g69
I3
ssg70
g2184
sg63
(lp2191
g1200
asbasbasbag56
(g72
g58
NtRp2192
(dp2193
g61
(dp2194
sg70
g1978
sg63
(lp2195
g56
(g77
g58
NtRp2196
(dp2197
g61
(dp2198
g81
g82
ssg70
g2192
sg63
(lp2199
S'QUERY_STRING'
p2200
asbag56
(g77
g58
NtRp2201
(dp2202
g61
(dp2203
g88
g89
ssg70
g2192
sg63
(lp2204
S':'
asbag56
(g77
g58
NtRp2205
(dp2206
g61
(dp2207
sg70
g2192
sg63
(lp2208
g56
(g57
g58
NtRp2209
(dp2210
g61
(dp2211
g69
I3
ssg70
g2205
sg63
(lp2212
S''
asbasbasbag56
(g72
g58
NtRp2213
(dp2214
g61
(dp2215
sg70
g1978
sg63
(lp2216
g56
(g77
g58
NtRp2217
(dp2218
g61
(dp2219
g81
g82
ssg70
g2213
sg63
(lp2220
S'REMOTE_ADDR'
p2221
asbag56
(g77
g58
NtRp2222
(dp2223
g61
(dp2224
g88
g89
ssg70
g2213
sg63
(lp2225
S':'
asbag56
(g77
g58
NtRp2226
(dp2227
g61
(dp2228
sg70
g2213
sg63
(lp2229
g56
(g57
g58
NtRp2230
(dp2231
g61
(dp2232
g69
I3
ssg70
g2226
sg63
(lp2233
g189
asbasbasbag56
(g72
g58
NtRp2234
(dp2235
g61
(dp2236
sg70
g1978
sg63
(lp2237
g56
(g77
g58
NtRp2238
(dp2239
g61
(dp2240
g81
g82
ssg70
g2234
sg63
(lp2241
S'REMOTE_PORT'
p2242
asbag56
(g77
g58
NtRp2243
(dp2244
g61
(dp2245
g88
g89
ssg70
g2234
sg63
(lp2246
S':'
asbag56
(g77
g58
NtRp2247
(dp2248
g61
(dp2249
sg70
g2234
sg63
(lp2250
g56
(g57
g58
NtRp2251
(dp2252
g61
(dp2253
g69
I3
ssg70
g2247
sg63
(lp2254
g1264
asbasbasbag56
(g72
g58
NtRp2255
(dp2256
g61
(dp2257
sg70
g1978
sg63
(lp2258
g56
(g77
g58
NtRp2259
(dp2260
g61
(dp2261
g81
g82
ssg70
g2255
sg63
(lp2262
S'REQUEST_METHOD'
p2263
asbag56
(g77
g58
NtRp2264
(dp2265
g61
(dp2266
g88
g89
ssg70
g2255
sg63
(lp2267
S':'
asbag56
(g77
g58
NtRp2268
(dp2269
g61
(dp2270
sg70
g2255
sg63
(lp2271
g56
(g57
g58
NtRp2272
(dp2273
g61
(dp2274
g69
I3
ssg70
g2268
sg63
(lp2275
g1286
asbasbasbag56
(g72
g58
NtRp2276
(dp2277
g61
(dp2278
sg70
g1978
sg63
(lp2279
g56
(g77
g58
NtRp2280
(dp2281
g61
(dp2282
g81
g82
ssg70
g2276
sg63
(lp2283
S'SCRIPT_NAME'
p2284
asbag56
(g77
g58
NtRp2285
(dp2286
g61
(dp2287
g88
g89
ssg70
g2276
sg63
(lp2288
S':'
asbag56
(g77
g58
NtRp2289
(dp2290
g61
(dp2291
sg70
g2276
sg63
(lp2292
g56
(g57
g58
NtRp2293
(dp2294
g61
(dp2295
g69
I3
ssg70
g2289
sg63
(lp2296
S''
asbasbasbag56
(g72
g58
NtRp2297
(dp2298
g61
(dp2299
sg70
g1978
sg63
(lp2300
g56
(g77
g58
NtRp2301
(dp2302
g61
(dp2303
g81
g82
ssg70
g2297
sg63
(lp2304
S'SERVER_NAME'
p2305
asbag56
(g77
g58
NtRp2306
(dp2307
g61
(dp2308
g88
g89
ssg70
g2297
sg63
(lp2309
S':'
asbag56
(g77
g58
NtRp2310
(dp2311
g61
(dp2312
sg70
g2297
sg63
(lp2313
g56
(g57
g58
NtRp2314
(dp2315
g61
(dp2316
g69
I3
ssg70
g2310
sg63
(lp2317
g1329
asbasbasbag56
(g72
g58
NtRp2318
(dp2319
g61
(dp2320
sg70
g1978
sg63
(lp2321
g56
(g77
g58
NtRp2322
(dp2323
g61
(dp2324
g81
g82
ssg70
g2318
sg63
(lp2325
S'SERVER_PORT'
p2326
asbag56
(g77
g58
NtRp2327
(dp2328
g61
(dp2329
g88
g89
ssg70
g2318
sg63
(lp2330
S':'
asbag56
(g77
g58
NtRp2331
(dp2332
g61
(dp2333
sg70
g2318
sg63
(lp2334
g56
(g57
g58
NtRp2335
(dp2336
g61
(dp2337
g69
I3
ssg70
g2331
sg63
(lp2338
g1351
asbasbasbag56
(g72
g58
NtRp2339
(dp2340
g61
(dp2341
sg70
g1978
sg63
(lp2342
g56
(g77
g58
NtRp2343
(dp2344
g61
(dp2345
g81
g82
ssg70
g2339
sg63
(lp2346
S'SERVER_PROTOCOL'
p2347
asbag56
(g77
g58
NtRp2348
(dp2349
g61
(dp2350
g88
g89
ssg70
g2339
sg63
(lp2351
S':'
asbag56
(g77
g58
NtRp2352
(dp2353
g61
(dp2354
sg70
g2339
sg63
(lp2355
g56
(g57
g58
NtRp2356
(dp2357
g61
(dp2358
g69
I3
ssg70
g2352
sg63
(lp2359
g1373
asbasbasbag56
(g72
g58
NtRp2360
(dp2361
g61
(dp2362
sg70
g1978
sg63
(lp2363
g56
(g77
g58
NtRp2364
(dp2365
g61
(dp2366
g81
g82
ssg70
g2360
sg63
(lp2367
S'SERVER_SOFTWARE'
p2368
asbag56
(g77
g58
NtRp2369
(dp2370
g61
(dp2371
g88
g89
ssg70
g2360
sg63
(lp2372
S':'
asbag56
(g77
g58
NtRp2373
(dp2374
g61
(dp2375
sg70
g2360
sg63
(lp2376
g56
(g57
g58
NtRp2377
(dp2378
g61
(dp2379
g69
I3
ssg70
g2373
sg63
(lp2380
g1395
asbasbasbag56
(g72
g58
NtRp2381
(dp2382
g61
(dp2383
sg70
g1978
sg63
(lp2384
g56
(g77
g58
NtRp2385
(dp2386
g61
(dp2387
g81
g82
ssg70
g2381
sg63
(lp2388
S'wsgi.errors'
p2389
asbag56
(g77
g58
NtRp2390
(dp2391
g61
(dp2392
g88
g89
ssg70
g2381
sg63
(lp2393
S':'
asbag56
(g77
g58
NtRp2394
(dp2395
g61
(dp2396
sg70
g2381
sg63
(lp2397
g56
(g57
g58
NtRp2398
(dp2399
g61
(dp2400
g69
I3
ssg70
g2394
sg63
(lp2401
S"<open file '<stderr>', mode 'w' at 0xb78200d0>"
p2402
asbasbasbag56
(g72
g58
NtRp2403
(dp2404
g61
(dp2405
sg70
g1978
sg63
(lp2406
g56
(g77
g58
NtRp2407
(dp2408
g61
(dp2409
g81
g82
ssg70
g2403
sg63
(lp2410
S'wsgi.file_wrapper'
p2411
asbag56
(g77
g58
NtRp2412
(dp2413
g61
(dp2414
g88
g89
ssg70
g2403
sg63
(lp2415
S':'
asbag56
(g77
g58
NtRp2416
(dp2417
g61
(dp2418
sg70
g2403
sg63
(lp2419
g56
(g57
g58
NtRp2420
(dp2421
g61
(dp2422
g69
I3
ssg70
g2416
sg63
(lp2423
S'<class gluon.rocket.FileWrapper at 0x969cb9c>'
p2424
asbasbasbag56
(g72
g58
NtRp2425
(dp2426
g61
(dp2427
sg70
g1978
sg63
(lp2428
g56
(g77
g58
NtRp2429
(dp2430
g61
(dp2431
g81
g82
ssg70
g2425
sg63
(lp2432
S'wsgi.input'
p2433
asbag56
(g77
g58
NtRp2434
(dp2435
g61
(dp2436
g88
g89
ssg70
g2425
sg63
(lp2437
S':'
asbag56
(g77
g58
NtRp2438
(dp2439
g61
(dp2440
sg70
g2425
sg63
(lp2441
g56
(g57
g58
NtRp2442
(dp2443
g61
(dp2444
g69
I3
ssg70
g2438
sg63
(lp2445
S'<cStringIO.StringO object at 0x9cdea00>'
p2446
asbasbasbag56
(g72
g58
NtRp2447
(dp2448
g61
(dp2449
sg70
g1978
sg63
(lp2450
g56
(g77
g58
NtRp2451
(dp2452
g61
(dp2453
g81
g82
ssg70
g2447
sg63
(lp2454
S'wsgi.multiprocess'
p2455
asbag56
(g77
g58
NtRp2456
(dp2457
g61
(dp2458
g88
g89
ssg70
g2447
sg63
(lp2459
S':'
asbag56
(g77
g58
NtRp2460
(dp2461
g61
(dp2462
sg70
g2447
sg63
(lp2463
g56
(g57
g58
NtRp2464
(dp2465
g61
(dp2466
g69
I3
ssg70
g2460
sg63
(lp2467
g99
asbasbasbag56
(g72
g58
NtRp2468
(dp2469
g61
(dp2470
sg70
g1978
sg63
(lp2471
g56
(g77
g58
NtRp2472
(dp2473
g61
(dp2474
g81
g82
ssg70
g2468
sg63
(lp2475
S'wsgi.multithread'
p2476
asbag56
(g77
g58
NtRp2477
(dp2478
g61
(dp2479
g88
g89
ssg70
g2468
sg63
(lp2480
S':'
asbag56
(g77
g58
NtRp2481
(dp2482
g61
(dp2483
sg70
g2468
sg63
(lp2484
g56
(g57
g58
NtRp2485
(dp2486
g61
(dp2487
g69
I3
ssg70
g2481
sg63
(lp2488
g1569
asbasbasbag56
(g72
g58
NtRp2489
(dp2490
g61
(dp2491
sg70
g1978
sg63
(lp2492
g56
(g77
g58
NtRp2493
(dp2494
g61
(dp2495
g81
g82
ssg70
g2489
sg63
(lp2496
S'wsgi.run_once'
p2497
asbag56
(g77
g58
NtRp2498
(dp2499
g61
(dp2500
g88
g89
ssg70
g2489
sg63
(lp2501
S':'
asbag56
(g77
g58
NtRp2502
(dp2503
g61
(dp2504
sg70
g2489
sg63
(lp2505
g56
(g57
g58
NtRp2506
(dp2507
g61
(dp2508
g69
I3
ssg70
g2502
sg63
(lp2509
g99
asbasbasbag56
(g72
g58
NtRp2510
(dp2511
g61
(dp2512
sg70
g1978
sg63
(lp2513
g56
(g77
g58
NtRp2514
(dp2515
g61
(dp2516
g81
g82
ssg70
g2510
sg63
(lp2517
S'wsgi.url_scheme'
p2518
asbag56
(g77
g58
NtRp2519
(dp2520
g61
(dp2521
g88
g89
ssg70
g2510
sg63
(lp2522
S':'
asbag56
(g77
g58
NtRp2523
(dp2524
g61
(dp2525
sg70
g2510
sg63
(lp2526
g56
(g57
g58
NtRp2527
(dp2528
g61
(dp2529
g69
I3
ssg70
g2523
sg63
(lp2530
g1612
asbasbasbag56
(g72
g58
NtRp2531
(dp2532
g61
(dp2533
sg70
g1978
sg63
(lp2534
g56
(g77
g58
NtRp2535
(dp2536
g61
(dp2537
g81
g82
ssg70
g2531
sg63
(lp2538
S'wsgi.version'
p2539
asbag56
(g77
g58
NtRp2540
(dp2541
g61
(dp2542
g88
g89
ssg70
g2531
sg63
(lp2543
S':'
asbag56
(g77
g58
NtRp2544
(dp2545
g61
(dp2546
sg70
g2531
sg63
(lp2547
g56
(g57
g58
NtRp2548
(dp2549
g61
(dp2550
g69
I3
ssg70
g2544
sg63
(lp2551
S'1'
asbasbasbasbasbasbasbasbasbasbasbasbasbsS'frames'
p2552
(lp2553
(dp2554
S'file'
p2555
S'/home/alumno/web2py/gluon/restricted.py'
p2556
sS'dump'
p2557
(dp2558
S'environment'
p2559
S"{'A': <class 'gluon.html.A'>, 'B': <class 'gluon.html.B'>, 'BEAUTIFY': <class 'gluon.html.BEAUTIFY'>, 'BODY': <class 'gluon.html.BODY'>, 'BR': <class 'gluon.html.BR'>, 'CENTER': <class 'gluon.html.CENTER'>, 'CLEANUP': <class 'gluon.validators.CLEANUP'>, 'CODE': <class 'gluon.html.CODE'>, 'CRYPT': <class 'gluon.validators.CRYPT'>, 'DAL': <class 'gluon.dal.DAL'>, ...}"
p2560
sS'ccode'
p2561
S'<code object <module> at 0x9ae12f0, file "/home/.../web2py/applications/datos/models/db.py", line 3>'
p2562
ssS'lnum'
p2563
I192
sS'lines'
p2564
(dp2565
I192
S'        exec ccode in environment'
p2566
sI193
S'    except HTTP:'
p2567
sI194
S'        raise'
p2568
sI195
S'    except Exception:'
p2569
sI196
S'        # XXX Show exception in Wing IDE if running in debugger'
p2570
sI187
S'    try:'
p2571
sI188
S'        if type(code) == types.CodeType:'
p2572
sI189
S'            ccode = code'
p2573
sI190
S'        else:'
p2574
sI191
S'            ccode = compile2(code,layer)'
p2575
ssS'call'
p2576
S'(code="# -*- coding: utf-8 -*-\\n\\ndb=DAL(\'sqlite://datos....IS_EMAIL()\\ndb.alumno.hobby.default=\'estudiar :P\'\\n", environment={\'A\': <class \'gluon.html.A\'>, \'B\': <class \'gluon.html.B\'>, \'BEAUTIFY\': <class \'gluon.html.BEAUTIFY\'>, \'BODY\': <class \'gluon.html.BODY\'>, \'BR\': <class \'gluon.html.BR\'>, \'CENTER\': <class \'gluon.html.CENTER\'>, \'CLEANUP\': <class \'gluon.validators.CLEANUP\'>, \'CODE\': <class \'gluon.html.CODE\'>, \'CRYPT\': <class \'gluon.validators.CRYPT\'>, \'DAL\': <class \'gluon.dal.DAL\'>, ...}, layer=\'/home/alumno/web2py/applications/datos/models/db.py\')'
p2577
sS'func'
p2578
S'restricted'
p2579
sa(dp2580
g2555
S'/home/alumno/web2py/applications/datos/models/db.py'
p2581
sg2557
(dp2582
S'db.alumno'
p2583
S"<Table {'apellidos': <gluon.dal.Field object at ...c>, 'id': <gluon.dal.Field object at 0x9ce8ecc>}>"
p2584
sS'IS_LENGHT'
p2585
S'undefined'
p2586
sS'db'
p2587
S"<DAL {'_migrate_enabled': True, '_lastsql': 'CRE...'_uri_hash': 'eb1dad4d662ce09be948e804719cfbad'}>"
p2588
sS'db.alumno.nombre'
p2589
S'<gluon.dal.Field object>'
p2590
sS'db.alumno.nombre.requires'
p2591
S'[<gluon.validators.IS_LENGTH object>]'
p2592
ssg2563
I12
sg2564
(dp2593
I7
S"                        Field('fnacimiento'),"
p2594
sI8
S"                        Field('email'),"
p2595
sI9
S"                        Field('hobby'))"
p2596
sI10
S''
sI11
S'db.alumno.codigo.requires=IS_NOT_EMPTY()'
p2597
sI12
S'db.alumno.nombre.requires=IS_LENGHT(100)'
p2598
sI13
S'db.alumno.apellidos.requires=IS_ALPHANUMERIC()'
p2599
sI14
S"db.alumno.fnacimiento.requires=IS_DATE('%Y-%m-%d')"
p2600
sI15
S'db.alumno.email.requires=IS_EMAIL()'
p2601
sI16
S"db.alumno.hobby.default='estudiar :P'"
p2602
ssg2576
S'()'
p2603
sg2578
S'<module>'
p2604
sasS'pyver'
p2605
S'Python 2.6.6: /usr/bin/python'
p2606
sS'session'
p2607
g56
(g57
g58
NtRp2608
(dp2609
g61
(dp2610
sg63
(lp2611
g56
(g65
g58
NtRp2612
(dp2613
g61
(dp2614
g69
I5
ssg70
Nsg63
(lp2615
sbasbsS'etype'
p2616
S"<type 'exceptions.NameError'>"
p2617
sS'date'
p2618
S'Wed Sep  7 19:07:18 2011'
p2619
sS'response'
p2620
g56
(g57
g58
NtRp2621
(dp2622
g61
(dp2623
sg63
(lp2624
g56
(g65
g58
NtRp2625
(dp2626
g61
(dp2627
g69
I5
ssg70
Nsg63
(lp2628
g56
(g72
g58
NtRp2629
(dp2630
g61
(dp2631
sg70
g2625
sg63
(lp2632
g56
(g77
g58
NtRp2633
(dp2634
g61
(dp2635
g81
g82
ssg70
g2629
sg63
(lp2636
g154
asbag56
(g77
g58
NtRp2637
(dp2638
g61
(dp2639
g88
g89
ssg70
g2629
sg63
(lp2640
S':'
asbag56
(g77
g58
NtRp2641
(dp2642
g61
(dp2643
sg70
g2629
sg63
(lp2644
g56
(g57
g58
NtRp2645
(dp2646
g61
(dp2647
g69
I5
ssg70
g2641
sg63
(lp2648
S'<cStringIO.StringO object at 0x9b1c6c0>'
p2649
asbasbasbag56
(g72
g58
NtRp2650
(dp2651
g61
(dp2652
sg70
g2625
sg63
(lp2653
g56
(g77
g58
NtRp2654
(dp2655
g61
(dp2656
g81
g82
ssg70
g2650
sg63
(lp2657
g220
asbag56
(g77
g58
NtRp2658
(dp2659
g61
(dp2660
g88
g89
ssg70
g2650
sg63
(lp2661
S':'
asbag56
(g77
g58
NtRp2662
(dp2663
g61
(dp2664
sg70
g2650
sg63
(lp2665
g56
(g57
g58
NtRp2666
(dp2667
g61
(dp2668
g69
I5
ssg70
g2662
sg63
(lp2669
g56
(g65
g58
NtRp2670
(dp2671
g61
(dp2672
g69
I4
ssg70
Nsg63
(lp2673
g56
(g72
g58
NtRp2674
(dp2675
g61
(dp2676
sg70
g2670
sg63
(lp2677
g56
(g77
g58
NtRp2678
(dp2679
g61
(dp2680
g81
g82
ssg70
g2674
sg63
(lp2681
S'session_id_datos'
p2682
asbag56
(g77
g58
NtRp2683
(dp2684
g61
(dp2685
g88
g89
ssg70
g2674
sg63
(lp2686
S':'
asbag56
(g77
g58
NtRp2687
(dp2688
g61
(dp2689
sg70
g2674
sg63
(lp2690
g56
(g57
g58
NtRp2691
(dp2692
g61
(dp2693
g69
I4
ssg70
g2687
sg63
(lp2694
g56
(g65
g58
NtRp2695
(dp2696
g61
(dp2697
g69
I3
ssg70
Nsg63
(lp2698
g56
(g72
g58
NtRp2699
(dp2700
g61
(dp2701
sg70
g2695
sg63
(lp2702
g56
(g77
g58
NtRp2703
(dp2704
g61
(dp2705
g81
g82
ssg70
g2699
sg63
(lp2706
g270
asbag56
(g77
g58
NtRp2707
(dp2708
g61
(dp2709
g88
g89
ssg70
g2699
sg63
(lp2710
S':'
asbag56
(g77
g58
NtRp2711
(dp2712
g61
(dp2713
sg70
g2699
sg63
(lp2714
g56
(g57
g58
NtRp2715
(dp2716
g61
(dp2717
g69
I3
ssg70
g2711
sg63
(lp2718
S''
asbasbasbag56
(g72
g58
NtRp2719
(dp2720
g61
(dp2721
sg70
g2695
sg63
(lp2722
g56
(g77
g58
NtRp2723
(dp2724
g61
(dp2725
g81
g82
ssg70
g2719
sg63
(lp2726
g291
asbag56
(g77
g58
NtRp2727
(dp2728
g61
(dp2729
g88
g89
ssg70
g2719
sg63
(lp2730
S':'
asbag56
(g77
g58
NtRp2731
(dp2732
g61
(dp2733
sg70
g2719
sg63
(lp2734
g56
(g57
g58
NtRp2735
(dp2736
g61
(dp2737
g69
I3
ssg70
g2731
sg63
(lp2738
S''
asbasbasbag56
(g72
g58
NtRp2739
(dp2740
g61
(dp2741
sg70
g2695
sg63
(lp2742
g56
(g77
g58
NtRp2743
(dp2744
g61
(dp2745
g81
g82
ssg70
g2739
sg63
(lp2746
g312
asbag56
(g77
g58
NtRp2747
(dp2748
g61
(dp2749
g88
g89
ssg70
g2739
sg63
(lp2750
S':'
asbag56
(g77
g58
NtRp2751
(dp2752
g61
(dp2753
sg70
g2739
sg63
(lp2754
g56
(g57
g58
NtRp2755
(dp2756
g61
(dp2757
g69
I3
ssg70
g2751
sg63
(lp2758
S''
asbasbasbag56
(g72
g58
NtRp2759
(dp2760
g61
(dp2761
sg70
g2695
sg63
(lp2762
g56
(g77
g58
NtRp2763
(dp2764
g61
(dp2765
g81
g82
ssg70
g2759
sg63
(lp2766
g333
asbag56
(g77
g58
NtRp2767
(dp2768
g61
(dp2769
g88
g89
ssg70
g2759
sg63
(lp2770
S':'
asbag56
(g77
g58
NtRp2771
(dp2772
g61
(dp2773
sg70
g2759
sg63
(lp2774
g56
(g57
g58
NtRp2775
(dp2776
g61
(dp2777
g69
I3
ssg70
g2771
sg63
(lp2778
S''
asbasbasbag56
(g72
g58
NtRp2779
(dp2780
g61
(dp2781
sg70
g2695
sg63
(lp2782
g56
(g77
g58
NtRp2783
(dp2784
g61
(dp2785
g81
g82
ssg70
g2779
sg63
(lp2786
g354
asbag56
(g77
g58
NtRp2787
(dp2788
g61
(dp2789
g88
g89
ssg70
g2779
sg63
(lp2790
S':'
asbag56
(g77
g58
NtRp2791
(dp2792
g61
(dp2793
sg70
g2779
sg63
(lp2794
g56
(g57
g58
NtRp2795
(dp2796
g61
(dp2797
g69
I3
ssg70
g2791
sg63
(lp2798
S''
asbasbasbag56
(g72
g58
NtRp2799
(dp2800
g61
(dp2801
sg70
g2695
sg63
(lp2802
g56
(g77
g58
NtRp2803
(dp2804
g61
(dp2805
g81
g82
ssg70
g2799
sg63
(lp2806
g375
asbag56
(g77
g58
NtRp2807
(dp2808
g61
(dp2809
g88
g89
ssg70
g2799
sg63
(lp2810
S':'
asbag56
(g77
g58
NtRp2811
(dp2812
g61
(dp2813
sg70
g2799
sg63
(lp2814
g56
(g57
g58
NtRp2815
(dp2816
g61
(dp2817
g69
I3
ssg70
g2811
sg63
(lp2818
S'/'
asbasbasbag56
(g72
g58
NtRp2819
(dp2820
g61
(dp2821
sg70
g2695
sg63
(lp2822
g56
(g77
g58
NtRp2823
(dp2824
g61
(dp2825
g81
g82
ssg70
g2819
sg63
(lp2826
g396
asbag56
(g77
g58
NtRp2827
(dp2828
g61
(dp2829
g88
g89
ssg70
g2819
sg63
(lp2830
S':'
asbag56
(g77
g58
NtRp2831
(dp2832
g61
(dp2833
sg70
g2819
sg63
(lp2834
g56
(g57
g58
NtRp2835
(dp2836
g61
(dp2837
g69
I3
ssg70
g2831
sg63
(lp2838
S''
asbasbasbag56
(g72
g58
NtRp2839
(dp2840
g61
(dp2841
sg70
g2695
sg63
(lp2842
g56
(g77
g58
NtRp2843
(dp2844
g61
(dp2845
g81
g82
ssg70
g2839
sg63
(lp2846
g417
asbag56
(g77
g58
NtRp2847
(dp2848
g61
(dp2849
g88
g89
ssg70
g2839
sg63
(lp2850
S':'
asbag56
(g77
g58
NtRp2851
(dp2852
g61
(dp2853
sg70
g2839
sg63
(lp2854
g56
(g57
g58
NtRp2855
(dp2856
g61
(dp2857
g69
I3
ssg70
g2851
sg63
(lp2858
S''
asbasbasbasbasbasbasbasbasbasbasbag56
(g72
g58
NtRp2859
(dp2860
g61
(dp2861
sg70
g2625
sg63
(lp2862
g56
(g77
g58
NtRp2863
(dp2864
g61
(dp2865
g81
g82
ssg70
g2859
sg63
(lp2866
S'files'
p2867
asbag56
(g77
g58
NtRp2868
(dp2869
g61
(dp2870
g88
g89
ssg70
g2859
sg63
(lp2871
S':'
asbag56
(g77
g58
NtRp2872
(dp2873
g61
(dp2874
sg70
g2859
sg63
(lp2875
g56
(g57
g58
NtRp2876
(dp2877
g61
(dp2878
g69
I5
ssg70
g2872
sg63
(lp2879
g56
(g65
g58
NtRp2880
(dp2881
g61
(dp2882
g69
I4
ssg70
Nsg63
(lp2883
sbasbasbasbag56
(g72
g58
NtRp2884
(dp2885
g61
(dp2886
sg70
g2625
sg63
(lp2887
g56
(g77
g58
NtRp2888
(dp2889
g61
(dp2890
g81
g82
ssg70
g2884
sg63
(lp2891
S'flash'
p2892
asbag56
(g77
g58
NtRp2893
(dp2894
g61
(dp2895
g88
g89
ssg70
g2884
sg63
(lp2896
S':'
asbag56
(g77
g58
NtRp2897
(dp2898
g61
(dp2899
sg70
g2884
sg63
(lp2900
g56
(g57
g58
NtRp2901
(dp2902
g61
(dp2903
g69
I5
ssg70
g2897
sg63
(lp2904
S''
asbasbasbag56
(g72
g58
NtRp2905
(dp2906
g61
(dp2907
sg70
g2625
sg63
(lp2908
g56
(g77
g58
NtRp2909
(dp2910
g61
(dp2911
g81
g82
ssg70
g2905
sg63
(lp2912
S'headers'
p2913
asbag56
(g77
g58
NtRp2914
(dp2915
g61
(dp2916
g88
g89
ssg70
g2905
sg63
(lp2917
S':'
asbag56
(g77
g58
NtRp2918
(dp2919
g61
(dp2920
sg70
g2905
sg63
(lp2921
g56
(g57
g58
NtRp2922
(dp2923
g61
(dp2924
g69
I5
ssg70
g2918
sg63
(lp2925
g56
(g65
g58
NtRp2926
(dp2927
g61
(dp2928
g69
I4
ssg70
Nsg63
(lp2929
g56
(g72
g58
NtRp2930
(dp2931
g61
(dp2932
sg70
g2926
sg63
(lp2933
g56
(g77
g58
NtRp2934
(dp2935
g61
(dp2936
g81
g82
ssg70
g2930
sg63
(lp2937
S'Cache-Control'
p2938
asbag56
(g77
g58
NtRp2939
(dp2940
g61
(dp2941
g88
g89
ssg70
g2930
sg63
(lp2942
S':'
asbag56
(g77
g58
NtRp2943
(dp2944
g61
(dp2945
sg70
g2930
sg63
(lp2946
g56
(g57
g58
NtRp2947
(dp2948
g61
(dp2949
g69
I4
ssg70
g2943
sg63
(lp2950
S'no-store, no-cache, must-revalidate, post-check=0, pre-check=0'
p2951
asbasbasbag56
(g72
g58
NtRp2952
(dp2953
g61
(dp2954
sg70
g2926
sg63
(lp2955
g56
(g77
g58
NtRp2956
(dp2957
g61
(dp2958
g81
g82
ssg70
g2952
sg63
(lp2959
S'Content-Type'
p2960
asbag56
(g77
g58
NtRp2961
(dp2962
g61
(dp2963
g88
g89
ssg70
g2952
sg63
(lp2964
S':'
asbag56
(g77
g58
NtRp2965
(dp2966
g61
(dp2967
sg70
g2952
sg63
(lp2968
g56
(g57
g58
NtRp2969
(dp2970
g61
(dp2971
g69
I4
ssg70
g2965
sg63
(lp2972
S'text/html; charset=utf-8'
p2973
asbasbasbag56
(g72
g58
NtRp2974
(dp2975
g61
(dp2976
sg70
g2926
sg63
(lp2977
g56
(g77
g58
NtRp2978
(dp2979
g61
(dp2980
g81
g82
ssg70
g2974
sg63
(lp2981
S'Expires'
p2982
asbag56
(g77
g58
NtRp2983
(dp2984
g61
(dp2985
g88
g89
ssg70
g2974
sg63
(lp2986
S':'
asbag56
(g77
g58
NtRp2987
(dp2988
g61
(dp2989
sg70
g2974
sg63
(lp2990
g56
(g57
g58
NtRp2991
(dp2992
g61
(dp2993
g69
I4
ssg70
g2987
sg63
(lp2994
S'Thu, 08 Sep 2011 00:07:18 GMT'
p2995
asbasbasbag56
(g72
g58
NtRp2996
(dp2997
g61
(dp2998
sg70
g2926
sg63
(lp2999
g56
(g77
g58
NtRp3000
(dp3001
g61
(dp3002
g81
g82
ssg70
g2996
sg63
(lp3003
S'Pragma'
p3004
asbag56
(g77
g58
NtRp3005
(dp3006
g61
(dp3007
g88
g89
ssg70
g2996
sg63
(lp3008
S':'
asbag56
(g77
g58
NtRp3009
(dp3010
g61
(dp3011
sg70
g2996
sg63
(lp3012
g56
(g57
g58
NtRp3013
(dp3014
g61
(dp3015
g69
I4
ssg70
g3009
sg63
(lp3016
S'no-cache'
p3017
asbasbasbag56
(g72
g58
NtRp3018
(dp3019
g61
(dp3020
sg70
g2926
sg63
(lp3021
g56
(g77
g58
NtRp3022
(dp3023
g61
(dp3024
g81
g82
ssg70
g3018
sg63
(lp3025
S'X-Powered-By'
p3026
asbag56
(g77
g58
NtRp3027
(dp3028
g61
(dp3029
g88
g89
ssg70
g3018
sg63
(lp3030
S':'
asbag56
(g77
g58
NtRp3031
(dp3032
g61
(dp3033
sg70
g3018
sg63
(lp3034
g56
(g57
g58
NtRp3035
(dp3036
g61
(dp3037
g69
I4
ssg70
g3031
sg63
(lp3038
S'web2py'
p3039
asbasbasbasbasbasbasbag56
(g72
g58
NtRp3040
(dp3041
g61
(dp3042
sg70
g2625
sg63
(lp3043
g56
(g77
g58
NtRp3044
(dp3045
g61
(dp3046
g81
g82
ssg70
g3040
sg63
(lp3047
S'menu'
p3048
asbag56
(g77
g58
NtRp3049
(dp3050
g61
(dp3051
g88
g89
ssg70
g3040
sg63
(lp3052
S':'
asbag56
(g77
g58
NtRp3053
(dp3054
g61
(dp3055
sg70
g3040
sg63
(lp3056
g56
(g57
g58
NtRp3057
(dp3058
g61
(dp3059
g69
I5
ssg70
g3053
sg63
(lp3060
g56
(g65
g58
NtRp3061
(dp3062
g61
(dp3063
g69
I4
ssg70
Nsg63
(lp3064
sbasbasbasbag56
(g72
g58
NtRp3065
(dp3066
g61
(dp3067
sg70
g2625
sg63
(lp3068
g56
(g77
g58
NtRp3069
(dp3070
g61
(dp3071
g81
g82
ssg70
g3065
sg63
(lp3072
S'meta'
p3073
asbag56
(g77
g58
NtRp3074
(dp3075
g61
(dp3076
g88
g89
ssg70
g3065
sg63
(lp3077
S':'
asbag56
(g77
g58
NtRp3078
(dp3079
g61
(dp3080
sg70
g3065
sg63
(lp3081
g56
(g57
g58
NtRp3082
(dp3083
g61
(dp3084
g69
I5
ssg70
g3078
sg63
(lp3085
g56
(g65
g58
NtRp3086
(dp3087
g61
(dp3088
g69
I4
ssg70
Nsg63
(lp3089
sbasbasbasbag56
(g72
g58
NtRp3090
(dp3091
g61
(dp3092
sg70
g2625
sg63
(lp3093
g56
(g77
g58
NtRp3094
(dp3095
g61
(dp3096
g81
g82
ssg70
g3090
sg63
(lp3097
S'postprocessing'
p3098
asbag56
(g77
g58
NtRp3099
(dp3100
g61
(dp3101
g88
g89
ssg70
g3090
sg63
(lp3102
S':'
asbag56
(g77
g58
NtRp3103
(dp3104
g61
(dp3105
sg70
g3090
sg63
(lp3106
g56
(g57
g58
NtRp3107
(dp3108
g61
(dp3109
g69
I5
ssg70
g3103
sg63
(lp3110
g56
(g65
g58
NtRp3111
(dp3112
g61
(dp3113
g69
I4
ssg70
Nsg63
(lp3114
sbasbasbasbag56
(g72
g58
NtRp3115
(dp3116
g61
(dp3117
sg70
g2625
sg63
(lp3118
g56
(g77
g58
NtRp3119
(dp3120
g61
(dp3121
g81
g82
ssg70
g3115
sg63
(lp3122
S'session_filename'
p3123
asbag56
(g77
g58
NtRp3124
(dp3125
g61
(dp3126
g88
g89
ssg70
g3115
sg63
(lp3127
S':'
asbag56
(g77
g58
NtRp3128
(dp3129
g61
(dp3130
sg70
g3115
sg63
(lp3131
g56
(g57
g58
NtRp3132
(dp3133
g61
(dp3134
g69
I5
ssg70
g3128
sg63
(lp3135
S'/home/alumno/web2py/applications/datos/sessions/127.0.0.1-e2bfaefc-4055-405d-b9db-f0f7a81d7d60'
p3136
asbasbasbag56
(g72
g58
NtRp3137
(dp3138
g61
(dp3139
sg70
g2625
sg63
(lp3140
g56
(g77
g58
NtRp3141
(dp3142
g61
(dp3143
g81
g82
ssg70
g3137
sg63
(lp3144
S'session_id'
p3145
asbag56
(g77
g58
NtRp3146
(dp3147
g61
(dp3148
g88
g89
ssg70
g3137
sg63
(lp3149
S':'
asbag56
(g77
g58
NtRp3150
(dp3151
g61
(dp3152
sg70
g3137
sg63
(lp3153
g56
(g57
g58
NtRp3154
(dp3155
g61
(dp3156
g69
I5
ssg70
g3150
sg63
(lp3157
S'127.0.0.1-e2bfaefc-4055-405d-b9db-f0f7a81d7d60'
p3158
asbasbasbag56
(g72
g58
NtRp3159
(dp3160
g61
(dp3161
sg70
g2625
sg63
(lp3162
g56
(g77
g58
NtRp3163
(dp3164
g61
(dp3165
g81
g82
ssg70
g3159
sg63
(lp3166
S'session_id_name'
p3167
asbag56
(g77
g58
NtRp3168
(dp3169
g61
(dp3170
g88
g89
ssg70
g3159
sg63
(lp3171
S':'
asbag56
(g77
g58
NtRp3172
(dp3173
g61
(dp3174
sg70
g3159
sg63
(lp3175
g56
(g57
g58
NtRp3176
(dp3177
g61
(dp3178
g69
I5
ssg70
g3172
sg63
(lp3179
g2682
asbasbasbag56
(g72
g58
NtRp3180
(dp3181
g61
(dp3182
sg70
g2625
sg63
(lp3183
g56
(g77
g58
NtRp3184
(dp3185
g61
(dp3186
g81
g82
ssg70
g3180
sg63
(lp3187
S'session_new'
p3188
asbag56
(g77
g58
NtRp3189
(dp3190
g61
(dp3191
g88
g89
ssg70
g3180
sg63
(lp3192
S':'
asbag56
(g77
g58
NtRp3193
(dp3194
g61
(dp3195
sg70
g3180
sg63
(lp3196
g56
(g57
g58
NtRp3197
(dp3198
g61
(dp3199
g69
I5
ssg70
g3193
sg63
(lp3200
g1569
asbasbasbag56
(g72
g58
NtRp3201
(dp3202
g61
(dp3203
sg70
g2625
sg63
(lp3204
g56
(g77
g58
NtRp3205
(dp3206
g61
(dp3207
g81
g82
ssg70
g3201
sg63
(lp3208
S'status'
p3209
asbag56
(g77
g58
NtRp3210
(dp3211
g61
(dp3212
g88
g89
ssg70
g3201
sg63
(lp3213
S':'
asbag56
(g77
g58
NtRp3214
(dp3215
g61
(dp3216
sg70
g3201
sg63
(lp3217
g56
(g57
g58
NtRp3218
(dp3219
g61
(dp3220
g69
I5
ssg70
g3214
sg63
(lp3221
S'200'
p3222
asbasbasbag56
(g72
g58
NtRp3223
(dp3224
g61
(dp3225
sg70
g2625
sg63
(lp3226
g56
(g77
g58
NtRp3227
(dp3228
g61
(dp3229
g81
g82
ssg70
g3223
sg63
(lp3230
g1893
asbag56
(g77
g58
NtRp3231
(dp3232
g61
(dp3233
g88
g89
ssg70
g3223
sg63
(lp3234
S':'
asbag56
(g77
g58
NtRp3235
(dp3236
g61
(dp3237
sg70
g3223
sg63
(lp3238
g56
(g57
g58
NtRp3239
(dp3240
g61
(dp3241
g69
I5
ssg70
g3235
sg63
(lp3242
g1906
asbasbasbag56
(g72
g58
NtRp3243
(dp3244
g61
(dp3245
sg70
g2625
sg63
(lp3246
g56
(g77
g58
NtRp3247
(dp3248
g61
(dp3249
g81
g82
ssg70
g3243
sg63
(lp3250
S'view'
p3251
asbag56
(g77
g58
NtRp3252
(dp3253
g61
(dp3254
g88
g89
ssg70
g3243
sg63
(lp3255
S':'
asbag56
(g77
g58
NtRp3256
(dp3257
g61
(dp3258
sg70
g3243
sg63
(lp3259
g56
(g57
g58
NtRp3260
(dp3261
g61
(dp3262
g69
I5
ssg70
g3256
sg63
(lp3263
S'appadmin/index.html'
p3264
asbasbasbasbasbsS'locals'
p3265
(dp3266
S'OBJECT'
p3267
S"<class 'gluon.html.OBJECT'>"
p3268
sS'SQLDB'
p3269
S"<class 'gluon.dal.DAL'>"
p3270
sg2607
S"<Storage {'_Session__hash': '\\xc8[\\xd5\\xc1#\\xd8e\\x10\\xe3\\x06\\x0ba\\xddT\\x92m'}>"
p3271
sS'LINK'
p3272
S"<class 'gluon.html.LINK'>"
p3273
sS'BR'
p3274
S"<class 'gluon.html.BR'>"
p3275
sS'local_import'
p3276
S'<function <lambda>>'
p3277
sS'OPTGROUP'
p3278
S"<class 'gluon.html.OPTGROUP'>"
p3279
sS'PRE'
p3280
S"<class 'gluon.html.PRE'>"
p3281
sS'IS_INT_IN_RANGE'
p3282
S"<class 'gluon.validators.IS_INT_IN_RANGE'>"
p3283
sS'IS_LOWER'
p3284
S"<class 'gluon.validators.IS_LOWER'>"
p3285
sS'IS_STRONG'
p3286
S"<class 'gluon.validators.IS_STRONG'>"
p3287
sS'cache'
p3288
S'<gluon.cache.Cache object>'
p3289
sS'IS_IN_DB'
p3290
S"<class 'gluon.validators.IS_IN_DB'>"
p3291
sS'TAG'
p3292
S'<gluon.html.__TAG__ object>'
p3293
sS'SQLField'
p3294
S"<class 'gluon.dal.Field'>"
p3295
sS'BODY'
p3296
S"<class 'gluon.html.BODY'>"
p3297
sS'IS_DATE_IN_RANGE'
p3298
S"<class 'gluon.validators.IS_DATE_IN_RANGE'>"
p3299
sS'IFRAME'
p3300
S"<class 'gluon.html.IFRAME'>"
p3301
sS'URL'
p3302
S'<function URL>'
p3303
sS'__file__'
p3304
S"'/home/alumno/web2py/applications/datos/models/db.py'"
p3305
sS'db'
p3306
S"<DAL {'_migrate_enabled': True, '_lastsql': 'CRE...'_uri_hash': 'eb1dad4d662ce09be948e804719cfbad'}>"
p3307
sS'P'
S"<class 'gluon.html.P'>"
p3308
sS'TFOOT'
p3309
S"<class 'gluon.html.TFOOT'>"
p3310
sS'XHTML'
p3311
S"<class 'gluon.html.XHTML'>"
p3312
sS'ON'
p3313
g1569
sS'OL'
p3314
S"<class 'gluon.html.OL'>"
p3315
sS'TEXTAREA'
p3316
S"<class 'gluon.html.TEXTAREA'>"
p3317
sS'MENU'
p3318
S"<class 'gluon.html.MENU'>"
p3319
sS'EM'
p3320
S"<class 'gluon.html.EM'>"
p3321
sS'CODE'
p3322
S"<class 'gluon.html.CODE'>"
p3323
sS'HTTP'
p3324
S"<class 'gluon.http.HTTP'>"
p3325
sS'HR'
p3326
S"<class 'gluon.html.HR'>"
p3327
sS'IS_DATETIME'
p3328
S"<class 'gluon.validators.IS_DATETIME'>"
p3329
sS'STYLE'
p3330
S"<class 'gluon.html.STYLE'>"
p3331
sS'LABEL'
p3332
S"<class 'gluon.html.LABEL'>"
p3333
sS'CLEANUP'
p3334
S"<class 'gluon.validators.CLEANUP'>"
p3335
sS'SELECT'
p3336
S"<class 'gluon.html.SELECT'>"
p3337
sS'CENTER'
p3338
S"<class 'gluon.html.CENTER'>"
p3339
sS'__builtins__'
p3340
S"{'ArithmeticError': <type 'exceptions.ArithmeticError'>, 'AssertionError': <type 'exceptions.AssertionError'>, 'AttributeError': <type 'exceptions.AttributeError'>, 'BaseException': <type 'exceptions.BaseException'>, 'BufferError': <type 'exceptions.BufferError'>, 'BytesWarning': <type 'exceptions.BytesWarning'>, 'DeprecationWarning': <type 'exceptions.DeprecationWarning'>, 'EOFError': <type 'exceptions.EOFError'>, 'Ellipsis': Ellipsis, 'EnvironmentError': <type 'exceptions.EnvironmentError'>, ...}"
p3341
sS'IS_LIST_OF'
p3342
S"<class 'gluon.validators.IS_LIST_OF'>"
p3343
sS'SQLFORM'
p3344
S"<class 'gluon.sqlhtml.SQLFORM'>"
p3345
sS'LOAD'
p3346
S'<gluon.compileapp.LoadFactory object>'
p3347
sS'redirect'
p3348
S'<function redirect>'
p3349
sS'FIELDSET'
p3350
S"<class 'gluon.html.FIELDSET'>"
p3351
sS'IS_EQUAL_TO'
p3352
S"<class 'gluon.validators.IS_EQUAL_TO'>"
p3353
sS'embed64'
p3354
S'<function embed64>'
p3355
sS'INPUT'
p3356
S"<class 'gluon.html.INPUT'>"
p3357
sS'EMBED'
p3358
S"<class 'gluon.html.EMBED'>"
p3359
sS'FORM'
p3360
S"<class 'gluon.html.FORM'>"
p3361
sS'H2'
p3362
S"<class 'gluon.html.H2'>"
p3363
sS'H3'
p3364
S"<class 'gluon.html.H3'>"
p3365
sS'H1'
p3366
S"<class 'gluon.html.H1'>"
p3367
sS'H6'
p3368
S"<class 'gluon.html.H6'>"
p3369
sS'H4'
p3370
S"<class 'gluon.html.H4'>"
p3371
sS'H5'
p3372
S"<class 'gluon.html.H5'>"
p3373
sS'UL'
p3374
S"<class 'gluon.html.UL'>"
p3375
sS'IS_UPPER'
p3376
S"<class 'gluon.validators.IS_UPPER'>"
p3377
sS'xmlescape'
p3378
S'<function xmlescape>'
p3379
sS'IS_TIME'
p3380
S"<class 'gluon.validators.IS_TIME'>"
p3381
sS'OPTION'
p3382
S"<class 'gluon.html.OPTION'>"
p3383
sS'TITLE'
p3384
S"<class 'gluon.html.TITLE'>"
p3385
sS'CRYPT'
p3386
S"<class 'gluon.validators.CRYPT'>"
p3387
sS'IS_EMPTY_OR'
p3388
S"<class 'gluon.validators.IS_EMPTY_OR'>"
p3389
sS'MARKMIN'
p3390
S"<class 'gluon.html.MARKMIN'>"
p3391
sS'SCRIPT'
p3392
S"<class 'gluon.html.SCRIPT'>"
p3393
sS'TABLE'
p3394
S"<class 'gluon.html.TABLE'>"
p3395
sS'IS_IPV4'
p3396
S"<class 'gluon.validators.IS_IPV4'>"
p3397
sS'IS_LENGTH'
p3398
S"<class 'gluon.validators.IS_LENGTH'>"
p3399
sS'XML'
p3400
S"<class 'gluon.html.XML'>"
p3401
sS'B'
S"<class 'gluon.html.B'>"
p3402
sS'IMG'
p3403
S"<class 'gluon.html.IMG'>"
p3404
sS'SQLTABLE'
p3405
S"<class 'gluon.sqlhtml.SQLTABLE'>"
p3406
sS'IS_MATCH'
p3407
S"<class 'gluon.validators.IS_MATCH'>"
p3408
sS'IS_ALPHANUMERIC'
p3409
S"<class 'gluon.validators.IS_ALPHANUMERIC'>"
p3410
sS'SPAN'
p3411
S"<class 'gluon.html.SPAN'>"
p3412
sS'IS_SLUG'
p3413
S"<class 'gluon.validators.IS_SLUG'>"
p3414
sS'BEAUTIFY'
p3415
S"<class 'gluon.html.BEAUTIFY'>"
p3416
sS'META'
p3417
S"<class 'gluon.html.META'>"
p3418
sS'IS_DATE'
p3419
S"<class 'gluon.validators.IS_DATE'>"
p3420
sS'IS_EMAIL'
p3421
S"<class 'gluon.validators.IS_EMAIL'>"
p3422
sS'IS_NOT_EMPTY'
p3423
S"<class 'gluon.validators.IS_NOT_EMPTY'>"
p3424
sS'IS_FLOAT_IN_RANGE'
p3425
S"<class 'gluon.validators.IS_FLOAT_IN_RANGE'>"
p3426
sS'TBODY'
p3427
S"<class 'gluon.html.TBODY'>"
p3428
sS'Field'
p3429
S"<class 'gluon.dal.Field'>"
p3430
sS'DIV'
p3431
S"<class 'gluon.html.DIV'>"
p3432
sS'LEGEND'
p3433
S"<class 'gluon.html.LEGEND'>"
p3434
sS'DAL'
p3435
S"<class 'gluon.dal.DAL'>"
p3436
sS'TT'
p3437
S"<class 'gluon.html.TT'>"
p3438
sS'TR'
p3439
S"<class 'gluon.html.TR'>"
p3440
sS'LI'
p3441
S"<class 'gluon.html.LI'>"
p3442
sS'TH'
p3443
S"<class 'gluon.html.TH'>"
p3444
sS'TD'
p3445
S"<class 'gluon.html.TD'>"
p3446
sS'IS_URL'
p3447
S"<class 'gluon.validators.IS_URL'>"
p3448
sS'A'
S"<class 'gluon.html.A'>"
p3449
sS'HEAD'
p3450
S"<class 'gluon.html.HEAD'>"
p3451
sS'IS_DATETIME_IN_RANGE'
p3452
S"<class 'gluon.validators.IS_DATETIME_IN_RANGE'>"
p3453
sS'HTML'
p3454
S"<class 'gluon.html.HTML'>"
p3455
sS'IS_IMAGE'
p3456
S"<class 'gluon.validators.IS_IMAGE'>"
p3457
sS'I'
S"<class 'gluon.html.I'>"
p3458
sS'IS_NOT_IN_DB'
p3459
S"<class 'gluon.validators.IS_NOT_IN_DB'>"
p3460
sg2620
S"<Storage {'status': 200, 'body': <cStringIO.Stri...os', 'files': [], 'view': 'appadmin/index.html'}>"
p3461
sS'THEAD'
p3462
S"<class 'gluon.html.THEAD'>"
p3463
sS'IS_NULL_OR'
p3464
S"<class 'gluon.validators.IS_EMPTY_OR'>"
p3465
sg55
S"<Storage {'is_local': True, 'function': 'index',....19-07-18.1b59a008-bf5d-4ae2-a4ed-55ae267b1ac7'}>"
p3466
sS'IS_EXPR'
p3467
S"<class 'gluon.validators.IS_EXPR'>"
p3468
sS'IS_IN_SET'
p3469
S"<class 'gluon.validators.IS_IN_SET'>"
p3470
sS'IS_UPLOAD_FILENAME'
p3471
S"<class 'gluon.validators.IS_UPLOAD_FILENAME'>"
p3472
sS'IS_DECIMAL_IN_RANGE'
p3473
S"<class 'gluon.validators.IS_DECIMAL_IN_RANGE'>"
p3474
sS'T'
S'<gluon.languages.translator object>'
p3475
sssS'traceback'
p3476
S'Traceback (most recent call last):\n  File "/home/alumno/web2py/gluon/restricted.py", line 192, in restricted\n    exec ccode in environment\n  File "/home/alumno/web2py/applications/datos/models/db.py", line 12, in <module>\n    db.alumno.nombre.requires=IS_LENGHT(100)\nNameError: name \'IS_LENGHT\' is not defined\n'
p3477
s.