(dp1
S'output'
p2
S''
sS'layer'
p3
S'/home/alumno/web2py/applications/datos/views/default/detalle.html'
p4
sS'code'
p5
S'response.write(\'<!DOCTYPE html>\\n<html lang="\', escape=False)\nresponse.write(T.accepted_language or \'en\')\nresponse.write(\'" class="no-js"><!-- no-js need it for modernzr -->\\n  <head>\\n    \\n    <meta charset="utf-8" />\\t  \\t\\n    <!-- www.phpied.com/conditional-comments-block-downloads/ -->\\n    <!--[if IE]><![endif]-->    \\n    <!-- Always force latest IE rendering engine \\n\\t (even in intranet) & Chrome Frame \\n\\t Remove this if you use the .htaccess -->\\n    <meta http-equiv="X-UA-Compatible" content="IE=edge,chrome=1">\\n    \\n    <title>\', escape=False)\nresponse.write(response.title or request.application)\nresponse.write(\'</title>\\n    \\n    <!-- http://dev.w3.org/html5/markup/meta.name.html -->\\n    <meta name="application-name" content="\', escape=False)\nresponse.write(request.application)\nresponse.write(\'" />\\t\\n    \\n    <!-- Speaking of Google, don\\\'t forget to set your site up: \\n\\t http://google.com/webmasters -->\\n    <meta name="google-site-verification" content="" />\\n    \\n    <!--  Mobile Viewport Fix\\n\\t  j.mp/mobileviewport & davidbcalhoun.com/2010/viewport-metatag \\n\\t  device-width: Occupy full width of the screen in its current orientation\\n\\t  initial-scale = 1.0 retains dimensions instead of zooming out if page height > device height\\n\\t  maximum-scale = 1.0 retains dimensions instead of zooming in if page width < device width\\n      -->\\n    <meta name="viewport" content="width=device-width; initial-scale=1.0; maximum-scale=1.0">\\n    \\n    <!-- Place favicon.ico and apple-touch-icon.png in the root of your domain and delete these references -->\\n    <link rel="shortcut icon" href="\', escape=False)\nresponse.write(URL(\'static\',\'favicon.ico\'))\nresponse.write(\'" type="image/x-icon">\\n    <link rel="apple-touch-icon" href="\', escape=False)\nresponse.write(URL(\'static\',\'favicon.png\'))\nresponse.write(\'">\\n\\n    <!-- For the less-enabled mobile browsers like Opera Mini -->\\n    <link rel="stylesheet" media="handheld" href="\', escape=False)\nresponse.write(URL(\'static\',\'css/handheld.css\'))\nresponse.write(\'">\\n    \\n    <!-- All JavaScript at the bottom, except for Modernizr which enables HTML5 elements & feature detects -->\\n    <script src="\', escape=False)\nresponse.write(URL(\'static\',\'js/modernizr-1.7.min.js\'))\nresponse.write(\'"></script>\\n    \\n    \', escape=False)\n#------  require CSS and JS files for this page (read info in base.css) ------\nresponse.write(\'\\n    \', escape=False)\nresponse.files.append(URL(\'static\',\'css/base.css\'))\nresponse.write(\'\\n    \', escape=False)\nresponse.files.append(URL(\'static\',\'css/superfish.css\'))\nresponse.write(\'\\n    \', escape=False)\nresponse.files.append(URL(\'static\',\'js/superfish.js\'))\nresponse.write(\'\\n    \', escape=False)\n#------ include web2py specific js code (jquery, calendar, form stuff) ------\nresponse.write(\'\\n    \', escape=False)\nresponse.files.insert(0,URL(\'static\',\'js/jquery.js\'))\nresponse.files.insert(1,URL(\'static\',\'css/calendar.css\'))\nresponse.files.insert(2,URL(\'static\',\'js/calendar.js\'))\nfor _item in response.meta or []:\n    response.write(\'\\n     <meta name="\', escape=False)\n    response.write(_item)\n    response.write(\'" content="\', escape=False)\n    response.write(response.meta[_item])\n    response.write(\'" />\', escape=False)\n    pass\nfor _k,_file in enumerate(response.files or []):\n    if _file in response.files[:_k]:\n        continue\n    _file0=_file.lower().split(\'?\')[0]\n    if _file0.endswith(\'.css\'):\n        response.write(\'\\n     <link href="\', escape=False)\n        response.write(_file)\n        response.write(\'" rel="stylesheet" type="text/css" />\', escape=False)\n    elif _file0.endswith(\'.js\'):\n        response.write(\'\\n     <script src="\', escape=False)\n        response.write(_file)\n        response.write(\'" type="text/javascript"></script>\', escape=False)\n        pass\n    pass\nresponse.write(\'\\n    <script type="text/javascript"><!--\\n    // These variables are used by the web2py_ajax_init function in web2py_ajax.js (which is loaded below).\\n    var w2p_ajax_confirm_message = "\', escape=False)\nresponse.write(T(\'Are you sure you want to delete this object?\'))\nresponse.write(\'";\\n    var w2p_ajax_date_format = "\', escape=False)\nresponse.write(T(\'%Y-%m-%d\'))\nresponse.write(\'";\\n    var w2p_ajax_datetime_format = "\', escape=False)\nresponse.write(T(\'%Y-%m-%d %H:%M:%S\'))\nresponse.write(\'";\\n    //--></script>\\n    <script src="\', escape=False)\nresponse.write(URL(\'static\',\'js/web2py_ajax.js\'))\nresponse.write(\'" type="text/javascript"></script>\\n\', escape=False)\nresponse.write(\'\\n\\n    \', escape=False)\n#using sidebars need to know what sidebar you want to use\n#prior of using it, because of static width size of content, you can use\n#left_sidebar, right_sidebar, both or none (False left and right)\nleft_sidebar_enabled = globals().get(\'left_sidebar_enabled\',False)\nright_sidebar_enabled = globals().get(\'right_sidebar_enabled\',False)\nif left_sidebar_enabled and right_sidebar_enabled: width_content=\'63%\'\nelif left_sidebar_enabled != right_sidebar_enabled: width_content=\'740px\'\nelse: width_content=\'100%\'\nif left_sidebar_enabled: left_sidebar_style = \'style="display: block;"\'\nelse: left_sidebar_style = \'style="display: none;"\'\nif right_sidebar_enabled: right_sidebar_style = \'style="display: block;"\'\nelse: right_sidebar_style = \'style="display: none;"\'\nstyle_content = \'style="width: %s"\' % width_content\nresponse.write(\'\\n  </head>\\n  \\n  <!-- paulirish.com/2008/conditional-stylesheets-vs-css-hacks-answer-neither/ -->\\t\\n  <!--[if lt IE 7 ]> <body class="ie6"> <![endif]-->\\n  <!--[if IE 7 ]>    <body class="ie7"> <![endif]-->\\n  <!--[if IE 8 ]>    <body class="ie8"> <![endif]-->\\n  <!--[if IE 9 ]>    <body class="ie9"> <![endif]-->\\n  <!--[if (gt IE 9)|!(IE)]><!--> <body> <!--<![endif]-->\\n    \\n    <div class="flash">\', escape=False)\nresponse.write(response.flash or \'\')\nresponse.write(\'</div> <!-- notification div -->\\n    \\n    <div id="container">\\t      \\t\\t      \\t\\n      \\n      <div id="wrapper">\\t\\t\\n\\t\\n\\t<div id="header"> <!-- header and login nav -->\\n\\t  \', escape=False)\nresponse.write(\' <!-- this is default header -->\\n\\t  \', escape=False)\ntry:\n    response.write(auth.navbar(action=URL(\'default\',\'user\')))\nexcept:pass\nresponse.write(\'\\t\\t          \\n\\t  <h1><span id="appname">\', escape=False)\nresponse.write(request.application.capitalize())\nresponse.write(\'</span>App</h1>\\n\\t  <div style="clear: both;"></div><!-- Clear the divs -->\\n\\t  \', escape=False)\nresponse.write(\'\\t\\t\\t\\t  \\t\\t\\t\\t\\t  \\n\\t</div><!-- header  -->\\n\\t\\n\\t<div id="statusbar"><!-- statusbar is menu zone -->\\n\\t  \', escape=False)\nresponse.write(\' <!-- this is default statusbar -->\\n\\t  \', escape=False)\n#------ superfish menu ------\nresponse.write(\'\\n\\t  \', escape=False)\nresponse.write(MENU(response.menu,_class=\'sf-menu\'))\nresponse.write(\'\\n\\t  <script type="text/javascript">\\n\\t    jQuery(document).ready(function(){\\n\\t    jQuery(\\\'ul.sf-menu\\\').superfish();});\\n\\t  </script>\\n\\t  <div style="clear: both;"></div><!-- Clear the divs -->\\t\\n\\t  \', escape=False)\nresponse.write(\'\\t\\t\\t\\t\\n\\t</div><!-- statusbar -->\\n\\t\\n\\t<div id="page"> <!-- Here my central body -->\\t  \\n\\n\\t  \', escape=False)\nif left_sidebar_enabled:\n    response.write(\'\\n          <div id="left_sidebar" \', escape=False)\n    response.write(XML(left_sidebar_style))\n    response.write(\' >\\n            <div style="padding: 4px;">\\n\\t      \', escape=False)\n    response.write(\'Content Left Sidebar\', escape=False)\n    response.write(\'\\t\\t  \\n            </div>\\n          </div><!-- left_sidebar -->\\n\\t  \', escape=False)\n    pass\nresponse.write(\'\\n\\n\\t  <!-- content -->\\n\\t  <div id="content" \', escape=False)\nresponse.write(XML(style_content))\nresponse.write(\' >\\n\\t    \', escape=False)\nresponse.write(\'\\n\\n\', escape=False)\nfor dato in alumno:\n    response.write(\'\\n    <h1>\', escape=False)\n    response.write(dato.nombre)\n    response.write(\' \', escape=False)\n    dato.apellidos\n    response.write(\'</h1>\\n    <h2>codigo estudiante: \', escape=False)\n    data.codigo\n    response.write(\'</h2>\\n    <p>\\n    \', escape=False)\n    response.write(dato.nombre)\n    response.write(\' nacio el \', escape=False)\n    dato.fnacimiento\n    response.write(\'.\\n    tiene como pasatiempo \', escape=False)\n    dato.hobby\n    response.write(".<br>\\n    su correo electronico es:\\n    <strong><a href=\'mailto:", escape=False)\n    response.write(dato.email)\n    response.write("\'>", escape=False)\n    dato.email\n    response.write(\'</a></strong>\\n    </p>\\n    \\n\', escape=False)\n    pass\nresponse.write(\'\\n\', escape=False)\nresponse.write(\'\\t\\n\\t  </div>\\n\\t  <!-- content -->\\n\\n\\t  \', escape=False)\nif right_sidebar_enabled:\n    response.write(\'\\n          <div id="right_sidebar" \', escape=False)\n    response.write(XML(right_sidebar_style))\n    response.write(\' >\\n            <div style="padding: 4px;">\\n              \', escape=False)\n    response.write(\'Content Right Sidebar\', escape=False)\n    response.write(\'\\n            </div>\\n\\t  </div><!-- right_sidebar -->\\n          \', escape=False)\n    pass\nresponse.write(\'\\n\\n\\n\\t  <div style="clear: both;"></div><!-- Clear the divs -->\\n\\t  \\n\\t</div><!-- page -->\\t\\t\\t\\t\\t\\t\\t\\n\\t\\n\\t<div id="footer">\\n\\t  \', escape=False)\nresponse.write(\' <!-- this is default footer -->\\n\\t  <a href="http://www.web2py.com/" style="float: left; padding-right: 6px;">\\n\\t    <img src="\', escape=False)\nresponse.write(URL(\'static\',\'images/poweredby.png\'))\nresponse.write(\'"/>\\n\\t  </a>\\n\\t  \', escape=False)\nresponse.write(T(\'Copyright\'))\nresponse.write(\' &#169; 2010\\t\\t\\t\\t\\n\\t  <div style="clear: both;"></div><!-- Clear the divs -->\\n\\t  \', escape=False)\nresponse.write(\'\\n\\n\\t</div><!-- footer -->\\t\\t\\t\\n      </div><!-- wrapper -->\\n    </div><!-- container -->\\t\\t\\n    \\n    <!--[if lt IE 7 ]>\\n\\t<script src="\', escape=False)\nresponse.write(URL(\'static\',\'js/dd_belatedpng.js\'))\nresponse.write(\'"></script>\\n\\t<script> DD_belatedPNG.fix(\\\'img, .png_bg\\\'); //fix any <img> or .png_bg background-images </script>\\n\\t<![endif]-->\\n    \\n    <!-- asynchronous google analytics: mathiasbynens.be/notes/async-analytics-snippet \\n\\t change the UA-XXXXX-X to be your site\\\'s ID -->\\n    <!--   \\n\\t   <script>\\n\\t     var _gaq = [[\\\'_setAccount\\\', \\\'UA-XXXXX-X\\\'], [\\\'_trackPageview\\\']];\\n\\t     (function(d, t) {\\n\\t     var g = d.createElement(t),\\n\\t     s = d.getElementsByTagName(t)[0];\\n\\t     g.async = true;\\n\\t     g.src = \\\'//www.google-analytics.com/ga.js\\\';\\n\\t     s.parentNode.insertBefore(g, s);\\n\\t     })(document, \\\'script\\\');\\n\\t   </script>\\n\\t   -->    \\n  </body>\\n</html>\\n\', escape=False)'
p6
sS'snapshot'
p7
(dp8
S'exception'
p9
(dp10
S'__hash__'
p11
S"<method-wrapper '__hash__' of exceptions.NameError object>"
p12
sS'__setattr__'
p13
S"<method-wrapper '__setattr__' of exceptions.NameError object>"
p14
sS'__reduce_ex__'
p15
S'<built-in method __reduce_ex__ of exceptions.NameError object>'
p16
sS'__getslice__'
p17
S"<method-wrapper '__getslice__' of exceptions.NameError object>"
p18
sS'__getitem__'
p19
S"<method-wrapper '__getitem__' of exceptions.NameError object>"
p20
sS'__setstate__'
p21
S'<built-in method __setstate__ of exceptions.NameError object>'
p22
sS'__reduce__'
p23
S'<built-in method __reduce__ of exceptions.NameError object>'
p24
sS'__str__'
p25
S"<method-wrapper '__str__' of exceptions.NameError object>"
p26
sS'__format__'
p27
S'<built-in method __format__ of exceptions.NameError object>'
p28
sS'__getattribute__'
p29
S"<method-wrapper '__getattribute__' of exceptions.NameError object>"
p30
sS'__class__'
p31
S"<type 'exceptions.NameError'>"
p32
sS'__unicode__'
p33
S'<built-in method __unicode__ of exceptions.NameError object>'
p34
sS'__delattr__'
p35
S"<method-wrapper '__delattr__' of exceptions.NameError object>"
p36
sS'__subclasshook__'
p37
S'<built-in method __subclasshook__ of type object>'
p38
sS'__repr__'
p39
S"<method-wrapper '__repr__' of exceptions.NameError object>"
p40
sS'args'
p41
S'("name \'data\' is not defined",)'
p42
sS'__dict__'
p43
S'{}'
p44
sS'__sizeof__'
p45
S'<built-in method __sizeof__ of exceptions.NameError object>'
p46
sS'__doc__'
p47
S"'Name not found globally.'"
p48
sS'__init__'
p49
S"<method-wrapper '__init__' of exceptions.NameError object>"
p50
sS'__new__'
p51
S'<built-in method __new__ of type object>'
p52
ssS'evalue'
p53
S"name 'data' is not defined"
p54
sS'request'
p55
ccopy_reg
_reconstructor
p56
(cgluon.html
BEAUTIFY
p57
c__builtin__
object
p58
NtRp59
(dp60
S'attributes'
p61
(dp62
sS'components'
p63
(lp64
g56
(cgluon.html
TABLE
p65
g58
NtRp66
(dp67
g61
(dp68
S'level'
p69
I5
ssS'parent'
p70
Nsg63
(lp71
g56
(cgluon.html
TR
p72
g58
NtRp73
(dp74
g61
(dp75
sg70
g66
sg63
(lp76
g56
(cgluon.html
TD
p77
g58
NtRp78
(dp79
g61
(dp80
S'_style'
p81
S'font-weight:bold;'
p82
ssg70
g73
sg63
(lp83
S'ajax'
p84
asbag56
(g77
g58
NtRp85
(dp86
g61
(dp87
S'_valign'
p88
S'top'
p89
ssg70
g73
sg63
(lp90
S':'
asbag56
(g77
g58
NtRp91
(dp92
g61
(dp93
sg70
g73
sg63
(lp94
g56
(g57
g58
NtRp95
(dp96
g61
(dp97
g69
I5
ssg70
g91
sg63
(lp98
S'False'
p99
asbasbasbag56
(g72
g58
NtRp100
(dp101
g61
(dp102
sg70
g66
sg63
(lp103
g56
(g77
g58
NtRp104
(dp105
g61
(dp106
g81
g82
ssg70
g100
sg63
(lp107
S'application'
p108
asbag56
(g77
g58
NtRp109
(dp110
g61
(dp111
g88
g89
ssg70
g100
sg63
(lp112
S':'
asbag56
(g77
g58
NtRp113
(dp114
g61
(dp115
sg70
g100
sg63
(lp116
g56
(g57
g58
NtRp117
(dp118
g61
(dp119
g69
I5
ssg70
g113
sg63
(lp120
S'datos'
p121
asbasbasbag56
(g72
g58
NtRp122
(dp123
g61
(dp124
sg70
g66
sg63
(lp125
g56
(g77
g58
NtRp126
(dp127
g61
(dp128
g81
g82
ssg70
g122
sg63
(lp129
g41
asbag56
(g77
g58
NtRp130
(dp131
g61
(dp132
g88
g89
ssg70
g122
sg63
(lp133
S':'
asbag56
(g77
g58
NtRp134
(dp135
g61
(dp136
sg70
g122
sg63
(lp137
g56
(g57
g58
NtRp138
(dp139
g61
(dp140
g69
I5
ssg70
g134
sg63
(lp141
g56
(g65
g58
NtRp142
(dp143
g61
(dp144
g69
I4
ssg70
Nsg63
(lp145
g56
(g72
g58
NtRp146
(dp147
g61
(dp148
sg70
g142
sg63
(lp149
g56
(g77
g58
NtRp150
(dp151
g61
(dp152
sg70
g146
sg63
(lp153
g56
(g57
g58
NtRp154
(dp155
g61
(dp156
g69
I4
ssg70
g150
sg63
(lp157
S'a001'
p158
asbasbasbasbasbasbasbag56
(g72
g58
NtRp159
(dp160
g61
(dp161
sg70
g66
sg63
(lp162
g56
(g77
g58
NtRp163
(dp164
g61
(dp165
g81
g82
ssg70
g159
sg63
(lp166
S'body'
p167
asbag56
(g77
g58
NtRp168
(dp169
g61
(dp170
g88
g89
ssg70
g159
sg63
(lp171
S':'
asbag56
(g77
g58
NtRp172
(dp173
g61
(dp174
sg70
g159
sg63
(lp175
g56
(g57
g58
NtRp176
(dp177
g61
(dp178
g69
I5
ssg70
g172
sg63
(lp179
S'<cStringIO.StringO object at 0x97f9960>'
p180
asbasbasbag56
(g72
g58
NtRp181
(dp182
g61
(dp183
sg70
g66
sg63
(lp184
g56
(g77
g58
NtRp185
(dp186
g61
(dp187
g81
g82
ssg70
g181
sg63
(lp188
S'client'
p189
asbag56
(g77
g58
NtRp190
(dp191
g61
(dp192
g88
g89
ssg70
g181
sg63
(lp193
S':'
asbag56
(g77
g58
NtRp194
(dp195
g61
(dp196
sg70
g181
sg63
(lp197
g56
(g57
g58
NtRp198
(dp199
g61
(dp200
g69
I5
ssg70
g194
sg63
(lp201
S'127.0.0.1'
p202
asbasbasbag56
(g72
g58
NtRp203
(dp204
g61
(dp205
sg70
g66
sg63
(lp206
g56
(g77
g58
NtRp207
(dp208
g61
(dp209
g81
g82
ssg70
g203
sg63
(lp210
S'controller'
p211
asbag56
(g77
g58
NtRp212
(dp213
g61
(dp214
g88
g89
ssg70
g203
sg63
(lp215
S':'
asbag56
(g77
g58
NtRp216
(dp217
g61
(dp218
sg70
g203
sg63
(lp219
g56
(g57
g58
NtRp220
(dp221
g61
(dp222
g69
I5
ssg70
g216
sg63
(lp223
S'default'
p224
asbasbasbag56
(g72
g58
NtRp225
(dp226
g61
(dp227
sg70
g66
sg63
(lp228
g56
(g77
g58
NtRp229
(dp230
g61
(dp231
g81
g82
ssg70
g225
sg63
(lp232
S'cookies'
p233
asbag56
(g77
g58
NtRp234
(dp235
g61
(dp236
g88
g89
ssg70
g225
sg63
(lp237
S':'
asbag56
(g77
g58
NtRp238
(dp239
g61
(dp240
sg70
g225
sg63
(lp241
g56
(g57
g58
NtRp242
(dp243
g61
(dp244
g69
I5
ssg70
g238
sg63
(lp245
g56
(g65
g58
NtRp246
(dp247
g61
(dp248
g69
I4
ssg70
Nsg63
(lp249
g56
(g72
g58
NtRp250
(dp251
g61
(dp252
sg70
g246
sg63
(lp253
g56
(g77
g58
NtRp254
(dp255
g61
(dp256
g81
g82
ssg70
g250
sg63
(lp257
S'session_id_about_me'
p258
asbag56
(g77
g58
NtRp259
(dp260
g61
(dp261
g88
g89
ssg70
g250
sg63
(lp262
S':'
asbag56
(g77
g58
NtRp263
(dp264
g61
(dp265
sg70
g250
sg63
(lp266
g56
(g57
g58
NtRp267
(dp268
g61
(dp269
g69
I4
ssg70
g263
sg63
(lp270
g56
(g65
g58
NtRp271
(dp272
g61
(dp273
g69
I3
ssg70
Nsg63
(lp274
g56
(g72
g58
NtRp275
(dp276
g61
(dp277
sg70
g271
sg63
(lp278
g56
(g77
g58
NtRp279
(dp280
g61
(dp281
g81
g82
ssg70
g275
sg63
(lp282
S'comment'
p283
asbag56
(g77
g58
NtRp284
(dp285
g61
(dp286
g88
g89
ssg70
g275
sg63
(lp287
S':'
asbag56
(g77
g58
NtRp288
(dp289
g61
(dp290
sg70
g275
sg63
(lp291
g56
(g57
g58
NtRp292
(dp293
g61
(dp294
g69
I3
ssg70
g288
sg63
(lp295
S''
asbasbasbag56
(g72
g58
NtRp296
(dp297
g61
(dp298
sg70
g271
sg63
(lp299
g56
(g77
g58
NtRp300
(dp301
g61
(dp302
g81
g82
ssg70
g296
sg63
(lp303
S'domain'
p304
asbag56
(g77
g58
NtRp305
(dp306
g61
(dp307
g88
g89
ssg70
g296
sg63
(lp308
S':'
asbag56
(g77
g58
NtRp309
(dp310
g61
(dp311
sg70
g296
sg63
(lp312
g56
(g57
g58
NtRp313
(dp314
g61
(dp315
g69
I3
ssg70
g309
sg63
(lp316
S''
asbasbasbag56
(g72
g58
NtRp317
(dp318
g61
(dp319
sg70
g271
sg63
(lp320
g56
(g77
g58
NtRp321
(dp322
g61
(dp323
g81
g82
ssg70
g317
sg63
(lp324
S'expires'
p325
asbag56
(g77
g58
NtRp326
(dp327
g61
(dp328
g88
g89
ssg70
g317
sg63
(lp329
S':'
asbag56
(g77
g58
NtRp330
(dp331
g61
(dp332
sg70
g317
sg63
(lp333
g56
(g57
g58
NtRp334
(dp335
g61
(dp336
g69
I3
ssg70
g330
sg63
(lp337
S''
asbasbasbag56
(g72
g58
NtRp338
(dp339
g61
(dp340
sg70
g271
sg63
(lp341
g56
(g77
g58
NtRp342
(dp343
g61
(dp344
g81
g82
ssg70
g338
sg63
(lp345
S'httponly'
p346
asbag56
(g77
g58
NtRp347
(dp348
g61
(dp349
g88
g89
ssg70
g338
sg63
(lp350
S':'
asbag56
(g77
g58
NtRp351
(dp352
g61
(dp353
sg70
g338
sg63
(lp354
g56
(g57
g58
NtRp355
(dp356
g61
(dp357
g69
I3
ssg70
g351
sg63
(lp358
S''
asbasbasbag56
(g72
g58
NtRp359
(dp360
g61
(dp361
sg70
g271
sg63
(lp362
g56
(g77
g58
NtRp363
(dp364
g61
(dp365
g81
g82
ssg70
g359
sg63
(lp366
S'max-age'
p367
asbag56
(g77
g58
NtRp368
(dp369
g61
(dp370
g88
g89
ssg70
g359
sg63
(lp371
S':'
asbag56
(g77
g58
NtRp372
(dp373
g61
(dp374
sg70
g359
sg63
(lp375
g56
(g57
g58
NtRp376
(dp377
g61
(dp378
g69
I3
ssg70
g372
sg63
(lp379
S''
asbasbasbag56
(g72
g58
NtRp380
(dp381
g61
(dp382
sg70
g271
sg63
(lp383
g56
(g77
g58
NtRp384
(dp385
g61
(dp386
g81
g82
ssg70
g380
sg63
(lp387
S'path'
p388
asbag56
(g77
g58
NtRp389
(dp390
g61
(dp391
g88
g89
ssg70
g380
sg63
(lp392
S':'
asbag56
(g77
g58
NtRp393
(dp394
g61
(dp395
sg70
g380
sg63
(lp396
g56
(g57
g58
NtRp397
(dp398
g61
(dp399
g69
I3
ssg70
g393
sg63
(lp400
S''
asbasbasbag56
(g72
g58
NtRp401
(dp402
g61
(dp403
sg70
g271
sg63
(lp404
g56
(g77
g58
NtRp405
(dp406
g61
(dp407
g81
g82
ssg70
g401
sg63
(lp408
S'secure'
p409
asbag56
(g77
g58
NtRp410
(dp411
g61
(dp412
g88
g89
ssg70
g401
sg63
(lp413
S':'
asbag56
(g77
g58
NtRp414
(dp415
g61
(dp416
sg70
g401
sg63
(lp417
g56
(g57
g58
NtRp418
(dp419
g61
(dp420
g69
I3
ssg70
g414
sg63
(lp421
S''
asbasbasbag56
(g72
g58
NtRp422
(dp423
g61
(dp424
sg70
g271
sg63
(lp425
g56
(g77
g58
NtRp426
(dp427
g61
(dp428
g81
g82
ssg70
g422
sg63
(lp429
S'version'
p430
asbag56
(g77
g58
NtRp431
(dp432
g61
(dp433
g88
g89
ssg70
g422
sg63
(lp434
S':'
asbag56
(g77
g58
NtRp435
(dp436
g61
(dp437
sg70
g422
sg63
(lp438
g56
(g57
g58
NtRp439
(dp440
g61
(dp441
g69
I3
ssg70
g435
sg63
(lp442
S''
asbasbasbasbasbasbasbag56
(g72
g58
NtRp443
(dp444
g61
(dp445
sg70
g246
sg63
(lp446
g56
(g77
g58
NtRp447
(dp448
g61
(dp449
g81
g82
ssg70
g443
sg63
(lp450
S'session_id_admin'
p451
asbag56
(g77
g58
NtRp452
(dp453
g61
(dp454
g88
g89
ssg70
g443
sg63
(lp455
S':'
asbag56
(g77
g58
NtRp456
(dp457
g61
(dp458
sg70
g443
sg63
(lp459
g56
(g57
g58
NtRp460
(dp461
g61
(dp462
g69
I4
ssg70
g456
sg63
(lp463
g56
(g65
g58
NtRp464
(dp465
g61
(dp466
g69
I3
ssg70
Nsg63
(lp467
g56
(g72
g58
NtRp468
(dp469
g61
(dp470
sg70
g464
sg63
(lp471
g56
(g77
g58
NtRp472
(dp473
g61
(dp474
g81
g82
ssg70
g468
sg63
(lp475
g283
asbag56
(g77
g58
NtRp476
(dp477
g61
(dp478
g88
g89
ssg70
g468
sg63
(lp479
S':'
asbag56
(g77
g58
NtRp480
(dp481
g61
(dp482
sg70
g468
sg63
(lp483
g56
(g57
g58
NtRp484
(dp485
g61
(dp486
g69
I3
ssg70
g480
sg63
(lp487
S''
asbasbasbag56
(g72
g58
NtRp488
(dp489
g61
(dp490
sg70
g464
sg63
(lp491
g56
(g77
g58
NtRp492
(dp493
g61
(dp494
g81
g82
ssg70
g488
sg63
(lp495
g304
asbag56
(g77
g58
NtRp496
(dp497
g61
(dp498
g88
g89
ssg70
g488
sg63
(lp499
S':'
asbag56
(g77
g58
NtRp500
(dp501
g61
(dp502
sg70
g488
sg63
(lp503
g56
(g57
g58
NtRp504
(dp505
g61
(dp506
g69
I3
ssg70
g500
sg63
(lp507
S''
asbasbasbag56
(g72
g58
NtRp508
(dp509
g61
(dp510
sg70
g464
sg63
(lp511
g56
(g77
g58
NtRp512
(dp513
g61
(dp514
g81
g82
ssg70
g508
sg63
(lp515
g325
asbag56
(g77
g58
NtRp516
(dp517
g61
(dp518
g88
g89
ssg70
g508
sg63
(lp519
S':'
asbag56
(g77
g58
NtRp520
(dp521
g61
(dp522
sg70
g508
sg63
(lp523
g56
(g57
g58
NtRp524
(dp525
g61
(dp526
g69
I3
ssg70
g520
sg63
(lp527
S''
asbasbasbag56
(g72
g58
NtRp528
(dp529
g61
(dp530
sg70
g464
sg63
(lp531
g56
(g77
g58
NtRp532
(dp533
g61
(dp534
g81
g82
ssg70
g528
sg63
(lp535
g346
asbag56
(g77
g58
NtRp536
(dp537
g61
(dp538
g88
g89
ssg70
g528
sg63
(lp539
S':'
asbag56
(g77
g58
NtRp540
(dp541
g61
(dp542
sg70
g528
sg63
(lp543
g56
(g57
g58
NtRp544
(dp545
g61
(dp546
g69
I3
ssg70
g540
sg63
(lp547
S''
asbasbasbag56
(g72
g58
NtRp548
(dp549
g61
(dp550
sg70
g464
sg63
(lp551
g56
(g77
g58
NtRp552
(dp553
g61
(dp554
g81
g82
ssg70
g548
sg63
(lp555
g367
asbag56
(g77
g58
NtRp556
(dp557
g61
(dp558
g88
g89
ssg70
g548
sg63
(lp559
S':'
asbag56
(g77
g58
NtRp560
(dp561
g61
(dp562
sg70
g548
sg63
(lp563
g56
(g57
g58
NtRp564
(dp565
g61
(dp566
g69
I3
ssg70
g560
sg63
(lp567
S''
asbasbasbag56
(g72
g58
NtRp568
(dp569
g61
(dp570
sg70
g464
sg63
(lp571
g56
(g77
g58
NtRp572
(dp573
g61
(dp574
g81
g82
ssg70
g568
sg63
(lp575
g388
asbag56
(g77
g58
NtRp576
(dp577
g61
(dp578
g88
g89
ssg70
g568
sg63
(lp579
S':'
asbag56
(g77
g58
NtRp580
(dp581
g61
(dp582
sg70
g568
sg63
(lp583
g56
(g57
g58
NtRp584
(dp585
g61
(dp586
g69
I3
ssg70
g580
sg63
(lp587
S''
asbasbasbag56
(g72
g58
NtRp588
(dp589
g61
(dp590
sg70
g464
sg63
(lp591
g56
(g77
g58
NtRp592
(dp593
g61
(dp594
g81
g82
ssg70
g588
sg63
(lp595
g409
asbag56
(g77
g58
NtRp596
(dp597
g61
(dp598
g88
g89
ssg70
g588
sg63
(lp599
S':'
asbag56
(g77
g58
NtRp600
(dp601
g61
(dp602
sg70
g588
sg63
(lp603
g56
(g57
g58
NtRp604
(dp605
g61
(dp606
g69
I3
ssg70
g600
sg63
(lp607
S''
asbasbasbag56
(g72
g58
NtRp608
(dp609
g61
(dp610
sg70
g464
sg63
(lp611
g56
(g77
g58
NtRp612
(dp613
g61
(dp614
g81
g82
ssg70
g608
sg63
(lp615
g430
asbag56
(g77
g58
NtRp616
(dp617
g61
(dp618
g88
g89
ssg70
g608
sg63
(lp619
S':'
asbag56
(g77
g58
NtRp620
(dp621
g61
(dp622
sg70
g608
sg63
(lp623
g56
(g57
g58
NtRp624
(dp625
g61
(dp626
g69
I3
ssg70
g620
sg63
(lp627
S''
asbasbasbasbasbasbasbag56
(g72
g58
NtRp628
(dp629
g61
(dp630
sg70
g246
sg63
(lp631
g56
(g77
g58
NtRp632
(dp633
g61
(dp634
g81
g82
ssg70
g628
sg63
(lp635
S'session_id_datos'
p636
asbag56
(g77
g58
NtRp637
(dp638
g61
(dp639
g88
g89
ssg70
g628
sg63
(lp640
S':'
asbag56
(g77
g58
NtRp641
(dp642
g61
(dp643
sg70
g628
sg63
(lp644
g56
(g57
g58
NtRp645
(dp646
g61
(dp647
g69
I4
ssg70
g641
sg63
(lp648
g56
(g65
g58
NtRp649
(dp650
g61
(dp651
g69
I3
ssg70
Nsg63
(lp652
g56
(g72
g58
NtRp653
(dp654
g61
(dp655
sg70
g649
sg63
(lp656
g56
(g77
g58
NtRp657
(dp658
g61
(dp659
g81
g82
ssg70
g653
sg63
(lp660
g283
asbag56
(g77
g58
NtRp661
(dp662
g61
(dp663
g88
g89
ssg70
g653
sg63
(lp664
S':'
asbag56
(g77
g58
NtRp665
(dp666
g61
(dp667
sg70
g653
sg63
(lp668
g56
(g57
g58
NtRp669
(dp670
g61
(dp671
g69
I3
ssg70
g665
sg63
(lp672
S''
asbasbasbag56
(g72
g58
NtRp673
(dp674
g61
(dp675
sg70
g649
sg63
(lp676
g56
(g77
g58
NtRp677
(dp678
g61
(dp679
g81
g82
ssg70
g673
sg63
(lp680
g304
asbag56
(g77
g58
NtRp681
(dp682
g61
(dp683
g88
g89
ssg70
g673
sg63
(lp684
S':'
asbag56
(g77
g58
NtRp685
(dp686
g61
(dp687
sg70
g673
sg63
(lp688
g56
(g57
g58
NtRp689
(dp690
g61
(dp691
g69
I3
ssg70
g685
sg63
(lp692
S''
asbasbasbag56
(g72
g58
NtRp693
(dp694
g61
(dp695
sg70
g649
sg63
(lp696
g56
(g77
g58
NtRp697
(dp698
g61
(dp699
g81
g82
ssg70
g693
sg63
(lp700
g325
asbag56
(g77
g58
NtRp701
(dp702
g61
(dp703
g88
g89
ssg70
g693
sg63
(lp704
S':'
asbag56
(g77
g58
NtRp705
(dp706
g61
(dp707
sg70
g693
sg63
(lp708
g56
(g57
g58
NtRp709
(dp710
g61
(dp711
g69
I3
ssg70
g705
sg63
(lp712
S''
asbasbasbag56
(g72
g58
NtRp713
(dp714
g61
(dp715
sg70
g649
sg63
(lp716
g56
(g77
g58
NtRp717
(dp718
g61
(dp719
g81
g82
ssg70
g713
sg63
(lp720
g346
asbag56
(g77
g58
NtRp721
(dp722
g61
(dp723
g88
g89
ssg70
g713
sg63
(lp724
S':'
asbag56
(g77
g58
NtRp725
(dp726
g61
(dp727
sg70
g713
sg63
(lp728
g56
(g57
g58
NtRp729
(dp730
g61
(dp731
g69
I3
ssg70
g725
sg63
(lp732
S''
asbasbasbag56
(g72
g58
NtRp733
(dp734
g61
(dp735
sg70
g649
sg63
(lp736
g56
(g77
g58
NtRp737
(dp738
g61
(dp739
g81
g82
ssg70
g733
sg63
(lp740
g367
asbag56
(g77
g58
NtRp741
(dp742
g61
(dp743
g88
g89
ssg70
g733
sg63
(lp744
S':'
asbag56
(g77
g58
NtRp745
(dp746
g61
(dp747
sg70
g733
sg63
(lp748
g56
(g57
g58
NtRp749
(dp750
g61
(dp751
g69
I3
ssg70
g745
sg63
(lp752
S''
asbasbasbag56
(g72
g58
NtRp753
(dp754
g61
(dp755
sg70
g649
sg63
(lp756
g56
(g77
g58
NtRp757
(dp758
g61
(dp759
g81
g82
ssg70
g753
sg63
(lp760
g388
asbag56
(g77
g58
NtRp761
(dp762
g61
(dp763
g88
g89
ssg70
g753
sg63
(lp764
S':'
asbag56
(g77
g58
NtRp765
(dp766
g61
(dp767
sg70
g753
sg63
(lp768
g56
(g57
g58
NtRp769
(dp770
g61
(dp771
g69
I3
ssg70
g765
sg63
(lp772
S''
asbasbasbag56
(g72
g58
NtRp773
(dp774
g61
(dp775
sg70
g649
sg63
(lp776
g56
(g77
g58
NtRp777
(dp778
g61
(dp779
g81
g82
ssg70
g773
sg63
(lp780
g409
asbag56
(g77
g58
NtRp781
(dp782
g61
(dp783
g88
g89
ssg70
g773
sg63
(lp784
S':'
asbag56
(g77
g58
NtRp785
(dp786
g61
(dp787
sg70
g773
sg63
(lp788
g56
(g57
g58
NtRp789
(dp790
g61
(dp791
g69
I3
ssg70
g785
sg63
(lp792
S''
asbasbasbag56
(g72
g58
NtRp793
(dp794
g61
(dp795
sg70
g649
sg63
(lp796
g56
(g77
g58
NtRp797
(dp798
g61
(dp799
g81
g82
ssg70
g793
sg63
(lp800
g430
asbag56
(g77
g58
NtRp801
(dp802
g61
(dp803
g88
g89
ssg70
g793
sg63
(lp804
S':'
asbag56
(g77
g58
NtRp805
(dp806
g61
(dp807
sg70
g793
sg63
(lp808
g56
(g57
g58
NtRp809
(dp810
g61
(dp811
g69
I3
ssg70
g805
sg63
(lp812
S''
asbasbasbasbasbasbasbag56
(g72
g58
NtRp813
(dp814
g61
(dp815
sg70
g246
sg63
(lp816
g56
(g77
g58
NtRp817
(dp818
g61
(dp819
g81
g82
ssg70
g813
sg63
(lp820
S'session_id_welcome'
p821
asbag56
(g77
g58
NtRp822
(dp823
g61
(dp824
g88
g89
ssg70
g813
sg63
(lp825
S':'
asbag56
(g77
g58
NtRp826
(dp827
g61
(dp828
sg70
g813
sg63
(lp829
g56
(g57
g58
NtRp830
(dp831
g61
(dp832
g69
I4
ssg70
g826
sg63
(lp833
g56
(g65
g58
NtRp834
(dp835
g61
(dp836
g69
I3
ssg70
Nsg63
(lp837
g56
(g72
g58
NtRp838
(dp839
g61
(dp840
sg70
g834
sg63
(lp841
g56
(g77
g58
NtRp842
(dp843
g61
(dp844
g81
g82
ssg70
g838
sg63
(lp845
g283
asbag56
(g77
g58
NtRp846
(dp847
g61
(dp848
g88
g89
ssg70
g838
sg63
(lp849
S':'
asbag56
(g77
g58
NtRp850
(dp851
g61
(dp852
sg70
g838
sg63
(lp853
g56
(g57
g58
NtRp854
(dp855
g61
(dp856
g69
I3
ssg70
g850
sg63
(lp857
S''
asbasbasbag56
(g72
g58
NtRp858
(dp859
g61
(dp860
sg70
g834
sg63
(lp861
g56
(g77
g58
NtRp862
(dp863
g61
(dp864
g81
g82
ssg70
g858
sg63
(lp865
g304
asbag56
(g77
g58
NtRp866
(dp867
g61
(dp868
g88
g89
ssg70
g858
sg63
(lp869
S':'
asbag56
(g77
g58
NtRp870
(dp871
g61
(dp872
sg70
g858
sg63
(lp873
g56
(g57
g58
NtRp874
(dp875
g61
(dp876
g69
I3
ssg70
g870
sg63
(lp877
S''
asbasbasbag56
(g72
g58
NtRp878
(dp879
g61
(dp880
sg70
g834
sg63
(lp881
g56
(g77
g58
NtRp882
(dp883
g61
(dp884
g81
g82
ssg70
g878
sg63
(lp885
g325
asbag56
(g77
g58
NtRp886
(dp887
g61
(dp888
g88
g89
ssg70
g878
sg63
(lp889
S':'
asbag56
(g77
g58
NtRp890
(dp891
g61
(dp892
sg70
g878
sg63
(lp893
g56
(g57
g58
NtRp894
(dp895
g61
(dp896
g69
I3
ssg70
g890
sg63
(lp897
S''
asbasbasbag56
(g72
g58
NtRp898
(dp899
g61
(dp900
sg70
g834
sg63
(lp901
g56
(g77
g58
NtRp902
(dp903
g61
(dp904
g81
g82
ssg70
g898
sg63
(lp905
g346
asbag56
(g77
g58
NtRp906
(dp907
g61
(dp908
g88
g89
ssg70
g898
sg63
(lp909
S':'
asbag56
(g77
g58
NtRp910
(dp911
g61
(dp912
sg70
g898
sg63
(lp913
g56
(g57
g58
NtRp914
(dp915
g61
(dp916
g69
I3
ssg70
g910
sg63
(lp917
S''
asbasbasbag56
(g72
g58
NtRp918
(dp919
g61
(dp920
sg70
g834
sg63
(lp921
g56
(g77
g58
NtRp922
(dp923
g61
(dp924
g81
g82
ssg70
g918
sg63
(lp925
g367
asbag56
(g77
g58
NtRp926
(dp927
g61
(dp928
g88
g89
ssg70
g918
sg63
(lp929
S':'
asbag56
(g77
g58
NtRp930
(dp931
g61
(dp932
sg70
g918
sg63
(lp933
g56
(g57
g58
NtRp934
(dp935
g61
(dp936
g69
I3
ssg70
g930
sg63
(lp937
S''
asbasbasbag56
(g72
g58
NtRp938
(dp939
g61
(dp940
sg70
g834
sg63
(lp941
g56
(g77
g58
NtRp942
(dp943
g61
(dp944
g81
g82
ssg70
g938
sg63
(lp945
g388
asbag56
(g77
g58
NtRp946
(dp947
g61
(dp948
g88
g89
ssg70
g938
sg63
(lp949
S':'
asbag56
(g77
g58
NtRp950
(dp951
g61
(dp952
sg70
g938
sg63
(lp953
g56
(g57
g58
NtRp954
(dp955
g61
(dp956
g69
I3
ssg70
g950
sg63
(lp957
S''
asbasbasbag56
(g72
g58
NtRp958
(dp959
g61
(dp960
sg70
g834
sg63
(lp961
g56
(g77
g58
NtRp962
(dp963
g61
(dp964
g81
g82
ssg70
g958
sg63
(lp965
g409
asbag56
(g77
g58
NtRp966
(dp967
g61
(dp968
g88
g89
ssg70
g958
sg63
(lp969
S':'
asbag56
(g77
g58
NtRp970
(dp971
g61
(dp972
sg70
g958
sg63
(lp973
g56
(g57
g58
NtRp974
(dp975
g61
(dp976
g69
I3
ssg70
g970
sg63
(lp977
S''
asbasbasbag56
(g72
g58
NtRp978
(dp979
g61
(dp980
sg70
g834
sg63
(lp981
g56
(g77
g58
NtRp982
(dp983
g61
(dp984
g81
g82
ssg70
g978
sg63
(lp985
g430
asbag56
(g77
g58
NtRp986
(dp987
g61
(dp988
g88
g89
ssg70
g978
sg63
(lp989
S':'
asbag56
(g77
g58
NtRp990
(dp991
g61
(dp992
sg70
g978
sg63
(lp993
g56
(g57
g58
NtRp994
(dp995
g61
(dp996
g69
I3
ssg70
g990
sg63
(lp997
S''
asbasbasbasbasbasbasbasbasbasbasbag56
(g72
g58
NtRp998
(dp999
g61
(dp1000
sg70
g66
sg63
(lp1001
g56
(g77
g58
NtRp1002
(dp1003
g61
(dp1004
g81
g82
ssg70
g998
sg63
(lp1005
S'env'
p1006
asbag56
(g77
g58
NtRp1007
(dp1008
g61
(dp1009
g88
g89
ssg70
g998
sg63
(lp1010
S':'
asbag56
(g77
g58
NtRp1011
(dp1012
g61
(dp1013
sg70
g998
sg63
(lp1014
g56
(g57
g58
NtRp1015
(dp1016
g61
(dp1017
g69
I5
ssg70
g1011
sg63
(lp1018
g56
(g65
g58
NtRp1019
(dp1020
g61
(dp1021
g69
I4
ssg70
Nsg63
(lp1022
g56
(g72
g58
NtRp1023
(dp1024
g61
(dp1025
sg70
g1019
sg63
(lp1026
g56
(g77
g58
NtRp1027
(dp1028
g61
(dp1029
g81
g82
ssg70
g1023
sg63
(lp1030
S'app_folders'
p1031
asbag56
(g77
g58
NtRp1032
(dp1033
g61
(dp1034
g88
g89
ssg70
g1023
sg63
(lp1035
S':'
asbag56
(g77
g58
NtRp1036
(dp1037
g61
(dp1038
sg70
g1023
sg63
(lp1039
g56
(g57
g58
NtRp1040
(dp1041
g61
(dp1042
g69
I4
ssg70
g1036
sg63
(lp1043
S"set(['/home/alumno/web2py/applications/admin/', '/home/alumno/web2py/applications/about_me/', '/home/alumno/web2py/applications/welcome/', '/home/alumno/web2py/applications/datos/'])"
p1044
asbasbasbag56
(g72
g58
NtRp1045
(dp1046
g61
(dp1047
sg70
g1019
sg63
(lp1048
g56
(g77
g58
NtRp1049
(dp1050
g61
(dp1051
g81
g82
ssg70
g1045
sg63
(lp1052
S'applications_parent'
p1053
asbag56
(g77
g58
NtRp1054
(dp1055
g61
(dp1056
g88
g89
ssg70
g1045
sg63
(lp1057
S':'
asbag56
(g77
g58
NtRp1058
(dp1059
g61
(dp1060
sg70
g1045
sg63
(lp1061
g56
(g57
g58
NtRp1062
(dp1063
g61
(dp1064
g69
I4
ssg70
g1058
sg63
(lp1065
S'/home/alumno/web2py'
p1066
asbasbasbag56
(g72
g58
NtRp1067
(dp1068
g61
(dp1069
sg70
g1019
sg63
(lp1070
g56
(g77
g58
NtRp1071
(dp1072
g61
(dp1073
g81
g82
ssg70
g1067
sg63
(lp1074
S'cmd_args'
p1075
asbag56
(g77
g58
NtRp1076
(dp1077
g61
(dp1078
g88
g89
ssg70
g1067
sg63
(lp1079
S':'
asbag56
(g77
g58
NtRp1080
(dp1081
g61
(dp1082
sg70
g1067
sg63
(lp1083
g56
(g57
g58
NtRp1084
(dp1085
g61
(dp1086
g69
I4
ssg70
g1080
sg63
(lp1087
g56
(g65
g58
NtRp1088
(dp1089
g61
(dp1090
g69
I3
ssg70
Nsg63
(lp1091
sbasbasbasbag56
(g72
g58
NtRp1092
(dp1093
g61
(dp1094
sg70
g1019
sg63
(lp1095
g56
(g77
g58
NtRp1096
(dp1097
g61
(dp1098
g81
g82
ssg70
g1092
sg63
(lp1099
S'cmd_options'
p1100
asbag56
(g77
g58
NtRp1101
(dp1102
g61
(dp1103
g88
g89
ssg70
g1092
sg63
(lp1104
S':'
asbag56
(g77
g58
NtRp1105
(dp1106
g61
(dp1107
sg70
g1092
sg63
(lp1108
g56
(g57
g58
NtRp1109
(dp1110
g61
(dp1111
g69
I4
ssg70
g1105
sg63
(lp1112
S"<Values at 0x9716ecc: {'verbose': False, 'ip': '127.0.0.1', 'shutdown_timeout': 5, 'taskbar': False, 'port': 8000, 'maxthreads': None, 'softcron': False, 'server_name': 'ubuntu-dev', 'bpython': False, 'nogui': False, 'nocron': False, 'extcron': False, 'debuglevel': 30, 'test': None, 'folder': '/home/alumno/web2py', 'config': '', 'import_models': False, 'winservice': '', 'shell': None, 'run': '', 'log_filename': 'httpserver.log', 'args': [''], 'profiler_filename': None, 'ssl_private_key': '', 'password': 'toor', 'request_queue_size': 5, 'ssl_certificate': '', 'cronjob': False, 'plain': False, 'quiet': False, 'interfaces': None, 'minthreads': None, 'timeout': 10, 'numthreads': None, 'nobanner': False, 'pid_filename': 'httpserver.pid'}>"
p1113
asbasbasbag56
(g72
g58
NtRp1114
(dp1115
g61
(dp1116
sg70
g1019
sg63
(lp1117
g56
(g77
g58
NtRp1118
(dp1119
g61
(dp1120
g81
g82
ssg70
g1114
sg63
(lp1121
S'db_sessions'
p1122
asbag56
(g77
g58
NtRp1123
(dp1124
g61
(dp1125
g88
g89
ssg70
g1114
sg63
(lp1126
S':'
asbag56
(g77
g58
NtRp1127
(dp1128
g61
(dp1129
sg70
g1114
sg63
(lp1130
g56
(g57
g58
NtRp1131
(dp1132
g61
(dp1133
g69
I4
ssg70
g1127
sg63
(lp1134
S'set([])'
p1135
asbasbasbag56
(g72
g58
NtRp1136
(dp1137
g61
(dp1138
sg70
g1019
sg63
(lp1139
g56
(g77
g58
NtRp1140
(dp1141
g61
(dp1142
g81
g82
ssg70
g1136
sg63
(lp1143
S'debugging'
p1144
asbag56
(g77
g58
NtRp1145
(dp1146
g61
(dp1147
g88
g89
ssg70
g1136
sg63
(lp1148
S':'
asbag56
(g77
g58
NtRp1149
(dp1150
g61
(dp1151
sg70
g1136
sg63
(lp1152
g56
(g57
g58
NtRp1153
(dp1154
g61
(dp1155
g69
I4
ssg70
g1149
sg63
(lp1156
g99
asbasbasbag56
(g72
g58
NtRp1157
(dp1158
g61
(dp1159
sg70
g1019
sg63
(lp1160
g56
(g77
g58
NtRp1161
(dp1162
g61
(dp1163
g81
g82
ssg70
g1157
sg63
(lp1164
S'gluon_parent'
p1165
asbag56
(g77
g58
NtRp1166
(dp1167
g61
(dp1168
g88
g89
ssg70
g1157
sg63
(lp1169
S':'
asbag56
(g77
g58
NtRp1170
(dp1171
g61
(dp1172
sg70
g1157
sg63
(lp1173
g56
(g57
g58
NtRp1174
(dp1175
g61
(dp1176
g69
I4
ssg70
g1170
sg63
(lp1177
S'/home/alumno/web2py'
p1178
asbasbasbag56
(g72
g58
NtRp1179
(dp1180
g61
(dp1181
sg70
g1019
sg63
(lp1182
g56
(g77
g58
NtRp1183
(dp1184
g61
(dp1185
g81
g82
ssg70
g1179
sg63
(lp1186
S'http_accept'
p1187
asbag56
(g77
g58
NtRp1188
(dp1189
g61
(dp1190
g88
g89
ssg70
g1179
sg63
(lp1191
S':'
asbag56
(g77
g58
NtRp1192
(dp1193
g61
(dp1194
sg70
g1179
sg63
(lp1195
g56
(g57
g58
NtRp1196
(dp1197
g61
(dp1198
g69
I4
ssg70
g1192
sg63
(lp1199
S'text/html,application/xhtml+xml,application/xml;q=0.9,*/*;q=0.8'
p1200
asbasbasbag56
(g72
g58
NtRp1201
(dp1202
g61
(dp1203
sg70
g1019
sg63
(lp1204
g56
(g77
g58
NtRp1205
(dp1206
g61
(dp1207
g81
g82
ssg70
g1201
sg63
(lp1208
S'http_accept_charset'
p1209
asbag56
(g77
g58
NtRp1210
(dp1211
g61
(dp1212
g88
g89
ssg70
g1201
sg63
(lp1213
S':'
asbag56
(g77
g58
NtRp1214
(dp1215
g61
(dp1216
sg70
g1201
sg63
(lp1217
g56
(g57
g58
NtRp1218
(dp1219
g61
(dp1220
g69
I4
ssg70
g1214
sg63
(lp1221
S'ISO-8859-1,utf-8;q=0.7,*;q=0.7'
p1222
asbasbasbag56
(g72
g58
NtRp1223
(dp1224
g61
(dp1225
sg70
g1019
sg63
(lp1226
g56
(g77
g58
NtRp1227
(dp1228
g61
(dp1229
g81
g82
ssg70
g1223
sg63
(lp1230
S'http_accept_encoding'
p1231
asbag56
(g77
g58
NtRp1232
(dp1233
g61
(dp1234
g88
g89
ssg70
g1223
sg63
(lp1235
S':'
asbag56
(g77
g58
NtRp1236
(dp1237
g61
(dp1238
sg70
g1223
sg63
(lp1239
g56
(g57
g58
NtRp1240
(dp1241
g61
(dp1242
g69
I4
ssg70
g1236
sg63
(lp1243
S'gzip, deflate'
p1244
asbasbasbag56
(g72
g58
NtRp1245
(dp1246
g61
(dp1247
sg70
g1019
sg63
(lp1248
g56
(g77
g58
NtRp1249
(dp1250
g61
(dp1251
g81
g82
ssg70
g1245
sg63
(lp1252
S'http_accept_language'
p1253
asbag56
(g77
g58
NtRp1254
(dp1255
g61
(dp1256
g88
g89
ssg70
g1245
sg63
(lp1257
S':'
asbag56
(g77
g58
NtRp1258
(dp1259
g61
(dp1260
sg70
g1245
sg63
(lp1261
g56
(g57
g58
NtRp1262
(dp1263
g61
(dp1264
g69
I4
ssg70
g1258
sg63
(lp1265
S'es-ar,es;q=0.8,en-us;q=0.5,en;q=0.3'
p1266
asbasbasbag56
(g72
g58
NtRp1267
(dp1268
g61
(dp1269
sg70
g1019
sg63
(lp1270
g56
(g77
g58
NtRp1271
(dp1272
g61
(dp1273
g81
g82
ssg70
g1267
sg63
(lp1274
S'http_cache_control'
p1275
asbag56
(g77
g58
NtRp1276
(dp1277
g61
(dp1278
g88
g89
ssg70
g1267
sg63
(lp1279
S':'
asbag56
(g77
g58
NtRp1280
(dp1281
g61
(dp1282
sg70
g1267
sg63
(lp1283
g56
(g57
g58
NtRp1284
(dp1285
g61
(dp1286
g69
I4
ssg70
g1280
sg63
(lp1287
S'max-age=0'
p1288
asbasbasbag56
(g72
g58
NtRp1289
(dp1290
g61
(dp1291
sg70
g1019
sg63
(lp1292
g56
(g77
g58
NtRp1293
(dp1294
g61
(dp1295
g81
g82
ssg70
g1289
sg63
(lp1296
S'http_connection'
p1297
asbag56
(g77
g58
NtRp1298
(dp1299
g61
(dp1300
g88
g89
ssg70
g1289
sg63
(lp1301
S':'
asbag56
(g77
g58
NtRp1302
(dp1303
g61
(dp1304
sg70
g1289
sg63
(lp1305
g56
(g57
g58
NtRp1306
(dp1307
g61
(dp1308
g69
I4
ssg70
g1302
sg63
(lp1309
S'keep-alive'
p1310
asbasbasbag56
(g72
g58
NtRp1311
(dp1312
g61
(dp1313
sg70
g1019
sg63
(lp1314
g56
(g77
g58
NtRp1315
(dp1316
g61
(dp1317
g81
g82
ssg70
g1311
sg63
(lp1318
S'http_cookie'
p1319
asbag56
(g77
g58
NtRp1320
(dp1321
g61
(dp1322
g88
g89
ssg70
g1311
sg63
(lp1323
S':'
asbag56
(g77
g58
NtRp1324
(dp1325
g61
(dp1326
sg70
g1311
sg63
(lp1327
g56
(g57
g58
NtRp1328
(dp1329
g61
(dp1330
g69
I4
ssg70
g1324
sg63
(lp1331
S'session_id_welcome=127.0.0.1-9a64e71a-71c9-4c62-b046-090ea7d45525; session_id_admin=127.0.0.1-fd47075d-a50d-4307-a71d-53fd6091c621; session_id_about_me=127.0.0.1-7001d55b-0853-4806-9a34-cb98dbab722d; session_id_datos=127.0.0.1-cd811d2b-4b1e-4778-9b0e-2b7f0d822087'
p1332
asbasbasbag56
(g72
g58
NtRp1333
(dp1334
g61
(dp1335
sg70
g1019
sg63
(lp1336
g56
(g77
g58
NtRp1337
(dp1338
g61
(dp1339
g81
g82
ssg70
g1333
sg63
(lp1340
S'http_host'
p1341
asbag56
(g77
g58
NtRp1342
(dp1343
g61
(dp1344
g88
g89
ssg70
g1333
sg63
(lp1345
S':'
asbag56
(g77
g58
NtRp1346
(dp1347
g61
(dp1348
sg70
g1333
sg63
(lp1349
g56
(g57
g58
NtRp1350
(dp1351
g61
(dp1352
g69
I4
ssg70
g1346
sg63
(lp1353
S'127.0.0.1:8000'
p1354
asbasbasbag56
(g72
g58
NtRp1355
(dp1356
g61
(dp1357
sg70
g1019
sg63
(lp1358
g56
(g77
g58
NtRp1359
(dp1360
g61
(dp1361
g81
g82
ssg70
g1355
sg63
(lp1362
S'http_referer'
p1363
asbag56
(g77
g58
NtRp1364
(dp1365
g61
(dp1366
g88
g89
ssg70
g1355
sg63
(lp1367
S':'
asbag56
(g77
g58
NtRp1368
(dp1369
g61
(dp1370
sg70
g1355
sg63
(lp1371
g56
(g57
g58
NtRp1372
(dp1373
g61
(dp1374
g69
I4
ssg70
g1368
sg63
(lp1375
S'http://127.0.0.1:8000/datos/default/index'
p1376
asbasbasbag56
(g72
g58
NtRp1377
(dp1378
g61
(dp1379
sg70
g1019
sg63
(lp1380
g56
(g77
g58
NtRp1381
(dp1382
g61
(dp1383
g81
g82
ssg70
g1377
sg63
(lp1384
S'http_user_agent'
p1385
asbag56
(g77
g58
NtRp1386
(dp1387
g61
(dp1388
g88
g89
ssg70
g1377
sg63
(lp1389
S':'
asbag56
(g77
g58
NtRp1390
(dp1391
g61
(dp1392
sg70
g1377
sg63
(lp1393
g56
(g57
g58
NtRp1394
(dp1395
g61
(dp1396
g69
I4
ssg70
g1390
sg63
(lp1397
S'Mozilla/5.0 (X11; Linux i686; rv:6.0) Gecko/20100101 Firefox/6.0'
p1398
asbasbasbag56
(g72
g58
NtRp1399
(dp1400
g61
(dp1401
sg70
g1019
sg63
(lp1402
g56
(g77
g58
NtRp1403
(dp1404
g61
(dp1405
g81
g82
ssg70
g1399
sg63
(lp1406
S'path_info'
p1407
asbag56
(g77
g58
NtRp1408
(dp1409
g61
(dp1410
g88
g89
ssg70
g1399
sg63
(lp1411
S':'
asbag56
(g77
g58
NtRp1412
(dp1413
g61
(dp1414
sg70
g1399
sg63
(lp1415
g56
(g57
g58
NtRp1416
(dp1417
g61
(dp1418
g69
I4
ssg70
g1412
sg63
(lp1419
S'/datos/default/detalle/a001'
p1420
asbasbasbag56
(g72
g58
NtRp1421
(dp1422
g61
(dp1423
sg70
g1019
sg63
(lp1424
g56
(g77
g58
NtRp1425
(dp1426
g61
(dp1427
g81
g82
ssg70
g1421
sg63
(lp1428
S'query_string'
p1429
asbag56
(g77
g58
NtRp1430
(dp1431
g61
(dp1432
g88
g89
ssg70
g1421
sg63
(lp1433
S':'
asbag56
(g77
g58
NtRp1434
(dp1435
g61
(dp1436
sg70
g1421
sg63
(lp1437
g56
(g57
g58
NtRp1438
(dp1439
g61
(dp1440
g69
I4
ssg70
g1434
sg63
(lp1441
S''
asbasbasbag56
(g72
g58
NtRp1442
(dp1443
g61
(dp1444
sg70
g1019
sg63
(lp1445
g56
(g77
g58
NtRp1446
(dp1447
g61
(dp1448
g81
g82
ssg70
g1442
sg63
(lp1449
S'remote_addr'
p1450
asbag56
(g77
g58
NtRp1451
(dp1452
g61
(dp1453
g88
g89
ssg70
g1442
sg63
(lp1454
S':'
asbag56
(g77
g58
NtRp1455
(dp1456
g61
(dp1457
sg70
g1442
sg63
(lp1458
g56
(g57
g58
NtRp1459
(dp1460
g61
(dp1461
g69
I4
ssg70
g1455
sg63
(lp1462
g202
asbasbasbag56
(g72
g58
NtRp1463
(dp1464
g61
(dp1465
sg70
g1019
sg63
(lp1466
g56
(g77
g58
NtRp1467
(dp1468
g61
(dp1469
g81
g82
ssg70
g1463
sg63
(lp1470
S'remote_port'
p1471
asbag56
(g77
g58
NtRp1472
(dp1473
g61
(dp1474
g88
g89
ssg70
g1463
sg63
(lp1475
S':'
asbag56
(g77
g58
NtRp1476
(dp1477
g61
(dp1478
sg70
g1463
sg63
(lp1479
g56
(g57
g58
NtRp1480
(dp1481
g61
(dp1482
g69
I4
ssg70
g1476
sg63
(lp1483
S'39969'
p1484
asbasbasbag56
(g72
g58
NtRp1485
(dp1486
g61
(dp1487
sg70
g1019
sg63
(lp1488
g56
(g77
g58
NtRp1489
(dp1490
g61
(dp1491
g81
g82
ssg70
g1485
sg63
(lp1492
S'request_method'
p1493
asbag56
(g77
g58
NtRp1494
(dp1495
g61
(dp1496
g88
g89
ssg70
g1485
sg63
(lp1497
S':'
asbag56
(g77
g58
NtRp1498
(dp1499
g61
(dp1500
sg70
g1485
sg63
(lp1501
g56
(g57
g58
NtRp1502
(dp1503
g61
(dp1504
g69
I4
ssg70
g1498
sg63
(lp1505
S'GET'
p1506
asbasbasbag56
(g72
g58
NtRp1507
(dp1508
g61
(dp1509
sg70
g1019
sg63
(lp1510
g56
(g77
g58
NtRp1511
(dp1512
g61
(dp1513
g81
g82
ssg70
g1507
sg63
(lp1514
S'script_name'
p1515
asbag56
(g77
g58
NtRp1516
(dp1517
g61
(dp1518
g88
g89
ssg70
g1507
sg63
(lp1519
S':'
asbag56
(g77
g58
NtRp1520
(dp1521
g61
(dp1522
sg70
g1507
sg63
(lp1523
g56
(g57
g58
NtRp1524
(dp1525
g61
(dp1526
g69
I4
ssg70
g1520
sg63
(lp1527
S''
asbasbasbag56
(g72
g58
NtRp1528
(dp1529
g61
(dp1530
sg70
g1019
sg63
(lp1531
g56
(g77
g58
NtRp1532
(dp1533
g61
(dp1534
g81
g82
ssg70
g1528
sg63
(lp1535
S'server_name'
p1536
asbag56
(g77
g58
NtRp1537
(dp1538
g61
(dp1539
g88
g89
ssg70
g1528
sg63
(lp1540
S':'
asbag56
(g77
g58
NtRp1541
(dp1542
g61
(dp1543
sg70
g1528
sg63
(lp1544
g56
(g57
g58
NtRp1545
(dp1546
g61
(dp1547
g69
I4
ssg70
g1541
sg63
(lp1548
S'ubuntu-dev'
p1549
asbasbasbag56
(g72
g58
NtRp1550
(dp1551
g61
(dp1552
sg70
g1019
sg63
(lp1553
g56
(g77
g58
NtRp1554
(dp1555
g61
(dp1556
g81
g82
ssg70
g1550
sg63
(lp1557
S'server_port'
p1558
asbag56
(g77
g58
NtRp1559
(dp1560
g61
(dp1561
g88
g89
ssg70
g1550
sg63
(lp1562
S':'
asbag56
(g77
g58
NtRp1563
(dp1564
g61
(dp1565
sg70
g1550
sg63
(lp1566
g56
(g57
g58
NtRp1567
(dp1568
g61
(dp1569
g69
I4
ssg70
g1563
sg63
(lp1570
S'8000'
p1571
asbasbasbag56
(g72
g58
NtRp1572
(dp1573
g61
(dp1574
sg70
g1019
sg63
(lp1575
g56
(g77
g58
NtRp1576
(dp1577
g61
(dp1578
g81
g82
ssg70
g1572
sg63
(lp1579
S'server_protocol'
p1580
asbag56
(g77
g58
NtRp1581
(dp1582
g61
(dp1583
g88
g89
ssg70
g1572
sg63
(lp1584
S':'
asbag56
(g77
g58
NtRp1585
(dp1586
g61
(dp1587
sg70
g1572
sg63
(lp1588
g56
(g57
g58
NtRp1589
(dp1590
g61
(dp1591
g69
I4
ssg70
g1585
sg63
(lp1592
S'HTTP/1.1'
p1593
asbasbasbag56
(g72
g58
NtRp1594
(dp1595
g61
(dp1596
sg70
g1019
sg63
(lp1597
g56
(g77
g58
NtRp1598
(dp1599
g61
(dp1600
g81
g82
ssg70
g1594
sg63
(lp1601
S'server_software'
p1602
asbag56
(g77
g58
NtRp1603
(dp1604
g61
(dp1605
g88
g89
ssg70
g1594
sg63
(lp1606
S':'
asbag56
(g77
g58
NtRp1607
(dp1608
g61
(dp1609
sg70
g1594
sg63
(lp1610
g56
(g57
g58
NtRp1611
(dp1612
g61
(dp1613
g69
I4
ssg70
g1607
sg63
(lp1614
S'Rocket 1.2.2'
p1615
asbasbasbag56
(g72
g58
NtRp1616
(dp1617
g61
(dp1618
sg70
g1019
sg63
(lp1619
g56
(g77
g58
NtRp1620
(dp1621
g61
(dp1622
g81
g82
ssg70
g1616
sg63
(lp1623
S'web2py_crontype'
p1624
asbag56
(g77
g58
NtRp1625
(dp1626
g61
(dp1627
g88
g89
ssg70
g1616
sg63
(lp1628
S':'
asbag56
(g77
g58
NtRp1629
(dp1630
g61
(dp1631
sg70
g1616
sg63
(lp1632
g56
(g57
g58
NtRp1633
(dp1634
g61
(dp1635
g69
I4
ssg70
g1629
sg63
(lp1636
S'hard'
p1637
asbasbasbag56
(g72
g58
NtRp1638
(dp1639
g61
(dp1640
sg70
g1019
sg63
(lp1641
g56
(g77
g58
NtRp1642
(dp1643
g61
(dp1644
g81
g82
ssg70
g1638
sg63
(lp1645
S'web2py_path'
p1646
asbag56
(g77
g58
NtRp1647
(dp1648
g61
(dp1649
g88
g89
ssg70
g1638
sg63
(lp1650
S':'
asbag56
(g77
g58
NtRp1651
(dp1652
g61
(dp1653
sg70
g1638
sg63
(lp1654
g56
(g57
g58
NtRp1655
(dp1656
g61
(dp1657
g69
I4
ssg70
g1651
sg63
(lp1658
g1066
asbasbasbag56
(g72
g58
NtRp1659
(dp1660
g61
(dp1661
sg70
g1019
sg63
(lp1662
g56
(g77
g58
NtRp1663
(dp1664
g61
(dp1665
g81
g82
ssg70
g1659
sg63
(lp1666
S'web2py_version'
p1667
asbag56
(g77
g58
NtRp1668
(dp1669
g61
(dp1670
g88
g89
ssg70
g1659
sg63
(lp1671
S':'
asbag56
(g77
g58
NtRp1672
(dp1673
g61
(dp1674
sg70
g1659
sg63
(lp1675
g56
(g57
g58
NtRp1676
(dp1677
g61
(dp1678
g69
I4
ssg70
g1672
sg63
(lp1679
S'Version 1.96.4 (2011-06-18 21:34:53)\n'
p1680
asbasbasbag56
(g72
g58
NtRp1681
(dp1682
g61
(dp1683
sg70
g1019
sg63
(lp1684
g56
(g77
g58
NtRp1685
(dp1686
g61
(dp1687
g81
g82
ssg70
g1681
sg63
(lp1688
S'wsgi_errors'
p1689
asbag56
(g77
g58
NtRp1690
(dp1691
g61
(dp1692
g88
g89
ssg70
g1681
sg63
(lp1693
S':'
asbag56
(g77
g58
NtRp1694
(dp1695
g61
(dp1696
sg70
g1681
sg63
(lp1697
g56
(g57
g58
NtRp1698
(dp1699
g61
(dp1700
g69
I4
ssg70
g1694
sg63
(lp1701
S"<open file '<stderr>', mode 'w' at 0xb78200d0>"
p1702
asbasbasbag56
(g72
g58
NtRp1703
(dp1704
g61
(dp1705
sg70
g1019
sg63
(lp1706
g56
(g77
g58
NtRp1707
(dp1708
g61
(dp1709
g81
g82
ssg70
g1703
sg63
(lp1710
S'wsgi_file_wrapper'
p1711
asbag56
(g77
g58
NtRp1712
(dp1713
g61
(dp1714
g88
g89
ssg70
g1703
sg63
(lp1715
S':'
asbag56
(g77
g58
NtRp1716
(dp1717
g61
(dp1718
sg70
g1703
sg63
(lp1719
g56
(g57
g58
NtRp1720
(dp1721
g61
(dp1722
g69
I4
ssg70
g1716
sg63
(lp1723
S'<class gluon.rocket.FileWrapper at 0x969cb9c>'
p1724
asbasbasbag56
(g72
g58
NtRp1725
(dp1726
g61
(dp1727
sg70
g1019
sg63
(lp1728
g56
(g77
g58
NtRp1729
(dp1730
g61
(dp1731
g81
g82
ssg70
g1725
sg63
(lp1732
S'wsgi_input'
p1733
asbag56
(g77
g58
NtRp1734
(dp1735
g61
(dp1736
g88
g89
ssg70
g1725
sg63
(lp1737
S':'
asbag56
(g77
g58
NtRp1738
(dp1739
g61
(dp1740
sg70
g1725
sg63
(lp1741
g56
(g57
g58
NtRp1742
(dp1743
g61
(dp1744
g69
I4
ssg70
g1738
sg63
(lp1745
S'<socket._fileobject object at 0xa1ae4ec>'
p1746
asbasbasbag56
(g72
g58
NtRp1747
(dp1748
g61
(dp1749
sg70
g1019
sg63
(lp1750
g56
(g77
g58
NtRp1751
(dp1752
g61
(dp1753
g81
g82
ssg70
g1747
sg63
(lp1754
S'wsgi_multiprocess'
p1755
asbag56
(g77
g58
NtRp1756
(dp1757
g61
(dp1758
g88
g89
ssg70
g1747
sg63
(lp1759
S':'
asbag56
(g77
g58
NtRp1760
(dp1761
g61
(dp1762
sg70
g1747
sg63
(lp1763
g56
(g57
g58
NtRp1764
(dp1765
g61
(dp1766
g69
I4
ssg70
g1760
sg63
(lp1767
g99
asbasbasbag56
(g72
g58
NtRp1768
(dp1769
g61
(dp1770
sg70
g1019
sg63
(lp1771
g56
(g77
g58
NtRp1772
(dp1773
g61
(dp1774
g81
g82
ssg70
g1768
sg63
(lp1775
S'wsgi_multithread'
p1776
asbag56
(g77
g58
NtRp1777
(dp1778
g61
(dp1779
g88
g89
ssg70
g1768
sg63
(lp1780
S':'
asbag56
(g77
g58
NtRp1781
(dp1782
g61
(dp1783
sg70
g1768
sg63
(lp1784
g56
(g57
g58
NtRp1785
(dp1786
g61
(dp1787
g69
I4
ssg70
g1781
sg63
(lp1788
S'True'
p1789
asbasbasbag56
(g72
g58
NtRp1790
(dp1791
g61
(dp1792
sg70
g1019
sg63
(lp1793
g56
(g77
g58
NtRp1794
(dp1795
g61
(dp1796
g81
g82
ssg70
g1790
sg63
(lp1797
S'wsgi_run_once'
p1798
asbag56
(g77
g58
NtRp1799
(dp1800
g61
(dp1801
g88
g89
ssg70
g1790
sg63
(lp1802
S':'
asbag56
(g77
g58
NtRp1803
(dp1804
g61
(dp1805
sg70
g1790
sg63
(lp1806
g56
(g57
g58
NtRp1807
(dp1808
g61
(dp1809
g69
I4
ssg70
g1803
sg63
(lp1810
g99
asbasbasbag56
(g72
g58
NtRp1811
(dp1812
g61
(dp1813
sg70
g1019
sg63
(lp1814
g56
(g77
g58
NtRp1815
(dp1816
g61
(dp1817
g81
g82
ssg70
g1811
sg63
(lp1818
S'wsgi_url_scheme'
p1819
asbag56
(g77
g58
NtRp1820
(dp1821
g61
(dp1822
g88
g89
ssg70
g1811
sg63
(lp1823
S':'
asbag56
(g77
g58
NtRp1824
(dp1825
g61
(dp1826
sg70
g1811
sg63
(lp1827
g56
(g57
g58
NtRp1828
(dp1829
g61
(dp1830
g69
I4
ssg70
g1824
sg63
(lp1831
S'http'
p1832
asbasbasbag56
(g72
g58
NtRp1833
(dp1834
g61
(dp1835
sg70
g1019
sg63
(lp1836
g56
(g77
g58
NtRp1837
(dp1838
g61
(dp1839
g81
g82
ssg70
g1833
sg63
(lp1840
S'wsgi_version'
p1841
asbag56
(g77
g58
NtRp1842
(dp1843
g61
(dp1844
g88
g89
ssg70
g1833
sg63
(lp1845
S':'
asbag56
(g77
g58
NtRp1846
(dp1847
g61
(dp1848
sg70
g1833
sg63
(lp1849
g56
(g57
g58
NtRp1850
(dp1851
g61
(dp1852
g69
I4
ssg70
g1846
sg63
(lp1853
g56
(g65
g58
NtRp1854
(dp1855
g61
(dp1856
g69
I3
ssg70
Nsg63
(lp1857
g56
(g72
g58
NtRp1858
(dp1859
g61
(dp1860
sg70
g1854
sg63
(lp1861
g56
(g77
g58
NtRp1862
(dp1863
g61
(dp1864
sg70
g1858
sg63
(lp1865
g56
(g57
g58
NtRp1866
(dp1867
g61
(dp1868
g69
I3
ssg70
g1862
sg63
(lp1869
S'1'
asbasbasbag56
(g72
g58
NtRp1870
(dp1871
g61
(dp1872
sg70
g1854
sg63
(lp1873
g56
(g77
g58
NtRp1874
(dp1875
g61
(dp1876
sg70
g1870
sg63
(lp1877
g56
(g57
g58
NtRp1878
(dp1879
g61
(dp1880
g69
I3
ssg70
g1874
sg63
(lp1881
S'0'
asbasbasbasbasbasbasbasbasbasbasbag56
(g72
g58
NtRp1882
(dp1883
g61
(dp1884
sg70
g66
sg63
(lp1885
g56
(g77
g58
NtRp1886
(dp1887
g61
(dp1888
g81
g82
ssg70
g1882
sg63
(lp1889
S'extension'
p1890
asbag56
(g77
g58
NtRp1891
(dp1892
g61
(dp1893
g88
g89
ssg70
g1882
sg63
(lp1894
S':'
asbag56
(g77
g58
NtRp1895
(dp1896
g61
(dp1897
sg70
g1882
sg63
(lp1898
g56
(g57
g58
NtRp1899
(dp1900
g61
(dp1901
g69
I5
ssg70
g1895
sg63
(lp1902
S'html'
p1903
asbasbasbag56
(g72
g58
NtRp1904
(dp1905
g61
(dp1906
sg70
g66
sg63
(lp1907
g56
(g77
g58
NtRp1908
(dp1909
g61
(dp1910
g81
g82
ssg70
g1904
sg63
(lp1911
S'folder'
p1912
asbag56
(g77
g58
NtRp1913
(dp1914
g61
(dp1915
g88
g89
ssg70
g1904
sg63
(lp1916
S':'
asbag56
(g77
g58
NtRp1917
(dp1918
g61
(dp1919
sg70
g1904
sg63
(lp1920
g56
(g57
g58
NtRp1921
(dp1922
g61
(dp1923
g69
I5
ssg70
g1917
sg63
(lp1924
S'/home/alumno/web2py/applications/datos/'
p1925
asbasbasbag56
(g72
g58
NtRp1926
(dp1927
g61
(dp1928
sg70
g66
sg63
(lp1929
g56
(g77
g58
NtRp1930
(dp1931
g61
(dp1932
g81
g82
ssg70
g1926
sg63
(lp1933
S'function'
p1934
asbag56
(g77
g58
NtRp1935
(dp1936
g61
(dp1937
g88
g89
ssg70
g1926
sg63
(lp1938
S':'
asbag56
(g77
g58
NtRp1939
(dp1940
g61
(dp1941
sg70
g1926
sg63
(lp1942
g56
(g57
g58
NtRp1943
(dp1944
g61
(dp1945
g69
I5
ssg70
g1939
sg63
(lp1946
S'detalle'
p1947
asbasbasbag56
(g72
g58
NtRp1948
(dp1949
g61
(dp1950
sg70
g66
sg63
(lp1951
g56
(g77
g58
NtRp1952
(dp1953
g61
(dp1954
g81
g82
ssg70
g1948
sg63
(lp1955
S'get_vars'
p1956
asbag56
(g77
g58
NtRp1957
(dp1958
g61
(dp1959
g88
g89
ssg70
g1948
sg63
(lp1960
S':'
asbag56
(g77
g58
NtRp1961
(dp1962
g61
(dp1963
sg70
g1948
sg63
(lp1964
g56
(g57
g58
NtRp1965
(dp1966
g61
(dp1967
g69
I5
ssg70
g1961
sg63
(lp1968
g56
(g65
g58
NtRp1969
(dp1970
g61
(dp1971
g69
I4
ssg70
Nsg63
(lp1972
sbasbasbasbag56
(g72
g58
NtRp1973
(dp1974
g61
(dp1975
sg70
g66
sg63
(lp1976
g56
(g77
g58
NtRp1977
(dp1978
g61
(dp1979
g81
g82
ssg70
g1973
sg63
(lp1980
S'is_https'
p1981
asbag56
(g77
g58
NtRp1982
(dp1983
g61
(dp1984
g88
g89
ssg70
g1973
sg63
(lp1985
S':'
asbag56
(g77
g58
NtRp1986
(dp1987
g61
(dp1988
sg70
g1973
sg63
(lp1989
g56
(g57
g58
NtRp1990
(dp1991
g61
(dp1992
g69
I5
ssg70
g1986
sg63
(lp1993
g99
asbasbasbag56
(g72
g58
NtRp1994
(dp1995
g61
(dp1996
sg70
g66
sg63
(lp1997
g56
(g77
g58
NtRp1998
(dp1999
g61
(dp2000
g81
g82
ssg70
g1994
sg63
(lp2001
S'is_local'
p2002
asbag56
(g77
g58
NtRp2003
(dp2004
g61
(dp2005
g88
g89
ssg70
g1994
sg63
(lp2006
S':'
asbag56
(g77
g58
NtRp2007
(dp2008
g61
(dp2009
sg70
g1994
sg63
(lp2010
g56
(g57
g58
NtRp2011
(dp2012
g61
(dp2013
g69
I5
ssg70
g2007
sg63
(lp2014
g1789
asbasbasbag56
(g72
g58
NtRp2015
(dp2016
g61
(dp2017
sg70
g66
sg63
(lp2018
g56
(g77
g58
NtRp2019
(dp2020
g61
(dp2021
g81
g82
ssg70
g2015
sg63
(lp2022
S'is_restful'
p2023
asbag56
(g77
g58
NtRp2024
(dp2025
g61
(dp2026
g88
g89
ssg70
g2015
sg63
(lp2027
S':'
asbag56
(g77
g58
NtRp2028
(dp2029
g61
(dp2030
sg70
g2015
sg63
(lp2031
g56
(g57
g58
NtRp2032
(dp2033
g61
(dp2034
g69
I5
ssg70
g2028
sg63
(lp2035
g99
asbasbasbag56
(g72
g58
NtRp2036
(dp2037
g61
(dp2038
sg70
g66
sg63
(lp2039
g56
(g77
g58
NtRp2040
(dp2041
g61
(dp2042
g81
g82
ssg70
g2036
sg63
(lp2043
S'now'
p2044
asbag56
(g77
g58
NtRp2045
(dp2046
g61
(dp2047
g88
g89
ssg70
g2036
sg63
(lp2048
S':'
asbag56
(g77
g58
NtRp2049
(dp2050
g61
(dp2051
sg70
g2036
sg63
(lp2052
g56
(g57
g58
NtRp2053
(dp2054
g61
(dp2055
g69
I5
ssg70
g2049
sg63
(lp2056
S'datetime.datetime(2011, 9, 7, 20, 50, 29, 465391)'
p2057
asbasbasbag56
(g72
g58
NtRp2058
(dp2059
g61
(dp2060
sg70
g66
sg63
(lp2061
g56
(g77
g58
NtRp2062
(dp2063
g61
(dp2064
g81
g82
ssg70
g2058
sg63
(lp2065
S'post_vars'
p2066
asbag56
(g77
g58
NtRp2067
(dp2068
g61
(dp2069
g88
g89
ssg70
g2058
sg63
(lp2070
S':'
asbag56
(g77
g58
NtRp2071
(dp2072
g61
(dp2073
sg70
g2058
sg63
(lp2074
g56
(g57
g58
NtRp2075
(dp2076
g61
(dp2077
g69
I5
ssg70
g2071
sg63
(lp2078
g56
(g65
g58
NtRp2079
(dp2080
g61
(dp2081
g69
I4
ssg70
Nsg63
(lp2082
sbasbasbasbag56
(g72
g58
NtRp2083
(dp2084
g61
(dp2085
sg70
g66
sg63
(lp2086
g56
(g77
g58
NtRp2087
(dp2088
g61
(dp2089
g81
g82
ssg70
g2083
sg63
(lp2090
S'raw_args'
p2091
asbag56
(g77
g58
NtRp2092
(dp2093
g61
(dp2094
g88
g89
ssg70
g2083
sg63
(lp2095
S':'
asbag56
(g77
g58
NtRp2096
(dp2097
g61
(dp2098
sg70
g2083
sg63
(lp2099
g56
(g57
g58
NtRp2100
(dp2101
g61
(dp2102
g69
I5
ssg70
g2096
sg63
(lp2103
g158
asbasbasbag56
(g72
g58
NtRp2104
(dp2105
g61
(dp2106
sg70
g66
sg63
(lp2107
g56
(g77
g58
NtRp2108
(dp2109
g61
(dp2110
g81
g82
ssg70
g2104
sg63
(lp2111
S'url'
p2112
asbag56
(g77
g58
NtRp2113
(dp2114
g61
(dp2115
g88
g89
ssg70
g2104
sg63
(lp2116
S':'
asbag56
(g77
g58
NtRp2117
(dp2118
g61
(dp2119
sg70
g2104
sg63
(lp2120
g56
(g57
g58
NtRp2121
(dp2122
g61
(dp2123
g69
I5
ssg70
g2117
sg63
(lp2124
S'/datos/default/detalle/a001'
p2125
asbasbasbag56
(g72
g58
NtRp2126
(dp2127
g61
(dp2128
sg70
g66
sg63
(lp2129
g56
(g77
g58
NtRp2130
(dp2131
g61
(dp2132
g81
g82
ssg70
g2126
sg63
(lp2133
S'uuid'
p2134
asbag56
(g77
g58
NtRp2135
(dp2136
g61
(dp2137
g88
g89
ssg70
g2126
sg63
(lp2138
S':'
asbag56
(g77
g58
NtRp2139
(dp2140
g61
(dp2141
sg70
g2126
sg63
(lp2142
g56
(g57
g58
NtRp2143
(dp2144
g61
(dp2145
g69
I5
ssg70
g2139
sg63
(lp2146
S'datos/127.0.0.1.2011-09-07.20-50-29.5307c704-3747-4d21-87a2-8d70064118e7'
p2147
asbasbasbag56
(g72
g58
NtRp2148
(dp2149
g61
(dp2150
sg70
g66
sg63
(lp2151
g56
(g77
g58
NtRp2152
(dp2153
g61
(dp2154
g81
g82
ssg70
g2148
sg63
(lp2155
S'vars'
p2156
asbag56
(g77
g58
NtRp2157
(dp2158
g61
(dp2159
g88
g89
ssg70
g2148
sg63
(lp2160
S':'
asbag56
(g77
g58
NtRp2161
(dp2162
g61
(dp2163
sg70
g2148
sg63
(lp2164
g56
(g57
g58
NtRp2165
(dp2166
g61
(dp2167
g69
I5
ssg70
g2161
sg63
(lp2168
g56
(g65
g58
NtRp2169
(dp2170
g61
(dp2171
g69
I4
ssg70
Nsg63
(lp2172
sbasbasbasbag56
(g72
g58
NtRp2173
(dp2174
g61
(dp2175
sg70
g66
sg63
(lp2176
g56
(g77
g58
NtRp2177
(dp2178
g61
(dp2179
g81
g82
ssg70
g2173
sg63
(lp2180
S'wsgi'
p2181
asbag56
(g77
g58
NtRp2182
(dp2183
g61
(dp2184
g88
g89
ssg70
g2173
sg63
(lp2185
S':'
asbag56
(g77
g58
NtRp2186
(dp2187
g61
(dp2188
sg70
g2173
sg63
(lp2189
g56
(g57
g58
NtRp2190
(dp2191
g61
(dp2192
g69
I5
ssg70
g2186
sg63
(lp2193
g56
(g65
g58
NtRp2194
(dp2195
g61
(dp2196
g69
I4
ssg70
Nsg63
(lp2197
g56
(g72
g58
NtRp2198
(dp2199
g61
(dp2200
sg70
g2194
sg63
(lp2201
g56
(g77
g58
NtRp2202
(dp2203
g61
(dp2204
g81
g82
ssg70
g2198
sg63
(lp2205
S'environ'
p2206
asbag56
(g77
g58
NtRp2207
(dp2208
g61
(dp2209
g88
g89
ssg70
g2198
sg63
(lp2210
S':'
asbag56
(g77
g58
NtRp2211
(dp2212
g61
(dp2213
sg70
g2198
sg63
(lp2214
g56
(g57
g58
NtRp2215
(dp2216
g61
(dp2217
g69
I4
ssg70
g2211
sg63
(lp2218
g56
(g65
g58
NtRp2219
(dp2220
g61
(dp2221
g69
I3
ssg70
Nsg63
(lp2222
g56
(g72
g58
NtRp2223
(dp2224
g61
(dp2225
sg70
g2219
sg63
(lp2226
g56
(g77
g58
NtRp2227
(dp2228
g61
(dp2229
g81
g82
ssg70
g2223
sg63
(lp2230
S'HTTP_ACCEPT'
p2231
asbag56
(g77
g58
NtRp2232
(dp2233
g61
(dp2234
g88
g89
ssg70
g2223
sg63
(lp2235
S':'
asbag56
(g77
g58
NtRp2236
(dp2237
g61
(dp2238
sg70
g2223
sg63
(lp2239
g56
(g57
g58
NtRp2240
(dp2241
g61
(dp2242
g69
I3
ssg70
g2236
sg63
(lp2243
g1200
asbasbasbag56
(g72
g58
NtRp2244
(dp2245
g61
(dp2246
sg70
g2219
sg63
(lp2247
g56
(g77
g58
NtRp2248
(dp2249
g61
(dp2250
g81
g82
ssg70
g2244
sg63
(lp2251
S'HTTP_ACCEPT_CHARSET'
p2252
asbag56
(g77
g58
NtRp2253
(dp2254
g61
(dp2255
g88
g89
ssg70
g2244
sg63
(lp2256
S':'
asbag56
(g77
g58
NtRp2257
(dp2258
g61
(dp2259
sg70
g2244
sg63
(lp2260
g56
(g57
g58
NtRp2261
(dp2262
g61
(dp2263
g69
I3
ssg70
g2257
sg63
(lp2264
g1222
asbasbasbag56
(g72
g58
NtRp2265
(dp2266
g61
(dp2267
sg70
g2219
sg63
(lp2268
g56
(g77
g58
NtRp2269
(dp2270
g61
(dp2271
g81
g82
ssg70
g2265
sg63
(lp2272
S'HTTP_ACCEPT_ENCODING'
p2273
asbag56
(g77
g58
NtRp2274
(dp2275
g61
(dp2276
g88
g89
ssg70
g2265
sg63
(lp2277
S':'
asbag56
(g77
g58
NtRp2278
(dp2279
g61
(dp2280
sg70
g2265
sg63
(lp2281
g56
(g57
g58
NtRp2282
(dp2283
g61
(dp2284
g69
I3
ssg70
g2278
sg63
(lp2285
g1244
asbasbasbag56
(g72
g58
NtRp2286
(dp2287
g61
(dp2288
sg70
g2219
sg63
(lp2289
g56
(g77
g58
NtRp2290
(dp2291
g61
(dp2292
g81
g82
ssg70
g2286
sg63
(lp2293
S'HTTP_ACCEPT_LANGUAGE'
p2294
asbag56
(g77
g58
NtRp2295
(dp2296
g61
(dp2297
g88
g89
ssg70
g2286
sg63
(lp2298
S':'
asbag56
(g77
g58
NtRp2299
(dp2300
g61
(dp2301
sg70
g2286
sg63
(lp2302
g56
(g57
g58
NtRp2303
(dp2304
g61
(dp2305
g69
I3
ssg70
g2299
sg63
(lp2306
g1266
asbasbasbag56
(g72
g58
NtRp2307
(dp2308
g61
(dp2309
sg70
g2219
sg63
(lp2310
g56
(g77
g58
NtRp2311
(dp2312
g61
(dp2313
g81
g82
ssg70
g2307
sg63
(lp2314
S'HTTP_CACHE_CONTROL'
p2315
asbag56
(g77
g58
NtRp2316
(dp2317
g61
(dp2318
g88
g89
ssg70
g2307
sg63
(lp2319
S':'
asbag56
(g77
g58
NtRp2320
(dp2321
g61
(dp2322
sg70
g2307
sg63
(lp2323
g56
(g57
g58
NtRp2324
(dp2325
g61
(dp2326
g69
I3
ssg70
g2320
sg63
(lp2327
g1288
asbasbasbag56
(g72
g58
NtRp2328
(dp2329
g61
(dp2330
sg70
g2219
sg63
(lp2331
g56
(g77
g58
NtRp2332
(dp2333
g61
(dp2334
g81
g82
ssg70
g2328
sg63
(lp2335
S'HTTP_CONNECTION'
p2336
asbag56
(g77
g58
NtRp2337
(dp2338
g61
(dp2339
g88
g89
ssg70
g2328
sg63
(lp2340
S':'
asbag56
(g77
g58
NtRp2341
(dp2342
g61
(dp2343
sg70
g2328
sg63
(lp2344
g56
(g57
g58
NtRp2345
(dp2346
g61
(dp2347
g69
I3
ssg70
g2341
sg63
(lp2348
g1310
asbasbasbag56
(g72
g58
NtRp2349
(dp2350
g61
(dp2351
sg70
g2219
sg63
(lp2352
g56
(g77
g58
NtRp2353
(dp2354
g61
(dp2355
g81
g82
ssg70
g2349
sg63
(lp2356
S'HTTP_COOKIE'
p2357
asbag56
(g77
g58
NtRp2358
(dp2359
g61
(dp2360
g88
g89
ssg70
g2349
sg63
(lp2361
S':'
asbag56
(g77
g58
NtRp2362
(dp2363
g61
(dp2364
sg70
g2349
sg63
(lp2365
g56
(g57
g58
NtRp2366
(dp2367
g61
(dp2368
g69
I3
ssg70
g2362
sg63
(lp2369
g1332
asbasbasbag56
(g72
g58
NtRp2370
(dp2371
g61
(dp2372
sg70
g2219
sg63
(lp2373
g56
(g77
g58
NtRp2374
(dp2375
g61
(dp2376
g81
g82
ssg70
g2370
sg63
(lp2377
S'HTTP_HOST'
p2378
asbag56
(g77
g58
NtRp2379
(dp2380
g61
(dp2381
g88
g89
ssg70
g2370
sg63
(lp2382
S':'
asbag56
(g77
g58
NtRp2383
(dp2384
g61
(dp2385
sg70
g2370
sg63
(lp2386
g56
(g57
g58
NtRp2387
(dp2388
g61
(dp2389
g69
I3
ssg70
g2383
sg63
(lp2390
g1354
asbasbasbag56
(g72
g58
NtRp2391
(dp2392
g61
(dp2393
sg70
g2219
sg63
(lp2394
g56
(g77
g58
NtRp2395
(dp2396
g61
(dp2397
g81
g82
ssg70
g2391
sg63
(lp2398
S'HTTP_REFERER'
p2399
asbag56
(g77
g58
NtRp2400
(dp2401
g61
(dp2402
g88
g89
ssg70
g2391
sg63
(lp2403
S':'
asbag56
(g77
g58
NtRp2404
(dp2405
g61
(dp2406
sg70
g2391
sg63
(lp2407
g56
(g57
g58
NtRp2408
(dp2409
g61
(dp2410
g69
I3
ssg70
g2404
sg63
(lp2411
g1376
asbasbasbag56
(g72
g58
NtRp2412
(dp2413
g61
(dp2414
sg70
g2219
sg63
(lp2415
g56
(g77
g58
NtRp2416
(dp2417
g61
(dp2418
g81
g82
ssg70
g2412
sg63
(lp2419
S'HTTP_USER_AGENT'
p2420
asbag56
(g77
g58
NtRp2421
(dp2422
g61
(dp2423
g88
g89
ssg70
g2412
sg63
(lp2424
S':'
asbag56
(g77
g58
NtRp2425
(dp2426
g61
(dp2427
sg70
g2412
sg63
(lp2428
g56
(g57
g58
NtRp2429
(dp2430
g61
(dp2431
g69
I3
ssg70
g2425
sg63
(lp2432
g1398
asbasbasbag56
(g72
g58
NtRp2433
(dp2434
g61
(dp2435
sg70
g2219
sg63
(lp2436
g56
(g77
g58
NtRp2437
(dp2438
g61
(dp2439
g81
g82
ssg70
g2433
sg63
(lp2440
S'PATH_INFO'
p2441
asbag56
(g77
g58
NtRp2442
(dp2443
g61
(dp2444
g88
g89
ssg70
g2433
sg63
(lp2445
S':'
asbag56
(g77
g58
NtRp2446
(dp2447
g61
(dp2448
sg70
g2433
sg63
(lp2449
g56
(g57
g58
NtRp2450
(dp2451
g61
(dp2452
g69
I3
ssg70
g2446
sg63
(lp2453
g1420
asbasbasbag56
(g72
g58
NtRp2454
(dp2455
g61
(dp2456
sg70
g2219
sg63
(lp2457
g56
(g77
g58
NtRp2458
(dp2459
g61
(dp2460
g81
g82
ssg70
g2454
sg63
(lp2461
S'QUERY_STRING'
p2462
asbag56
(g77
g58
NtRp2463
(dp2464
g61
(dp2465
g88
g89
ssg70
g2454
sg63
(lp2466
S':'
asbag56
(g77
g58
NtRp2467
(dp2468
g61
(dp2469
sg70
g2454
sg63
(lp2470
g56
(g57
g58
NtRp2471
(dp2472
g61
(dp2473
g69
I3
ssg70
g2467
sg63
(lp2474
S''
asbasbasbag56
(g72
g58
NtRp2475
(dp2476
g61
(dp2477
sg70
g2219
sg63
(lp2478
g56
(g77
g58
NtRp2479
(dp2480
g61
(dp2481
g81
g82
ssg70
g2475
sg63
(lp2482
S'REMOTE_ADDR'
p2483
asbag56
(g77
g58
NtRp2484
(dp2485
g61
(dp2486
g88
g89
ssg70
g2475
sg63
(lp2487
S':'
asbag56
(g77
g58
NtRp2488
(dp2489
g61
(dp2490
sg70
g2475
sg63
(lp2491
g56
(g57
g58
NtRp2492
(dp2493
g61
(dp2494
g69
I3
ssg70
g2488
sg63
(lp2495
g202
asbasbasbag56
(g72
g58
NtRp2496
(dp2497
g61
(dp2498
sg70
g2219
sg63
(lp2499
g56
(g77
g58
NtRp2500
(dp2501
g61
(dp2502
g81
g82
ssg70
g2496
sg63
(lp2503
S'REMOTE_PORT'
p2504
asbag56
(g77
g58
NtRp2505
(dp2506
g61
(dp2507
g88
g89
ssg70
g2496
sg63
(lp2508
S':'
asbag56
(g77
g58
NtRp2509
(dp2510
g61
(dp2511
sg70
g2496
sg63
(lp2512
g56
(g57
g58
NtRp2513
(dp2514
g61
(dp2515
g69
I3
ssg70
g2509
sg63
(lp2516
g1484
asbasbasbag56
(g72
g58
NtRp2517
(dp2518
g61
(dp2519
sg70
g2219
sg63
(lp2520
g56
(g77
g58
NtRp2521
(dp2522
g61
(dp2523
g81
g82
ssg70
g2517
sg63
(lp2524
S'REQUEST_METHOD'
p2525
asbag56
(g77
g58
NtRp2526
(dp2527
g61
(dp2528
g88
g89
ssg70
g2517
sg63
(lp2529
S':'
asbag56
(g77
g58
NtRp2530
(dp2531
g61
(dp2532
sg70
g2517
sg63
(lp2533
g56
(g57
g58
NtRp2534
(dp2535
g61
(dp2536
g69
I3
ssg70
g2530
sg63
(lp2537
g1506
asbasbasbag56
(g72
g58
NtRp2538
(dp2539
g61
(dp2540
sg70
g2219
sg63
(lp2541
g56
(g77
g58
NtRp2542
(dp2543
g61
(dp2544
g81
g82
ssg70
g2538
sg63
(lp2545
S'SCRIPT_NAME'
p2546
asbag56
(g77
g58
NtRp2547
(dp2548
g61
(dp2549
g88
g89
ssg70
g2538
sg63
(lp2550
S':'
asbag56
(g77
g58
NtRp2551
(dp2552
g61
(dp2553
sg70
g2538
sg63
(lp2554
g56
(g57
g58
NtRp2555
(dp2556
g61
(dp2557
g69
I3
ssg70
g2551
sg63
(lp2558
S''
asbasbasbag56
(g72
g58
NtRp2559
(dp2560
g61
(dp2561
sg70
g2219
sg63
(lp2562
g56
(g77
g58
NtRp2563
(dp2564
g61
(dp2565
g81
g82
ssg70
g2559
sg63
(lp2566
S'SERVER_NAME'
p2567
asbag56
(g77
g58
NtRp2568
(dp2569
g61
(dp2570
g88
g89
ssg70
g2559
sg63
(lp2571
S':'
asbag56
(g77
g58
NtRp2572
(dp2573
g61
(dp2574
sg70
g2559
sg63
(lp2575
g56
(g57
g58
NtRp2576
(dp2577
g61
(dp2578
g69
I3
ssg70
g2572
sg63
(lp2579
g1549
asbasbasbag56
(g72
g58
NtRp2580
(dp2581
g61
(dp2582
sg70
g2219
sg63
(lp2583
g56
(g77
g58
NtRp2584
(dp2585
g61
(dp2586
g81
g82
ssg70
g2580
sg63
(lp2587
S'SERVER_PORT'
p2588
asbag56
(g77
g58
NtRp2589
(dp2590
g61
(dp2591
g88
g89
ssg70
g2580
sg63
(lp2592
S':'
asbag56
(g77
g58
NtRp2593
(dp2594
g61
(dp2595
sg70
g2580
sg63
(lp2596
g56
(g57
g58
NtRp2597
(dp2598
g61
(dp2599
g69
I3
ssg70
g2593
sg63
(lp2600
g1571
asbasbasbag56
(g72
g58
NtRp2601
(dp2602
g61
(dp2603
sg70
g2219
sg63
(lp2604
g56
(g77
g58
NtRp2605
(dp2606
g61
(dp2607
g81
g82
ssg70
g2601
sg63
(lp2608
S'SERVER_PROTOCOL'
p2609
asbag56
(g77
g58
NtRp2610
(dp2611
g61
(dp2612
g88
g89
ssg70
g2601
sg63
(lp2613
S':'
asbag56
(g77
g58
NtRp2614
(dp2615
g61
(dp2616
sg70
g2601
sg63
(lp2617
g56
(g57
g58
NtRp2618
(dp2619
g61
(dp2620
g69
I3
ssg70
g2614
sg63
(lp2621
g1593
asbasbasbag56
(g72
g58
NtRp2622
(dp2623
g61
(dp2624
sg70
g2219
sg63
(lp2625
g56
(g77
g58
NtRp2626
(dp2627
g61
(dp2628
g81
g82
ssg70
g2622
sg63
(lp2629
S'SERVER_SOFTWARE'
p2630
asbag56
(g77
g58
NtRp2631
(dp2632
g61
(dp2633
g88
g89
ssg70
g2622
sg63
(lp2634
S':'
asbag56
(g77
g58
NtRp2635
(dp2636
g61
(dp2637
sg70
g2622
sg63
(lp2638
g56
(g57
g58
NtRp2639
(dp2640
g61
(dp2641
g69
I3
ssg70
g2635
sg63
(lp2642
g1615
asbasbasbag56
(g72
g58
NtRp2643
(dp2644
g61
(dp2645
sg70
g2219
sg63
(lp2646
g56
(g77
g58
NtRp2647
(dp2648
g61
(dp2649
g81
g82
ssg70
g2643
sg63
(lp2650
S'wsgi.errors'
p2651
asbag56
(g77
g58
NtRp2652
(dp2653
g61
(dp2654
g88
g89
ssg70
g2643
sg63
(lp2655
S':'
asbag56
(g77
g58
NtRp2656
(dp2657
g61
(dp2658
sg70
g2643
sg63
(lp2659
g56
(g57
g58
NtRp2660
(dp2661
g61
(dp2662
g69
I3
ssg70
g2656
sg63
(lp2663
S"<open file '<stderr>', mode 'w' at 0xb78200d0>"
p2664
asbasbasbag56
(g72
g58
NtRp2665
(dp2666
g61
(dp2667
sg70
g2219
sg63
(lp2668
g56
(g77
g58
NtRp2669
(dp2670
g61
(dp2671
g81
g82
ssg70
g2665
sg63
(lp2672
S'wsgi.file_wrapper'
p2673
asbag56
(g77
g58
NtRp2674
(dp2675
g61
(dp2676
g88
g89
ssg70
g2665
sg63
(lp2677
S':'
asbag56
(g77
g58
NtRp2678
(dp2679
g61
(dp2680
sg70
g2665
sg63
(lp2681
g56
(g57
g58
NtRp2682
(dp2683
g61
(dp2684
g69
I3
ssg70
g2678
sg63
(lp2685
S'<class gluon.rocket.FileWrapper at 0x969cb9c>'
p2686
asbasbasbag56
(g72
g58
NtRp2687
(dp2688
g61
(dp2689
sg70
g2219
sg63
(lp2690
g56
(g77
g58
NtRp2691
(dp2692
g61
(dp2693
g81
g82
ssg70
g2687
sg63
(lp2694
S'wsgi.input'
p2695
asbag56
(g77
g58
NtRp2696
(dp2697
g61
(dp2698
g88
g89
ssg70
g2687
sg63
(lp2699
S':'
asbag56
(g77
g58
NtRp2700
(dp2701
g61
(dp2702
sg70
g2687
sg63
(lp2703
g56
(g57
g58
NtRp2704
(dp2705
g61
(dp2706
g69
I3
ssg70
g2700
sg63
(lp2707
S'<cStringIO.StringO object at 0x97f9960>'
p2708
asbasbasbag56
(g72
g58
NtRp2709
(dp2710
g61
(dp2711
sg70
g2219
sg63
(lp2712
g56
(g77
g58
NtRp2713
(dp2714
g61
(dp2715
g81
g82
ssg70
g2709
sg63
(lp2716
S'wsgi.multiprocess'
p2717
asbag56
(g77
g58
NtRp2718
(dp2719
g61
(dp2720
g88
g89
ssg70
g2709
sg63
(lp2721
S':'
asbag56
(g77
g58
NtRp2722
(dp2723
g61
(dp2724
sg70
g2709
sg63
(lp2725
g56
(g57
g58
NtRp2726
(dp2727
g61
(dp2728
g69
I3
ssg70
g2722
sg63
(lp2729
g99
asbasbasbag56
(g72
g58
NtRp2730
(dp2731
g61
(dp2732
sg70
g2219
sg63
(lp2733
g56
(g77
g58
NtRp2734
(dp2735
g61
(dp2736
g81
g82
ssg70
g2730
sg63
(lp2737
S'wsgi.multithread'
p2738
asbag56
(g77
g58
NtRp2739
(dp2740
g61
(dp2741
g88
g89
ssg70
g2730
sg63
(lp2742
S':'
asbag56
(g77
g58
NtRp2743
(dp2744
g61
(dp2745
sg70
g2730
sg63
(lp2746
g56
(g57
g58
NtRp2747
(dp2748
g61
(dp2749
g69
I3
ssg70
g2743
sg63
(lp2750
g1789
asbasbasbag56
(g72
g58
NtRp2751
(dp2752
g61
(dp2753
sg70
g2219
sg63
(lp2754
g56
(g77
g58
NtRp2755
(dp2756
g61
(dp2757
g81
g82
ssg70
g2751
sg63
(lp2758
S'wsgi.run_once'
p2759
asbag56
(g77
g58
NtRp2760
(dp2761
g61
(dp2762
g88
g89
ssg70
g2751
sg63
(lp2763
S':'
asbag56
(g77
g58
NtRp2764
(dp2765
g61
(dp2766
sg70
g2751
sg63
(lp2767
g56
(g57
g58
NtRp2768
(dp2769
g61
(dp2770
g69
I3
ssg70
g2764
sg63
(lp2771
g99
asbasbasbag56
(g72
g58
NtRp2772
(dp2773
g61
(dp2774
sg70
g2219
sg63
(lp2775
g56
(g77
g58
NtRp2776
(dp2777
g61
(dp2778
g81
g82
ssg70
g2772
sg63
(lp2779
S'wsgi.url_scheme'
p2780
asbag56
(g77
g58
NtRp2781
(dp2782
g61
(dp2783
g88
g89
ssg70
g2772
sg63
(lp2784
S':'
asbag56
(g77
g58
NtRp2785
(dp2786
g61
(dp2787
sg70
g2772
sg63
(lp2788
g56
(g57
g58
NtRp2789
(dp2790
g61
(dp2791
g69
I3
ssg70
g2785
sg63
(lp2792
g1832
asbasbasbag56
(g72
g58
NtRp2793
(dp2794
g61
(dp2795
sg70
g2219
sg63
(lp2796
g56
(g77
g58
NtRp2797
(dp2798
g61
(dp2799
g81
g82
ssg70
g2793
sg63
(lp2800
S'wsgi.version'
p2801
asbag56
(g77
g58
NtRp2802
(dp2803
g61
(dp2804
g88
g89
ssg70
g2793
sg63
(lp2805
S':'
asbag56
(g77
g58
NtRp2806
(dp2807
g61
(dp2808
sg70
g2793
sg63
(lp2809
g56
(g57
g58
NtRp2810
(dp2811
g61
(dp2812
g69
I3
ssg70
g2806
sg63
(lp2813
S'1'
asbasbasbasbasbasbasbasbasbasbasbasbasbsS'frames'
p2814
(lp2815
(dp2816
S'file'
p2817
S'/home/alumno/web2py/gluon/restricted.py'
p2818
sS'dump'
p2819
(dp2820
S'environment'
p2821
S"{'A': <class 'gluon.html.A'>, 'B': <class 'gluon.html.B'>, 'BEAUTIFY': <class 'gluon.html.BEAUTIFY'>, 'BODY': <class 'gluon.html.BODY'>, 'BR': <class 'gluon.html.BR'>, 'CENTER': <class 'gluon.html.CENTER'>, 'CLEANUP': <class 'gluon.validators.CLEANUP'>, 'CODE': <class 'gluon.html.CODE'>, 'CRYPT': <class 'gluon.validators.CRYPT'>, 'DAL': <class 'gluon.dal.DAL'>, ...}"
p2822
sS'ccode'
p2823
S'<code object <module> at 0x9ecfc38, file "/home/...ations/datos/views/default/detalle.html", line 1>'
p2824
ssS'lnum'
p2825
I192
sS'lines'
p2826
(dp2827
I192
S'        exec ccode in environment'
p2828
sI193
S'    except HTTP:'
p2829
sI194
S'        raise'
p2830
sI195
S'    except Exception:'
p2831
sI196
S'        # XXX Show exception in Wing IDE if running in debugger'
p2832
sI187
S'    try:'
p2833
sI188
S'        if type(code) == types.CodeType:'
p2834
sI189
S'            ccode = code'
p2835
sI190
S'        else:'
p2836
sI191
S'            ccode = compile2(code,layer)'
p2837
ssS'call'
p2838
S'(code=\'response.write(\\\'<!DOCTYPE html>\\\\n<html lang="\\\', ...t   -->    \\\\n  </body>\\\\n</html>\\\\n\\\', escape=False)\', environment={\'A\': <class \'gluon.html.A\'>, \'B\': <class \'gluon.html.B\'>, \'BEAUTIFY\': <class \'gluon.html.BEAUTIFY\'>, \'BODY\': <class \'gluon.html.BODY\'>, \'BR\': <class \'gluon.html.BR\'>, \'CENTER\': <class \'gluon.html.CENTER\'>, \'CLEANUP\': <class \'gluon.validators.CLEANUP\'>, \'CODE\': <class \'gluon.html.CODE\'>, \'CRYPT\': <class \'gluon.validators.CRYPT\'>, \'DAL\': <class \'gluon.dal.DAL\'>, ...}, layer=\'/home/alumno/web2py/applications/datos/views/default/detalle.html\')'
p2839
sS'func'
p2840
S'restricted'
p2841
sa(dp2842
g2817
S'/home/alumno/web2py/applications/datos/views/default/detalle.html'
p2843
sg2819
(dp2844
sg2825
I107
sg2826
(dp2845
I98
S'response.write(XML(style_content))'
p2846
sI99
S"response.write(' >\\n\\t    ', escape=False)"
p2847
sI100
S"response.write('\\n\\n', escape=False)"
p2848
sI101
S'for dato in alumno:'
p2849
sI102
S"    response.write('\\n    <h1>', escape=False)"
p2850
sI103
S'    response.write(dato.nombre)'
p2851
sI104
S"    response.write(' ', escape=False)"
p2852
sI105
S'    dato.apellidos'
p2853
sI106
S"    response.write('</h1>\\n    <h2>codigo estudiante: ', escape=False)"
p2854
sI107
S'    data.codigo'
p2855
sI108
S"    response.write('</h2>\\n    <p>\\n    ', escape=False)"
p2856
sI109
S'    response.write(dato.nombre)'
p2857
sI110
S"    response.write(' nacio el ', escape=False)"
p2858
sI111
S'    dato.fnacimiento'
p2859
sI112
S"    response.write('.\\n    tiene como pasatiempo ', escape=False)"
p2860
sI113
S'    dato.hobby'
p2861
sI114
S'    response.write(".<br>\\n    su correo electronico es:\\n    <strong><a href=\'mailto:", escape=False)'
p2862
sI115
S'    response.write(dato.email)'
p2863
sI116
S'    response.write("\'>", escape=False)'
p2864
sI117
S'    dato.email'
p2865
ssg2838
S'()'
p2866
sg2840
S'<module>'
p2867
sasS'pyver'
p2868
S'Python 2.6.6: /usr/bin/python'
p2869
sS'session'
p2870
g56
(g57
g58
NtRp2871
(dp2872
g61
(dp2873
sg63
(lp2874
g56
(g65
g58
NtRp2875
(dp2876
g61
(dp2877
g69
I5
ssg70
Nsg63
(lp2878
g56
(g72
g58
NtRp2879
(dp2880
g61
(dp2881
sg70
g2875
sg63
(lp2882
g56
(g77
g58
NtRp2883
(dp2884
g61
(dp2885
g81
g82
ssg70
g2879
sg63
(lp2886
S'last_query'
p2887
asbag56
(g77
g58
NtRp2888
(dp2889
g61
(dp2890
g88
g89
ssg70
g2879
sg63
(lp2891
S':'
asbag56
(g77
g58
NtRp2892
(dp2893
g61
(dp2894
sg70
g2879
sg63
(lp2895
g56
(g57
g58
NtRp2896
(dp2897
g61
(dp2898
g69
I5
ssg70
g2892
sg63
(lp2899
S'db.profesor.id>0'
p2900
asbasbasbasbasbsS'etype'
p2901
S"<type 'exceptions.NameError'>"
p2902
sS'date'
p2903
S'Wed Sep  7 20:50:29 2011'
p2904
sS'response'
p2905
g56
(g57
g58
NtRp2906
(dp2907
g61
(dp2908
sg63
(lp2909
g56
(g65
g58
NtRp2910
(dp2911
g61
(dp2912
g69
I5
ssg70
Nsg63
(lp2913
g56
(g72
g58
NtRp2914
(dp2915
g61
(dp2916
sg70
g2910
sg63
(lp2917
g56
(g77
g58
NtRp2918
(dp2919
g61
(dp2920
g81
g82
ssg70
g2914
sg63
(lp2921
g167
asbag56
(g77
g58
NtRp2922
(dp2923
g61
(dp2924
g88
g89
ssg70
g2914
sg63
(lp2925
S':'
asbag56
(g77
g58
NtRp2926
(dp2927
g61
(dp2928
sg70
g2914
sg63
(lp2929
g56
(g57
g58
NtRp2930
(dp2931
g61
(dp2932
g69
I5
ssg70
g2926
sg63
(lp2933
S'<cStringIO.StringO object at 0x97f90e0>'
p2934
asbasbasbag56
(g72
g58
NtRp2935
(dp2936
g61
(dp2937
sg70
g2910
sg63
(lp2938
g56
(g77
g58
NtRp2939
(dp2940
g61
(dp2941
g81
g82
ssg70
g2935
sg63
(lp2942
g233
asbag56
(g77
g58
NtRp2943
(dp2944
g61
(dp2945
g88
g89
ssg70
g2935
sg63
(lp2946
S':'
asbag56
(g77
g58
NtRp2947
(dp2948
g61
(dp2949
sg70
g2935
sg63
(lp2950
g56
(g57
g58
NtRp2951
(dp2952
g61
(dp2953
g69
I5
ssg70
g2947
sg63
(lp2954
g56
(g65
g58
NtRp2955
(dp2956
g61
(dp2957
g69
I4
ssg70
Nsg63
(lp2958
g56
(g72
g58
NtRp2959
(dp2960
g61
(dp2961
sg70
g2955
sg63
(lp2962
g56
(g77
g58
NtRp2963
(dp2964
g61
(dp2965
g81
g82
ssg70
g2959
sg63
(lp2966
S'session_id_datos'
p2967
asbag56
(g77
g58
NtRp2968
(dp2969
g61
(dp2970
g88
g89
ssg70
g2959
sg63
(lp2971
S':'
asbag56
(g77
g58
NtRp2972
(dp2973
g61
(dp2974
sg70
g2959
sg63
(lp2975
g56
(g57
g58
NtRp2976
(dp2977
g61
(dp2978
g69
I4
ssg70
g2972
sg63
(lp2979
g56
(g65
g58
NtRp2980
(dp2981
g61
(dp2982
g69
I3
ssg70
Nsg63
(lp2983
g56
(g72
g58
NtRp2984
(dp2985
g61
(dp2986
sg70
g2980
sg63
(lp2987
g56
(g77
g58
NtRp2988
(dp2989
g61
(dp2990
g81
g82
ssg70
g2984
sg63
(lp2991
g283
asbag56
(g77
g58
NtRp2992
(dp2993
g61
(dp2994
g88
g89
ssg70
g2984
sg63
(lp2995
S':'
asbag56
(g77
g58
NtRp2996
(dp2997
g61
(dp2998
sg70
g2984
sg63
(lp2999
g56
(g57
g58
NtRp3000
(dp3001
g61
(dp3002
g69
I3
ssg70
g2996
sg63
(lp3003
S''
asbasbasbag56
(g72
g58
NtRp3004
(dp3005
g61
(dp3006
sg70
g2980
sg63
(lp3007
g56
(g77
g58
NtRp3008
(dp3009
g61
(dp3010
g81
g82
ssg70
g3004
sg63
(lp3011
g304
asbag56
(g77
g58
NtRp3012
(dp3013
g61
(dp3014
g88
g89
ssg70
g3004
sg63
(lp3015
S':'
asbag56
(g77
g58
NtRp3016
(dp3017
g61
(dp3018
sg70
g3004
sg63
(lp3019
g56
(g57
g58
NtRp3020
(dp3021
g61
(dp3022
g69
I3
ssg70
g3016
sg63
(lp3023
S''
asbasbasbag56
(g72
g58
NtRp3024
(dp3025
g61
(dp3026
sg70
g2980
sg63
(lp3027
g56
(g77
g58
NtRp3028
(dp3029
g61
(dp3030
g81
g82
ssg70
g3024
sg63
(lp3031
g325
asbag56
(g77
g58
NtRp3032
(dp3033
g61
(dp3034
g88
g89
ssg70
g3024
sg63
(lp3035
S':'
asbag56
(g77
g58
NtRp3036
(dp3037
g61
(dp3038
sg70
g3024
sg63
(lp3039
g56
(g57
g58
NtRp3040
(dp3041
g61
(dp3042
g69
I3
ssg70
g3036
sg63
(lp3043
S''
asbasbasbag56
(g72
g58
NtRp3044
(dp3045
g61
(dp3046
sg70
g2980
sg63
(lp3047
g56
(g77
g58
NtRp3048
(dp3049
g61
(dp3050
g81
g82
ssg70
g3044
sg63
(lp3051
g346
asbag56
(g77
g58
NtRp3052
(dp3053
g61
(dp3054
g88
g89
ssg70
g3044
sg63
(lp3055
S':'
asbag56
(g77
g58
NtRp3056
(dp3057
g61
(dp3058
sg70
g3044
sg63
(lp3059
g56
(g57
g58
NtRp3060
(dp3061
g61
(dp3062
g69
I3
ssg70
g3056
sg63
(lp3063
S''
asbasbasbag56
(g72
g58
NtRp3064
(dp3065
g61
(dp3066
sg70
g2980
sg63
(lp3067
g56
(g77
g58
NtRp3068
(dp3069
g61
(dp3070
g81
g82
ssg70
g3064
sg63
(lp3071
g367
asbag56
(g77
g58
NtRp3072
(dp3073
g61
(dp3074
g88
g89
ssg70
g3064
sg63
(lp3075
S':'
asbag56
(g77
g58
NtRp3076
(dp3077
g61
(dp3078
sg70
g3064
sg63
(lp3079
g56
(g57
g58
NtRp3080
(dp3081
g61
(dp3082
g69
I3
ssg70
g3076
sg63
(lp3083
S''
asbasbasbag56
(g72
g58
NtRp3084
(dp3085
g61
(dp3086
sg70
g2980
sg63
(lp3087
g56
(g77
g58
NtRp3088
(dp3089
g61
(dp3090
g81
g82
ssg70
g3084
sg63
(lp3091
g388
asbag56
(g77
g58
NtRp3092
(dp3093
g61
(dp3094
g88
g89
ssg70
g3084
sg63
(lp3095
S':'
asbag56
(g77
g58
NtRp3096
(dp3097
g61
(dp3098
sg70
g3084
sg63
(lp3099
g56
(g57
g58
NtRp3100
(dp3101
g61
(dp3102
g69
I3
ssg70
g3096
sg63
(lp3103
S'/'
asbasbasbag56
(g72
g58
NtRp3104
(dp3105
g61
(dp3106
sg70
g2980
sg63
(lp3107
g56
(g77
g58
NtRp3108
(dp3109
g61
(dp3110
g81
g82
ssg70
g3104
sg63
(lp3111
g409
asbag56
(g77
g58
NtRp3112
(dp3113
g61
(dp3114
g88
g89
ssg70
g3104
sg63
(lp3115
S':'
asbag56
(g77
g58
NtRp3116
(dp3117
g61
(dp3118
sg70
g3104
sg63
(lp3119
g56
(g57
g58
NtRp3120
(dp3121
g61
(dp3122
g69
I3
ssg70
g3116
sg63
(lp3123
S''
asbasbasbag56
(g72
g58
NtRp3124
(dp3125
g61
(dp3126
sg70
g2980
sg63
(lp3127
g56
(g77
g58
NtRp3128
(dp3129
g61
(dp3130
g81
g82
ssg70
g3124
sg63
(lp3131
g430
asbag56
(g77
g58
NtRp3132
(dp3133
g61
(dp3134
g88
g89
ssg70
g3124
sg63
(lp3135
S':'
asbag56
(g77
g58
NtRp3136
(dp3137
g61
(dp3138
sg70
g3124
sg63
(lp3139
g56
(g57
g58
NtRp3140
(dp3141
g61
(dp3142
g69
I3
ssg70
g3136
sg63
(lp3143
S''
asbasbasbasbasbasbasbasbasbasbasbag56
(g72
g58
NtRp3144
(dp3145
g61
(dp3146
sg70
g2910
sg63
(lp3147
g56
(g77
g58
NtRp3148
(dp3149
g61
(dp3150
g81
g82
ssg70
g3144
sg63
(lp3151
S'files'
p3152
asbag56
(g77
g58
NtRp3153
(dp3154
g61
(dp3155
g88
g89
ssg70
g3144
sg63
(lp3156
S':'
asbag56
(g77
g58
NtRp3157
(dp3158
g61
(dp3159
sg70
g3144
sg63
(lp3160
g56
(g57
g58
NtRp3161
(dp3162
g61
(dp3163
g69
I5
ssg70
g3157
sg63
(lp3164
g56
(g65
g58
NtRp3165
(dp3166
g61
(dp3167
g69
I4
ssg70
Nsg63
(lp3168
g56
(g72
g58
NtRp3169
(dp3170
g61
(dp3171
sg70
g3165
sg63
(lp3172
g56
(g77
g58
NtRp3173
(dp3174
g61
(dp3175
sg70
g3169
sg63
(lp3176
g56
(g57
g58
NtRp3177
(dp3178
g61
(dp3179
g69
I4
ssg70
g3173
sg63
(lp3180
S'/datos/static/js/jquery.js'
p3181
asbasbasbag56
(g72
g58
NtRp3182
(dp3183
g61
(dp3184
sg70
g3165
sg63
(lp3185
g56
(g77
g58
NtRp3186
(dp3187
g61
(dp3188
sg70
g3182
sg63
(lp3189
g56
(g57
g58
NtRp3190
(dp3191
g61
(dp3192
g69
I4
ssg70
g3186
sg63
(lp3193
S'/datos/static/css/calendar.css'
p3194
asbasbasbag56
(g72
g58
NtRp3195
(dp3196
g61
(dp3197
sg70
g3165
sg63
(lp3198
g56
(g77
g58
NtRp3199
(dp3200
g61
(dp3201
sg70
g3195
sg63
(lp3202
g56
(g57
g58
NtRp3203
(dp3204
g61
(dp3205
g69
I4
ssg70
g3199
sg63
(lp3206
S'/datos/static/js/calendar.js'
p3207
asbasbasbag56
(g72
g58
NtRp3208
(dp3209
g61
(dp3210
sg70
g3165
sg63
(lp3211
g56
(g77
g58
NtRp3212
(dp3213
g61
(dp3214
sg70
g3208
sg63
(lp3215
g56
(g57
g58
NtRp3216
(dp3217
g61
(dp3218
g69
I4
ssg70
g3212
sg63
(lp3219
S'/datos/static/css/base.css'
p3220
asbasbasbag56
(g72
g58
NtRp3221
(dp3222
g61
(dp3223
sg70
g3165
sg63
(lp3224
g56
(g77
g58
NtRp3225
(dp3226
g61
(dp3227
sg70
g3221
sg63
(lp3228
g56
(g57
g58
NtRp3229
(dp3230
g61
(dp3231
g69
I4
ssg70
g3225
sg63
(lp3232
S'/datos/static/css/superfish.css'
p3233
asbasbasbag56
(g72
g58
NtRp3234
(dp3235
g61
(dp3236
sg70
g3165
sg63
(lp3237
g56
(g77
g58
NtRp3238
(dp3239
g61
(dp3240
sg70
g3234
sg63
(lp3241
g56
(g57
g58
NtRp3242
(dp3243
g61
(dp3244
g69
I4
ssg70
g3238
sg63
(lp3245
S'/datos/static/js/superfish.js'
p3246
asbasbasbasbasbasbasbag56
(g72
g58
NtRp3247
(dp3248
g61
(dp3249
sg70
g2910
sg63
(lp3250
g56
(g77
g58
NtRp3251
(dp3252
g61
(dp3253
g81
g82
ssg70
g3247
sg63
(lp3254
S'flash'
p3255
asbag56
(g77
g58
NtRp3256
(dp3257
g61
(dp3258
g88
g89
ssg70
g3247
sg63
(lp3259
S':'
asbag56
(g77
g58
NtRp3260
(dp3261
g61
(dp3262
sg70
g3247
sg63
(lp3263
g56
(g57
g58
NtRp3264
(dp3265
g61
(dp3266
g69
I5
ssg70
g3260
sg63
(lp3267
S''
asbasbasbag56
(g72
g58
NtRp3268
(dp3269
g61
(dp3270
sg70
g2910
sg63
(lp3271
g56
(g77
g58
NtRp3272
(dp3273
g61
(dp3274
g81
g82
ssg70
g3268
sg63
(lp3275
S'headers'
p3276
asbag56
(g77
g58
NtRp3277
(dp3278
g61
(dp3279
g88
g89
ssg70
g3268
sg63
(lp3280
S':'
asbag56
(g77
g58
NtRp3281
(dp3282
g61
(dp3283
sg70
g3268
sg63
(lp3284
g56
(g57
g58
NtRp3285
(dp3286
g61
(dp3287
g69
I5
ssg70
g3281
sg63
(lp3288
g56
(g65
g58
NtRp3289
(dp3290
g61
(dp3291
g69
I4
ssg70
Nsg63
(lp3292
g56
(g72
g58
NtRp3293
(dp3294
g61
(dp3295
sg70
g3289
sg63
(lp3296
g56
(g77
g58
NtRp3297
(dp3298
g61
(dp3299
g81
g82
ssg70
g3293
sg63
(lp3300
S'Cache-Control'
p3301
asbag56
(g77
g58
NtRp3302
(dp3303
g61
(dp3304
g88
g89
ssg70
g3293
sg63
(lp3305
S':'
asbag56
(g77
g58
NtRp3306
(dp3307
g61
(dp3308
sg70
g3293
sg63
(lp3309
g56
(g57
g58
NtRp3310
(dp3311
g61
(dp3312
g69
I4
ssg70
g3306
sg63
(lp3313
S'no-store, no-cache, must-revalidate, post-check=0, pre-check=0'
p3314
asbasbasbag56
(g72
g58
NtRp3315
(dp3316
g61
(dp3317
sg70
g3289
sg63
(lp3318
g56
(g77
g58
NtRp3319
(dp3320
g61
(dp3321
g81
g82
ssg70
g3315
sg63
(lp3322
S'Content-Type'
p3323
asbag56
(g77
g58
NtRp3324
(dp3325
g61
(dp3326
g88
g89
ssg70
g3315
sg63
(lp3327
S':'
asbag56
(g77
g58
NtRp3328
(dp3329
g61
(dp3330
sg70
g3315
sg63
(lp3331
g56
(g57
g58
NtRp3332
(dp3333
g61
(dp3334
g69
I4
ssg70
g3328
sg63
(lp3335
S'text/html; charset=utf-8'
p3336
asbasbasbag56
(g72
g58
NtRp3337
(dp3338
g61
(dp3339
sg70
g3289
sg63
(lp3340
g56
(g77
g58
NtRp3341
(dp3342
g61
(dp3343
g81
g82
ssg70
g3337
sg63
(lp3344
S'Expires'
p3345
asbag56
(g77
g58
NtRp3346
(dp3347
g61
(dp3348
g88
g89
ssg70
g3337
sg63
(lp3349
S':'
asbag56
(g77
g58
NtRp3350
(dp3351
g61
(dp3352
sg70
g3337
sg63
(lp3353
g56
(g57
g58
NtRp3354
(dp3355
g61
(dp3356
g69
I4
ssg70
g3350
sg63
(lp3357
S'Thu, 08 Sep 2011 01:50:29 GMT'
p3358
asbasbasbag56
(g72
g58
NtRp3359
(dp3360
g61
(dp3361
sg70
g3289
sg63
(lp3362
g56
(g77
g58
NtRp3363
(dp3364
g61
(dp3365
g81
g82
ssg70
g3359
sg63
(lp3366
S'Pragma'
p3367
asbag56
(g77
g58
NtRp3368
(dp3369
g61
(dp3370
g88
g89
ssg70
g3359
sg63
(lp3371
S':'
asbag56
(g77
g58
NtRp3372
(dp3373
g61
(dp3374
sg70
g3359
sg63
(lp3375
g56
(g57
g58
NtRp3376
(dp3377
g61
(dp3378
g69
I4
ssg70
g3372
sg63
(lp3379
S'no-cache'
p3380
asbasbasbag56
(g72
g58
NtRp3381
(dp3382
g61
(dp3383
sg70
g3289
sg63
(lp3384
g56
(g77
g58
NtRp3385
(dp3386
g61
(dp3387
g81
g82
ssg70
g3381
sg63
(lp3388
S'X-Powered-By'
p3389
asbag56
(g77
g58
NtRp3390
(dp3391
g61
(dp3392
g88
g89
ssg70
g3381
sg63
(lp3393
S':'
asbag56
(g77
g58
NtRp3394
(dp3395
g61
(dp3396
sg70
g3381
sg63
(lp3397
g56
(g57
g58
NtRp3398
(dp3399
g61
(dp3400
g69
I4
ssg70
g3394
sg63
(lp3401
S'web2py'
p3402
asbasbasbasbasbasbasbag56
(g72
g58
NtRp3403
(dp3404
g61
(dp3405
sg70
g2910
sg63
(lp3406
g56
(g77
g58
NtRp3407
(dp3408
g61
(dp3409
g81
g82
ssg70
g3403
sg63
(lp3410
S'menu'
p3411
asbag56
(g77
g58
NtRp3412
(dp3413
g61
(dp3414
g88
g89
ssg70
g3403
sg63
(lp3415
S':'
asbag56
(g77
g58
NtRp3416
(dp3417
g61
(dp3418
sg70
g3403
sg63
(lp3419
g56
(g57
g58
NtRp3420
(dp3421
g61
(dp3422
g69
I5
ssg70
g3416
sg63
(lp3423
g56
(g65
g58
NtRp3424
(dp3425
g61
(dp3426
g69
I4
ssg70
Nsg63
(lp3427
g56
(g72
g58
NtRp3428
(dp3429
g61
(dp3430
sg70
g3424
sg63
(lp3431
g56
(g77
g58
NtRp3432
(dp3433
g61
(dp3434
sg70
g3428
sg63
(lp3435
g56
(g57
g58
NtRp3436
(dp3437
g61
(dp3438
g69
I4
ssg70
g3432
sg63
(lp3439
g56
(g65
g58
NtRp3440
(dp3441
g61
(dp3442
g69
I3
ssg70
Nsg63
(lp3443
g56
(g72
g58
NtRp3444
(dp3445
g61
(dp3446
sg70
g3440
sg63
(lp3447
g56
(g77
g58
NtRp3448
(dp3449
g61
(dp3450
sg70
g3444
sg63
(lp3451
g56
(g57
g58
NtRp3452
(dp3453
g61
(dp3454
g69
I3
ssg70
g3448
sg63
(lp3455
cgluon.languages
lazyT_unpickle
p3456
(S's\x04\x00\x00\x00Home'
tRp3457
asbasbasbag56
(g72
g58
NtRp3458
(dp3459
g61
(dp3460
sg70
g3440
sg63
(lp3461
g56
(g77
g58
NtRp3462
(dp3463
g61
(dp3464
sg70
g3458
sg63
(lp3465
g56
(g57
g58
NtRp3466
(dp3467
g61
(dp3468
g69
I3
ssg70
g3462
sg63
(lp3469
g99
asbasbasbag56
(g72
g58
NtRp3470
(dp3471
g61
(dp3472
sg70
g3440
sg63
(lp3473
g56
(g77
g58
NtRp3474
(dp3475
g61
(dp3476
sg70
g3470
sg63
(lp3477
g56
(g57
g58
NtRp3478
(dp3479
g61
(dp3480
g69
I3
ssg70
g3474
sg63
(lp3481
S'/datos/default/index'
p3482
asbasbasbag56
(g72
g58
NtRp3483
(dp3484
g61
(dp3485
sg70
g3440
sg63
(lp3486
g56
(g77
g58
NtRp3487
(dp3488
g61
(dp3489
sg70
g3483
sg63
(lp3490
g56
(g57
g58
NtRp3491
(dp3492
g61
(dp3493
g69
I3
ssg70
g3487
sg63
(lp3494
g56
(g65
g58
NtRp3495
(dp3496
g61
(dp3497
g69
I2
ssg70
Nsg63
(lp3498
sbasbasbasbasbasbasbasbag56
(g72
g58
NtRp3499
(dp3500
g61
(dp3501
sg70
g3424
sg63
(lp3502
g56
(g77
g58
NtRp3503
(dp3504
g61
(dp3505
sg70
g3499
sg63
(lp3506
g56
(g57
g58
NtRp3507
(dp3508
g61
(dp3509
g69
I4
ssg70
g3503
sg63
(lp3510
g56
(g65
g58
NtRp3511
(dp3512
g61
(dp3513
g69
I3
ssg70
Nsg63
(lp3514
g56
(g72
g58
NtRp3515
(dp3516
g61
(dp3517
sg70
g3511
sg63
(lp3518
g56
(g77
g58
NtRp3519
(dp3520
g61
(dp3521
sg70
g3515
sg63
(lp3522
g56
(g57
g58
NtRp3523
(dp3524
g61
(dp3525
g69
I3
ssg70
g3519
sg63
(lp3526
g3456
(S's\x08\x00\x00\x00This App'
tRp3527
asbasbasbag56
(g72
g58
NtRp3528
(dp3529
g61
(dp3530
sg70
g3511
sg63
(lp3531
g56
(g77
g58
NtRp3532
(dp3533
g61
(dp3534
sg70
g3528
sg63
(lp3535
g56
(g57
g58
NtRp3536
(dp3537
g61
(dp3538
g69
I3
ssg70
g3532
sg63
(lp3539
g99
asbasbasbag56
(g72
g58
NtRp3540
(dp3541
g61
(dp3542
sg70
g3511
sg63
(lp3543
g56
(g77
g58
NtRp3544
(dp3545
g61
(dp3546
sg70
g3540
sg63
(lp3547
g56
(g57
g58
NtRp3548
(dp3549
g61
(dp3550
g69
I3
ssg70
g3544
sg63
(lp3551
S'/admin/default/design/datos'
p3552
asbasbasbag56
(g72
g58
NtRp3553
(dp3554
g61
(dp3555
sg70
g3511
sg63
(lp3556
g56
(g77
g58
NtRp3557
(dp3558
g61
(dp3559
sg70
g3553
sg63
(lp3560
g56
(g57
g58
NtRp3561
(dp3562
g61
(dp3563
g69
I3
ssg70
g3557
sg63
(lp3564
g56
(g65
g58
NtRp3565
(dp3566
g61
(dp3567
g69
I2
ssg70
Nsg63
(lp3568
g56
(g72
g58
NtRp3569
(dp3570
g61
(dp3571
sg70
g3565
sg63
(lp3572
g56
(g77
g58
NtRp3573
(dp3574
g61
(dp3575
sg70
g3569
sg63
(lp3576
g56
(g57
g58
NtRp3577
(dp3578
g61
(dp3579
g69
I2
ssg70
g3573
sg63
(lp3580
g56
(g65
g58
NtRp3581
(dp3582
g61
(dp3583
g69
I1
ssg70
Nsg63
(lp3584
g56
(g72
g58
NtRp3585
(dp3586
g61
(dp3587
sg70
g3581
sg63
(lp3588
g56
(g77
g58
NtRp3589
(dp3590
g61
(dp3591
sg70
g3585
sg63
(lp3592
g56
(g57
g58
NtRp3593
(dp3594
g61
(dp3595
g69
I1
ssg70
g3589
sg63
(lp3596
g3456
(S's\n\x00\x00\x00Controller'
tRp3597
asbasbasbag56
(g72
g58
NtRp3598
(dp3599
g61
(dp3600
sg70
g3581
sg63
(lp3601
g56
(g77
g58
NtRp3602
(dp3603
g61
(dp3604
sg70
g3598
sg63
(lp3605
g56
(g57
g58
NtRp3606
(dp3607
g61
(dp3608
g69
I1
ssg70
g3602
sg63
(lp3609
I00
asbasbasbag56
(g72
g58
NtRp3610
(dp3611
g61
(dp3612
sg70
g3581
sg63
(lp3613
g56
(g77
g58
NtRp3614
(dp3615
g61
(dp3616
sg70
g3610
sg63
(lp3617
g56
(g57
g58
NtRp3618
(dp3619
g61
(dp3620
g69
I1
ssg70
g3614
sg63
(lp3621
S'/admin/default/edit/datos/controllers/default.py'
p3622
asbasbasbasbasbasbasbag56
(g72
g58
NtRp3623
(dp3624
g61
(dp3625
sg70
g3565
sg63
(lp3626
g56
(g77
g58
NtRp3627
(dp3628
g61
(dp3629
sg70
g3623
sg63
(lp3630
g56
(g57
g58
NtRp3631
(dp3632
g61
(dp3633
g69
I2
ssg70
g3627
sg63
(lp3634
g56
(g65
g58
NtRp3635
(dp3636
g61
(dp3637
g69
I1
ssg70
Nsg63
(lp3638
g56
(g72
g58
NtRp3639
(dp3640
g61
(dp3641
sg70
g3635
sg63
(lp3642
g56
(g77
g58
NtRp3643
(dp3644
g61
(dp3645
sg70
g3639
sg63
(lp3646
g56
(g57
g58
NtRp3647
(dp3648
g61
(dp3649
g69
I1
ssg70
g3643
sg63
(lp3650
g3456
(S's\x04\x00\x00\x00View'
tRp3651
asbasbasbag56
(g72
g58
NtRp3652
(dp3653
g61
(dp3654
sg70
g3635
sg63
(lp3655
g56
(g77
g58
NtRp3656
(dp3657
g61
(dp3658
sg70
g3652
sg63
(lp3659
g56
(g57
g58
NtRp3660
(dp3661
g61
(dp3662
g69
I1
ssg70
g3656
sg63
(lp3663
I00
asbasbasbag56
(g72
g58
NtRp3664
(dp3665
g61
(dp3666
sg70
g3635
sg63
(lp3667
g56
(g77
g58
NtRp3668
(dp3669
g61
(dp3670
sg70
g3664
sg63
(lp3671
g56
(g57
g58
NtRp3672
(dp3673
g61
(dp3674
g69
I1
ssg70
g3668
sg63
(lp3675
S'/admin/default/edit/datos/views/default/detalle.html'
p3676
asbasbasbasbasbasbasbag56
(g72
g58
NtRp3677
(dp3678
g61
(dp3679
sg70
g3565
sg63
(lp3680
g56
(g77
g58
NtRp3681
(dp3682
g61
(dp3683
sg70
g3677
sg63
(lp3684
g56
(g57
g58
NtRp3685
(dp3686
g61
(dp3687
g69
I2
ssg70
g3681
sg63
(lp3688
g56
(g65
g58
NtRp3689
(dp3690
g61
(dp3691
g69
I1
ssg70
Nsg63
(lp3692
g56
(g72
g58
NtRp3693
(dp3694
g61
(dp3695
sg70
g3689
sg63
(lp3696
g56
(g77
g58
NtRp3697
(dp3698
g61
(dp3699
sg70
g3693
sg63
(lp3700
g56
(g57
g58
NtRp3701
(dp3702
g61
(dp3703
g69
I1
ssg70
g3697
sg63
(lp3704
g3456
(S's\x06\x00\x00\x00Layout'
tRp3705
asbasbasbag56
(g72
g58
NtRp3706
(dp3707
g61
(dp3708
sg70
g3689
sg63
(lp3709
g56
(g77
g58
NtRp3710
(dp3711
g61
(dp3712
sg70
g3706
sg63
(lp3713
g56
(g57
g58
NtRp3714
(dp3715
g61
(dp3716
g69
I1
ssg70
g3710
sg63
(lp3717
I00
asbasbasbag56
(g72
g58
NtRp3718
(dp3719
g61
(dp3720
sg70
g3689
sg63
(lp3721
g56
(g77
g58
NtRp3722
(dp3723
g61
(dp3724
sg70
g3718
sg63
(lp3725
g56
(g57
g58
NtRp3726
(dp3727
g61
(dp3728
g69
I1
ssg70
g3722
sg63
(lp3729
S'/admin/default/edit/datos/views/layout.html'
p3730
asbasbasbasbasbasbasbag56
(g72
g58
NtRp3731
(dp3732
g61
(dp3733
sg70
g3565
sg63
(lp3734
g56
(g77
g58
NtRp3735
(dp3736
g61
(dp3737
sg70
g3731
sg63
(lp3738
g56
(g57
g58
NtRp3739
(dp3740
g61
(dp3741
g69
I2
ssg70
g3735
sg63
(lp3742
g56
(g65
g58
NtRp3743
(dp3744
g61
(dp3745
g69
I1
ssg70
Nsg63
(lp3746
g56
(g72
g58
NtRp3747
(dp3748
g61
(dp3749
sg70
g3743
sg63
(lp3750
g56
(g77
g58
NtRp3751
(dp3752
g61
(dp3753
sg70
g3747
sg63
(lp3754
g56
(g57
g58
NtRp3755
(dp3756
g61
(dp3757
g69
I1
ssg70
g3751
sg63
(lp3758
g3456
(S's\n\x00\x00\x00Stylesheet'
tRp3759
asbasbasbag56
(g72
g58
NtRp3760
(dp3761
g61
(dp3762
sg70
g3743
sg63
(lp3763
g56
(g77
g58
NtRp3764
(dp3765
g61
(dp3766
sg70
g3760
sg63
(lp3767
g56
(g57
g58
NtRp3768
(dp3769
g61
(dp3770
g69
I1
ssg70
g3764
sg63
(lp3771
I00
asbasbasbag56
(g72
g58
NtRp3772
(dp3773
g61
(dp3774
sg70
g3743
sg63
(lp3775
g56
(g77
g58
NtRp3776
(dp3777
g61
(dp3778
sg70
g3772
sg63
(lp3779
g56
(g57
g58
NtRp3780
(dp3781
g61
(dp3782
g69
I1
ssg70
g3776
sg63
(lp3783
S'/admin/default/edit/datos/static/base.css'
p3784
asbasbasbasbasbasbasbag56
(g72
g58
NtRp3785
(dp3786
g61
(dp3787
sg70
g3565
sg63
(lp3788
g56
(g77
g58
NtRp3789
(dp3790
g61
(dp3791
sg70
g3785
sg63
(lp3792
g56
(g57
g58
NtRp3793
(dp3794
g61
(dp3795
g69
I2
ssg70
g3789
sg63
(lp3796
g56
(g65
g58
NtRp3797
(dp3798
g61
(dp3799
g69
I1
ssg70
Nsg63
(lp3800
g56
(g72
g58
NtRp3801
(dp3802
g61
(dp3803
sg70
g3797
sg63
(lp3804
g56
(g77
g58
NtRp3805
(dp3806
g61
(dp3807
sg70
g3801
sg63
(lp3808
g56
(g57
g58
NtRp3809
(dp3810
g61
(dp3811
g69
I1
ssg70
g3805
sg63
(lp3812
g3456
(S's\x08\x00\x00\x00DB Model'
tRp3813
asbasbasbag56
(g72
g58
NtRp3814
(dp3815
g61
(dp3816
sg70
g3797
sg63
(lp3817
g56
(g77
g58
NtRp3818
(dp3819
g61
(dp3820
sg70
g3814
sg63
(lp3821
g56
(g57
g58
NtRp3822
(dp3823
g61
(dp3824
g69
I1
ssg70
g3818
sg63
(lp3825
I00
asbasbasbag56
(g72
g58
NtRp3826
(dp3827
g61
(dp3828
sg70
g3797
sg63
(lp3829
g56
(g77
g58
NtRp3830
(dp3831
g61
(dp3832
sg70
g3826
sg63
(lp3833
g56
(g57
g58
NtRp3834
(dp3835
g61
(dp3836
g69
I1
ssg70
g3830
sg63
(lp3837
S'/admin/default/edit/datos/models/db.py'
p3838
asbasbasbasbasbasbasbag56
(g72
g58
NtRp3839
(dp3840
g61
(dp3841
sg70
g3565
sg63
(lp3842
g56
(g77
g58
NtRp3843
(dp3844
g61
(dp3845
sg70
g3839
sg63
(lp3846
g56
(g57
g58
NtRp3847
(dp3848
g61
(dp3849
g69
I2
ssg70
g3843
sg63
(lp3850
g56
(g65
g58
NtRp3851
(dp3852
g61
(dp3853
g69
I1
ssg70
Nsg63
(lp3854
g56
(g72
g58
NtRp3855
(dp3856
g61
(dp3857
sg70
g3851
sg63
(lp3858
g56
(g77
g58
NtRp3859
(dp3860
g61
(dp3861
sg70
g3855
sg63
(lp3862
g56
(g57
g58
NtRp3863
(dp3864
g61
(dp3865
g69
I1
ssg70
g3859
sg63
(lp3866
g3456
(S's\n\x00\x00\x00Menu Model'
tRp3867
asbasbasbag56
(g72
g58
NtRp3868
(dp3869
g61
(dp3870
sg70
g3851
sg63
(lp3871
g56
(g77
g58
NtRp3872
(dp3873
g61
(dp3874
sg70
g3868
sg63
(lp3875
g56
(g57
g58
NtRp3876
(dp3877
g61
(dp3878
g69
I1
ssg70
g3872
sg63
(lp3879
I00
asbasbasbag56
(g72
g58
NtRp3880
(dp3881
g61
(dp3882
sg70
g3851
sg63
(lp3883
g56
(g77
g58
NtRp3884
(dp3885
g61
(dp3886
sg70
g3880
sg63
(lp3887
g56
(g57
g58
NtRp3888
(dp3889
g61
(dp3890
g69
I1
ssg70
g3884
sg63
(lp3891
S'/admin/default/edit/datos/models/menu.py'
p3892
asbasbasbasbasbasbasbag56
(g72
g58
NtRp3893
(dp3894
g61
(dp3895
sg70
g3565
sg63
(lp3896
g56
(g77
g58
NtRp3897
(dp3898
g61
(dp3899
sg70
g3893
sg63
(lp3900
g56
(g57
g58
NtRp3901
(dp3902
g61
(dp3903
g69
I2
ssg70
g3897
sg63
(lp3904
g56
(g65
g58
NtRp3905
(dp3906
g61
(dp3907
g69
I1
ssg70
Nsg63
(lp3908
g56
(g72
g58
NtRp3909
(dp3910
g61
(dp3911
sg70
g3905
sg63
(lp3912
g56
(g77
g58
NtRp3913
(dp3914
g61
(dp3915
sg70
g3909
sg63
(lp3916
g56
(g57
g58
NtRp3917
(dp3918
g61
(dp3919
g69
I1
ssg70
g3913
sg63
(lp3920
g3456
(S's\x08\x00\x00\x00Database'
tRp3921
asbasbasbag56
(g72
g58
NtRp3922
(dp3923
g61
(dp3924
sg70
g3905
sg63
(lp3925
g56
(g77
g58
NtRp3926
(dp3927
g61
(dp3928
sg70
g3922
sg63
(lp3929
g56
(g57
g58
NtRp3930
(dp3931
g61
(dp3932
g69
I1
ssg70
g3926
sg63
(lp3933
I00
asbasbasbag56
(g72
g58
NtRp3934
(dp3935
g61
(dp3936
sg70
g3905
sg63
(lp3937
g56
(g77
g58
NtRp3938
(dp3939
g61
(dp3940
sg70
g3934
sg63
(lp3941
g56
(g57
g58
NtRp3942
(dp3943
g61
(dp3944
g69
I1
ssg70
g3938
sg63
(lp3945
S'/datos/appadmin/index'
p3946
asbasbasbasbasbasbasbag56
(g72
g58
NtRp3947
(dp3948
g61
(dp3949
sg70
g3565
sg63
(lp3950
g56
(g77
g58
NtRp3951
(dp3952
g61
(dp3953
sg70
g3947
sg63
(lp3954
g56
(g57
g58
NtRp3955
(dp3956
g61
(dp3957
g69
I2
ssg70
g3951
sg63
(lp3958
g56
(g65
g58
NtRp3959
(dp3960
g61
(dp3961
g69
I1
ssg70
Nsg63
(lp3962
g56
(g72
g58
NtRp3963
(dp3964
g61
(dp3965
sg70
g3959
sg63
(lp3966
g56
(g77
g58
NtRp3967
(dp3968
g61
(dp3969
sg70
g3963
sg63
(lp3970
g56
(g57
g58
NtRp3971
(dp3972
g61
(dp3973
g69
I1
ssg70
g3967
sg63
(lp3974
g3456
(S's\x06\x00\x00\x00Errors'
tRp3975
asbasbasbag56
(g72
g58
NtRp3976
(dp3977
g61
(dp3978
sg70
g3959
sg63
(lp3979
g56
(g77
g58
NtRp3980
(dp3981
g61
(dp3982
sg70
g3976
sg63
(lp3983
g56
(g57
g58
NtRp3984
(dp3985
g61
(dp3986
g69
I1
ssg70
g3980
sg63
(lp3987
I00
asbasbasbag56
(g72
g58
NtRp3988
(dp3989
g61
(dp3990
sg70
g3959
sg63
(lp3991
g56
(g77
g58
NtRp3992
(dp3993
g61
(dp3994
sg70
g3988
sg63
(lp3995
g56
(g57
g58
NtRp3996
(dp3997
g61
(dp3998
g69
I1
ssg70
g3992
sg63
(lp3999
S'/admin/default/errors/datos'
p4000
asbasbasbasbasbasbasbag56
(g72
g58
NtRp4001
(dp4002
g61
(dp4003
sg70
g3565
sg63
(lp4004
g56
(g77
g58
NtRp4005
(dp4006
g61
(dp4007
sg70
g4001
sg63
(lp4008
g56
(g57
g58
NtRp4009
(dp4010
g61
(dp4011
g69
I2
ssg70
g4005
sg63
(lp4012
g56
(g65
g58
NtRp4013
(dp4014
g61
(dp4015
g69
I1
ssg70
Nsg63
(lp4016
g56
(g72
g58
NtRp4017
(dp4018
g61
(dp4019
sg70
g4013
sg63
(lp4020
g56
(g77
g58
NtRp4021
(dp4022
g61
(dp4023
sg70
g4017
sg63
(lp4024
g56
(g57
g58
NtRp4025
(dp4026
g61
(dp4027
g69
I1
ssg70
g4021
sg63
(lp4028
g3456
(S's\x05\x00\x00\x00About'
tRp4029
asbasbasbag56
(g72
g58
NtRp4030
(dp4031
g61
(dp4032
sg70
g4013
sg63
(lp4033
g56
(g77
g58
NtRp4034
(dp4035
g61
(dp4036
sg70
g4030
sg63
(lp4037
g56
(g57
g58
NtRp4038
(dp4039
g61
(dp4040
g69
I1
ssg70
g4034
sg63
(lp4041
I00
asbasbasbag56
(g72
g58
NtRp4042
(dp4043
g61
(dp4044
sg70
g4013
sg63
(lp4045
g56
(g77
g58
NtRp4046
(dp4047
g61
(dp4048
sg70
g4042
sg63
(lp4049
g56
(g57
g58
NtRp4050
(dp4051
g61
(dp4052
g69
I1
ssg70
g4046
sg63
(lp4053
S'/admin/default/about/datos'
p4054
asbasbasbasbasbasbasbasbasbasbasbasbasbasbasbag56
(g72
g58
NtRp4055
(dp4056
g61
(dp4057
sg70
g3424
sg63
(lp4058
g56
(g77
g58
NtRp4059
(dp4060
g61
(dp4061
sg70
g4055
sg63
(lp4062
g56
(g57
g58
NtRp4063
(dp4064
g61
(dp4065
g69
I4
ssg70
g4059
sg63
(lp4066
g56
(g65
g58
NtRp4067
(dp4068
g61
(dp4069
g69
I3
ssg70
Nsg63
(lp4070
g56
(g72
g58
NtRp4071
(dp4072
g61
(dp4073
sg70
g4067
sg63
(lp4074
g56
(g77
g58
NtRp4075
(dp4076
g61
(dp4077
sg70
g4071
sg63
(lp4078
g56
(g57
g58
NtRp4079
(dp4080
g61
(dp4081
g69
I3
ssg70
g4075
sg63
(lp4082
g3456
(S's\t\x00\x00\x00Resources'
tRp4083
asbasbasbag56
(g72
g58
NtRp4084
(dp4085
g61
(dp4086
sg70
g4067
sg63
(lp4087
g56
(g77
g58
NtRp4088
(dp4089
g61
(dp4090
sg70
g4084
sg63
(lp4091
g56
(g57
g58
NtRp4092
(dp4093
g61
(dp4094
g69
I3
ssg70
g4088
sg63
(lp4095
g99
asbasbasbag56
(g72
g58
NtRp4096
(dp4097
g61
(dp4098
sg70
g4067
sg63
(lp4099
g56
(g77
g58
NtRp4100
(dp4101
g61
(dp4102
sg70
g4096
sg63
(lp4103
g56
(g57
g58
NtRp4104
(dp4105
g61
(dp4106
g69
I3
ssg70
g4100
sg63
(lp4107
S'None'
p4108
asbasbasbag56
(g72
g58
NtRp4109
(dp4110
g61
(dp4111
sg70
g4067
sg63
(lp4112
g56
(g77
g58
NtRp4113
(dp4114
g61
(dp4115
sg70
g4109
sg63
(lp4116
g56
(g57
g58
NtRp4117
(dp4118
g61
(dp4119
g69
I3
ssg70
g4113
sg63
(lp4120
g56
(g65
g58
NtRp4121
(dp4122
g61
(dp4123
g69
I2
ssg70
Nsg63
(lp4124
g56
(g72
g58
NtRp4125
(dp4126
g61
(dp4127
sg70
g4121
sg63
(lp4128
g56
(g77
g58
NtRp4129
(dp4130
g61
(dp4131
sg70
g4125
sg63
(lp4132
g56
(g57
g58
NtRp4133
(dp4134
g61
(dp4135
g69
I2
ssg70
g4129
sg63
(lp4136
g56
(g65
g58
NtRp4137
(dp4138
g61
(dp4139
g69
I1
ssg70
Nsg63
(lp4140
g56
(g72
g58
NtRp4141
(dp4142
g61
(dp4143
sg70
g4137
sg63
(lp4144
g56
(g77
g58
NtRp4145
(dp4146
g61
(dp4147
sg70
g4141
sg63
(lp4148
g56
(g57
g58
NtRp4149
(dp4150
g61
(dp4151
g69
I1
ssg70
g4145
sg63
(lp4152
g3456
(S's\r\x00\x00\x00Documentation'
tRp4153
asbasbasbag56
(g72
g58
NtRp4154
(dp4155
g61
(dp4156
sg70
g4137
sg63
(lp4157
g56
(g77
g58
NtRp4158
(dp4159
g61
(dp4160
sg70
g4154
sg63
(lp4161
g56
(g57
g58
NtRp4162
(dp4163
g61
(dp4164
g69
I1
ssg70
g4158
sg63
(lp4165
I00
asbasbasbag56
(g72
g58
NtRp4166
(dp4167
g61
(dp4168
sg70
g4137
sg63
(lp4169
g56
(g77
g58
NtRp4170
(dp4171
g61
(dp4172
sg70
g4166
sg63
(lp4173
g56
(g57
g58
NtRp4174
(dp4175
g61
(dp4176
g69
I1
ssg70
g4170
sg63
(lp4177
S'http://www.web2py.com/book'
p4178
asbasbasbag56
(g72
g58
NtRp4179
(dp4180
g61
(dp4181
sg70
g4137
sg63
(lp4182
g56
(g77
g58
NtRp4183
(dp4184
g61
(dp4185
sg70
g4179
sg63
(lp4186
g56
(g57
g58
NtRp4187
(dp4188
g61
(dp4189
g69
I1
ssg70
g4183
sg63
(lp4190
(lp4191
(g3456
(S's\x07\x00\x00\x00Preface'
tRp4192
I00
S'http://www.web2py.com/book/default/chapter/00'
tp4193
a(g3456
(S's\x0c\x00\x00\x00Introduction'
tRp4194
I00
S'http://www.web2py.com/book/default/chapter/01'
tp4195
a(g3456
(S's\x06\x00\x00\x00Python'
tRp4196
I00
S'http://www.web2py.com/book/default/chapter/02'
tp4197
a(g3456
(S's\x08\x00\x00\x00Overview'
tRp4198
I00
S'http://www.web2py.com/book/default/chapter/03'
tp4199
a(g3456
(S's\x08\x00\x00\x00The Core'
tRp4200
I00
S'http://www.web2py.com/book/default/chapter/04'
tp4201
a(g3456
(S's\t\x00\x00\x00The Views'
tRp4202
I00
S'http://www.web2py.com/book/default/chapter/05'
tp4203
a(g3456
(S's\x08\x00\x00\x00Database'
tRp4204
I00
S'http://www.web2py.com/book/default/chapter/06'
tp4205
a(g3456
(S's\x14\x00\x00\x00Forms and Validators'
tRp4206
I00
S'http://www.web2py.com/book/default/chapter/07'
tp4207
a(g3456
(S's\x0e\x00\x00\x00Access Control'
tRp4208
I00
S'http://www.web2py.com/book/default/chapter/08'
tp4209
a(g3456
(S's\x08\x00\x00\x00Services'
tRp4210
I00
S'http://www.web2py.com/book/default/chapter/09'
tp4211
a(g3456
(S's\x0c\x00\x00\x00Ajax Recipes'
tRp4212
I00
S'http://www.web2py.com/book/default/chapter/10'
tp4213
a(g3456
(S's\x12\x00\x00\x00Deployment Recipes'
tRp4214
I00
S'http://www.web2py.com/book/default/chapter/11'
tp4215
a(g3456
(S's\r\x00\x00\x00Other Recipes'
tRp4216
I00
S'http://www.web2py.com/book/default/chapter/12'
tp4217
a(g3456
(S's\r\x00\x00\x00Buy this book'
tRp4218
I00
S'http://stores.lulu.com/web2py'
tp4219
aasbasbasbasbasbasbasbag56
(g72
g58
NtRp4220
(dp4221
g61
(dp4222
sg70
g4121
sg63
(lp4223
g56
(g77
g58
NtRp4224
(dp4225
g61
(dp4226
sg70
g4220
sg63
(lp4227
g56
(g57
g58
NtRp4228
(dp4229
g61
(dp4230
g69
I2
ssg70
g4224
sg63
(lp4231
g56
(g65
g58
NtRp4232
(dp4233
g61
(dp4234
g69
I1
ssg70
Nsg63
(lp4235
g56
(g72
g58
NtRp4236
(dp4237
g61
(dp4238
sg70
g4232
sg63
(lp4239
g56
(g77
g58
NtRp4240
(dp4241
g61
(dp4242
sg70
g4236
sg63
(lp4243
g56
(g57
g58
NtRp4244
(dp4245
g61
(dp4246
g69
I1
ssg70
g4240
sg63
(lp4247
g3456
(S's\t\x00\x00\x00Community'
tRp4248
asbasbasbag56
(g72
g58
NtRp4249
(dp4250
g61
(dp4251
sg70
g4232
sg63
(lp4252
g56
(g77
g58
NtRp4253
(dp4254
g61
(dp4255
sg70
g4249
sg63
(lp4256
g56
(g57
g58
NtRp4257
(dp4258
g61
(dp4259
g69
I1
ssg70
g4253
sg63
(lp4260
I00
asbasbasbag56
(g72
g58
NtRp4261
(dp4262
g61
(dp4263
sg70
g4232
sg63
(lp4264
g56
(g77
g58
NtRp4265
(dp4266
g61
(dp4267
sg70
g4261
sg63
(lp4268
g56
(g57
g58
NtRp4269
(dp4270
g61
(dp4271
g69
I1
ssg70
g4265
sg63
(lp4272
Nasbasbasbag56
(g72
g58
NtRp4273
(dp4274
g61
(dp4275
sg70
g4232
sg63
(lp4276
g56
(g77
g58
NtRp4277
(dp4278
g61
(dp4279
sg70
g4273
sg63
(lp4280
g56
(g57
g58
NtRp4281
(dp4282
g61
(dp4283
g69
I1
ssg70
g4277
sg63
(lp4284
(lp4285
(g3456
(S's\x06\x00\x00\x00Groups'
tRp4286
I00
S'http://www.web2py.com/examples/default/usergroups'
tp4287
a(g3456
(S's\x07\x00\x00\x00Twitter'
tRp4288
I00
S'http://twitter.com/web2py'
tp4289
a(g3456
(S's\t\x00\x00\x00Live chat'
tRp4290
I00
S'http://mibbit.com/?channel=%23web2py&server=irc.mibbit.net'
tp4291
a(g3456
(S's\n\x00\x00\x00User Voice'
tRp4292
I00
S'http://web2py.uservoice.com/'
tp4293
aasbasbasbasbasbasbasbag56
(g72
g58
NtRp4294
(dp4295
g61
(dp4296
sg70
g4121
sg63
(lp4297
g56
(g77
g58
NtRp4298
(dp4299
g61
(dp4300
sg70
g4294
sg63
(lp4301
g56
(g57
g58
NtRp4302
(dp4303
g61
(dp4304
g69
I2
ssg70
g4298
sg63
(lp4305
g56
(g65
g58
NtRp4306
(dp4307
g61
(dp4308
g69
I1
ssg70
Nsg63
(lp4309
g56
(g72
g58
NtRp4310
(dp4311
g61
(dp4312
sg70
g4306
sg63
(lp4313
g56
(g77
g58
NtRp4314
(dp4315
g61
(dp4316
sg70
g4310
sg63
(lp4317
g56
(g57
g58
NtRp4318
(dp4319
g61
(dp4320
g69
I1
ssg70
g4314
sg63
(lp4321
g3456
(S's\x06\x00\x00\x00Web2py'
tRp4322
asbasbasbag56
(g72
g58
NtRp4323
(dp4324
g61
(dp4325
sg70
g4306
sg63
(lp4326
g56
(g77
g58
NtRp4327
(dp4328
g61
(dp4329
sg70
g4323
sg63
(lp4330
g56
(g57
g58
NtRp4331
(dp4332
g61
(dp4333
g69
I1
ssg70
g4327
sg63
(lp4334
I00
asbasbasbag56
(g72
g58
NtRp4335
(dp4336
g61
(dp4337
sg70
g4306
sg63
(lp4338
g56
(g77
g58
NtRp4339
(dp4340
g61
(dp4341
sg70
g4335
sg63
(lp4342
g56
(g57
g58
NtRp4343
(dp4344
g61
(dp4345
g69
I1
ssg70
g4339
sg63
(lp4346
S'http://www.web2py.com'
p4347
asbasbasbag56
(g72
g58
NtRp4348
(dp4349
g61
(dp4350
sg70
g4306
sg63
(lp4351
g56
(g77
g58
NtRp4352
(dp4353
g61
(dp4354
sg70
g4348
sg63
(lp4355
g56
(g57
g58
NtRp4356
(dp4357
g61
(dp4358
g69
I1
ssg70
g4352
sg63
(lp4359
(lp4360
(g3456
(S's\x08\x00\x00\x00Download'
tRp4361
I00
S'http://www.web2py.com/examples/default/download'
tp4362
a(g3456
(S's\x07\x00\x00\x00Support'
tRp4363
I00
S'http://www.web2py.com/examples/default/support'
tp4364
a(g3456
(S's\x0e\x00\x00\x00Quick Examples'
tRp4365
I00
S'http://web2py.com/examples/default/examples'
tp4366
a(g3456
(S's\x03\x00\x00\x00FAQ'
tRp4367
I00
S'http://web2py.com/AlterEgo'
tp4368
a(g3456
(S's\x11\x00\x00\x00Free Applications'
tRp4369
I00
S'http://web2py.com/appliances'
tp4370
a(g3456
(S's\x07\x00\x00\x00Plugins'
tRp4371
I00
S'http://web2py.com/plugins'
tp4372
a(g3456
(S's\x07\x00\x00\x00Recipes'
tRp4373
I00
S'http://web2pyslices.com/'
tp4374
a(g3456
(S's\x04\x00\x00\x00Demo'
tRp4375
I00
S'http://web2py.com/demo_admin'
tp4376
a(g3456
(S's\x08\x00\x00\x00Semantic'
tRp4377
I00
S'http://web2py.com/semantic'
tp4378
a(g3456
(S's\x07\x00\x00\x00Layouts'
tRp4379
I00
S'http://web2py.com/layouts'
tp4380
a(g3456
(S's\x06\x00\x00\x00Videos'
tRp4381
I00
S'http://www.web2py.com/examples/default/videos/'
tp4382
aasbasbasbasbasbasbasbasbasbasbasbasbasbasbasbasbasbasbasbag56
(g72
g58
NtRp4383
(dp4384
g61
(dp4385
sg70
g2910
sg63
(lp4386
g56
(g77
g58
NtRp4387
(dp4388
g61
(dp4389
g81
g82
ssg70
g4383
sg63
(lp4390
S'meta'
p4391
asbag56
(g77
g58
NtRp4392
(dp4393
g61
(dp4394
g88
g89
ssg70
g4383
sg63
(lp4395
S':'
asbag56
(g77
g58
NtRp4396
(dp4397
g61
(dp4398
sg70
g4383
sg63
(lp4399
g56
(g57
g58
NtRp4400
(dp4401
g61
(dp4402
g69
I5
ssg70
g4396
sg63
(lp4403
g56
(g65
g58
NtRp4404
(dp4405
g61
(dp4406
g69
I4
ssg70
Nsg63
(lp4407
g56
(g72
g58
NtRp4408
(dp4409
g61
(dp4410
sg70
g4404
sg63
(lp4411
g56
(g77
g58
NtRp4412
(dp4413
g61
(dp4414
g81
g82
ssg70
g4408
sg63
(lp4415
S'author'
p4416
asbag56
(g77
g58
NtRp4417
(dp4418
g61
(dp4419
g88
g89
ssg70
g4408
sg63
(lp4420
S':'
asbag56
(g77
g58
NtRp4421
(dp4422
g61
(dp4423
sg70
g4408
sg63
(lp4424
g56
(g57
g58
NtRp4425
(dp4426
g61
(dp4427
g69
I4
ssg70
g4421
sg63
(lp4428
S'you'
p4429
asbasbasbag56
(g72
g58
NtRp4430
(dp4431
g61
(dp4432
sg70
g4404
sg63
(lp4433
g56
(g77
g58
NtRp4434
(dp4435
g61
(dp4436
g81
g82
ssg70
g4430
sg63
(lp4437
S'copyright'
p4438
asbag56
(g77
g58
NtRp4439
(dp4440
g61
(dp4441
g88
g89
ssg70
g4430
sg63
(lp4442
S':'
asbag56
(g77
g58
NtRp4443
(dp4444
g61
(dp4445
sg70
g4430
sg63
(lp4446
g56
(g57
g58
NtRp4447
(dp4448
g61
(dp4449
g69
I4
ssg70
g4443
sg63
(lp4450
S'Copyright 2007-2010'
p4451
asbasbasbag56
(g72
g58
NtRp4452
(dp4453
g61
(dp4454
sg70
g4404
sg63
(lp4455
g56
(g77
g58
NtRp4456
(dp4457
g61
(dp4458
g81
g82
ssg70
g4452
sg63
(lp4459
S'description'
p4460
asbag56
(g77
g58
NtRp4461
(dp4462
g61
(dp4463
g88
g89
ssg70
g4452
sg63
(lp4464
S':'
asbag56
(g77
g58
NtRp4465
(dp4466
g61
(dp4467
sg70
g4452
sg63
(lp4468
g56
(g57
g58
NtRp4469
(dp4470
g61
(dp4471
g69
I4
ssg70
g4465
sg63
(lp4472
S'Free and open source full-stack enterprise framework for agile development of fast, scalable, secure and portable database-driven web-based applications. Written and programmable in Python'
p4473
asbasbasbag56
(g72
g58
NtRp4474
(dp4475
g61
(dp4476
sg70
g4404
sg63
(lp4477
g56
(g77
g58
NtRp4478
(dp4479
g61
(dp4480
g81
g82
ssg70
g4474
sg63
(lp4481
S'generator'
p4482
asbag56
(g77
g58
NtRp4483
(dp4484
g61
(dp4485
g88
g89
ssg70
g4474
sg63
(lp4486
S':'
asbag56
(g77
g58
NtRp4487
(dp4488
g61
(dp4489
sg70
g4474
sg63
(lp4490
g56
(g57
g58
NtRp4491
(dp4492
g61
(dp4493
g69
I4
ssg70
g4487
sg63
(lp4494
S'Web2py Enterprise Framework'
p4495
asbasbasbag56
(g72
g58
NtRp4496
(dp4497
g61
(dp4498
sg70
g4404
sg63
(lp4499
g56
(g77
g58
NtRp4500
(dp4501
g61
(dp4502
g81
g82
ssg70
g4496
sg63
(lp4503
S'keywords'
p4504
asbag56
(g77
g58
NtRp4505
(dp4506
g61
(dp4507
g88
g89
ssg70
g4496
sg63
(lp4508
S':'
asbag56
(g77
g58
NtRp4509
(dp4510
g61
(dp4511
sg70
g4496
sg63
(lp4512
g56
(g57
g58
NtRp4513
(dp4514
g61
(dp4515
g69
I4
ssg70
g4509
sg63
(lp4516
S'web2py, python, framework'
p4517
asbasbasbasbasbasbasbag56
(g72
g58
NtRp4518
(dp4519
g61
(dp4520
sg70
g2910
sg63
(lp4521
g56
(g77
g58
NtRp4522
(dp4523
g61
(dp4524
g81
g82
ssg70
g4518
sg63
(lp4525
S'postprocessing'
p4526
asbag56
(g77
g58
NtRp4527
(dp4528
g61
(dp4529
g88
g89
ssg70
g4518
sg63
(lp4530
S':'
asbag56
(g77
g58
NtRp4531
(dp4532
g61
(dp4533
sg70
g4518
sg63
(lp4534
g56
(g57
g58
NtRp4535
(dp4536
g61
(dp4537
g69
I5
ssg70
g4531
sg63
(lp4538
g56
(g65
g58
NtRp4539
(dp4540
g61
(dp4541
g69
I4
ssg70
Nsg63
(lp4542
sbasbasbasbag56
(g72
g58
NtRp4543
(dp4544
g61
(dp4545
sg70
g2910
sg63
(lp4546
g56
(g77
g58
NtRp4547
(dp4548
g61
(dp4549
g81
g82
ssg70
g4543
sg63
(lp4550
S'session_file'
p4551
asbag56
(g77
g58
NtRp4552
(dp4553
g61
(dp4554
g88
g89
ssg70
g4543
sg63
(lp4555
S':'
asbag56
(g77
g58
NtRp4556
(dp4557
g61
(dp4558
sg70
g4543
sg63
(lp4559
g56
(g57
g58
NtRp4560
(dp4561
g61
(dp4562
g69
I5
ssg70
g4556
sg63
(lp4563
S"<open file '/home/alumno/web2py/applications/datos/sessions/127.0.0.1-cd811d2b-4b1e-4778-9b0e-2b7f0d822087', mode 'rb+' at 0x9ee0078>"
p4564
asbasbasbag56
(g72
g58
NtRp4565
(dp4566
g61
(dp4567
sg70
g2910
sg63
(lp4568
g56
(g77
g58
NtRp4569
(dp4570
g61
(dp4571
g81
g82
ssg70
g4565
sg63
(lp4572
S'session_filename'
p4573
asbag56
(g77
g58
NtRp4574
(dp4575
g61
(dp4576
g88
g89
ssg70
g4565
sg63
(lp4577
S':'
asbag56
(g77
g58
NtRp4578
(dp4579
g61
(dp4580
sg70
g4565
sg63
(lp4581
g56
(g57
g58
NtRp4582
(dp4583
g61
(dp4584
g69
I5
ssg70
g4578
sg63
(lp4585
S'/home/alumno/web2py/applications/datos/sessions/127.0.0.1-cd811d2b-4b1e-4778-9b0e-2b7f0d822087'
p4586
asbasbasbag56
(g72
g58
NtRp4587
(dp4588
g61
(dp4589
sg70
g2910
sg63
(lp4590
g56
(g77
g58
NtRp4591
(dp4592
g61
(dp4593
g81
g82
ssg70
g4587
sg63
(lp4594
S'session_id'
p4595
asbag56
(g77
g58
NtRp4596
(dp4597
g61
(dp4598
g88
g89
ssg70
g4587
sg63
(lp4599
S':'
asbag56
(g77
g58
NtRp4600
(dp4601
g61
(dp4602
sg70
g4587
sg63
(lp4603
g56
(g57
g58
NtRp4604
(dp4605
g61
(dp4606
g69
I5
ssg70
g4600
sg63
(lp4607
S'127.0.0.1-cd811d2b-4b1e-4778-9b0e-2b7f0d822087'
p4608
asbasbasbag56
(g72
g58
NtRp4609
(dp4610
g61
(dp4611
sg70
g2910
sg63
(lp4612
g56
(g77
g58
NtRp4613
(dp4614
g61
(dp4615
g81
g82
ssg70
g4609
sg63
(lp4616
S'session_id_name'
p4617
asbag56
(g77
g58
NtRp4618
(dp4619
g61
(dp4620
g88
g89
ssg70
g4609
sg63
(lp4621
S':'
asbag56
(g77
g58
NtRp4622
(dp4623
g61
(dp4624
sg70
g4609
sg63
(lp4625
g56
(g57
g58
NtRp4626
(dp4627
g61
(dp4628
g69
I5
ssg70
g4622
sg63
(lp4629
g2967
asbasbasbag56
(g72
g58
NtRp4630
(dp4631
g61
(dp4632
sg70
g2910
sg63
(lp4633
g56
(g77
g58
NtRp4634
(dp4635
g61
(dp4636
g81
g82
ssg70
g4630
sg63
(lp4637
S'session_locked'
p4638
asbag56
(g77
g58
NtRp4639
(dp4640
g61
(dp4641
g88
g89
ssg70
g4630
sg63
(lp4642
S':'
asbag56
(g77
g58
NtRp4643
(dp4644
g61
(dp4645
sg70
g4630
sg63
(lp4646
g56
(g57
g58
NtRp4647
(dp4648
g61
(dp4649
g69
I5
ssg70
g4643
sg63
(lp4650
g1789
asbasbasbag56
(g72
g58
NtRp4651
(dp4652
g61
(dp4653
sg70
g2910
sg63
(lp4654
g56
(g77
g58
NtRp4655
(dp4656
g61
(dp4657
g81
g82
ssg70
g4651
sg63
(lp4658
S'session_new'
p4659
asbag56
(g77
g58
NtRp4660
(dp4661
g61
(dp4662
g88
g89
ssg70
g4651
sg63
(lp4663
S':'
asbag56
(g77
g58
NtRp4664
(dp4665
g61
(dp4666
sg70
g4651
sg63
(lp4667
g56
(g57
g58
NtRp4668
(dp4669
g61
(dp4670
g69
I5
ssg70
g4664
sg63
(lp4671
g99
asbasbasbag56
(g72
g58
NtRp4672
(dp4673
g61
(dp4674
sg70
g2910
sg63
(lp4675
g56
(g77
g58
NtRp4676
(dp4677
g61
(dp4678
g81
g82
ssg70
g4672
sg63
(lp4679
S'status'
p4680
asbag56
(g77
g58
NtRp4681
(dp4682
g61
(dp4683
g88
g89
ssg70
g4672
sg63
(lp4684
S':'
asbag56
(g77
g58
NtRp4685
(dp4686
g61
(dp4687
sg70
g4672
sg63
(lp4688
g56
(g57
g58
NtRp4689
(dp4690
g61
(dp4691
g69
I5
ssg70
g4685
sg63
(lp4692
S'200'
p4693
asbasbasbag56
(g72
g58
NtRp4694
(dp4695
g61
(dp4696
sg70
g2910
sg63
(lp4697
g56
(g77
g58
NtRp4698
(dp4699
g61
(dp4700
g81
g82
ssg70
g4694
sg63
(lp4701
S'subtitle'
p4702
asbag56
(g77
g58
NtRp4703
(dp4704
g61
(dp4705
g88
g89
ssg70
g4694
sg63
(lp4706
S':'
asbag56
(g77
g58
NtRp4707
(dp4708
g61
(dp4709
sg70
g4694
sg63
(lp4710
g56
(g57
g58
NtRp4711
(dp4712
g61
(dp4713
g69
I5
ssg70
g4707
sg63
(lp4714
g3456
(S's\r\x00\x00\x00customize me!'
tRp4715
asbasbasbag56
(g72
g58
NtRp4716
(dp4717
g61
(dp4718
sg70
g2910
sg63
(lp4719
g56
(g77
g58
NtRp4720
(dp4721
g61
(dp4722
g81
g82
ssg70
g4716
sg63
(lp4723
S'title'
p4724
asbag56
(g77
g58
NtRp4725
(dp4726
g61
(dp4727
g88
g89
ssg70
g4716
sg63
(lp4728
S':'
asbag56
(g77
g58
NtRp4729
(dp4730
g61
(dp4731
sg70
g4716
sg63
(lp4732
g56
(g57
g58
NtRp4733
(dp4734
g61
(dp4735
g69
I5
ssg70
g4729
sg63
(lp4736
g121
asbasbasbag56
(g72
g58
NtRp4737
(dp4738
g61
(dp4739
sg70
g2910
sg63
(lp4740
g56
(g77
g58
NtRp4741
(dp4742
g61
(dp4743
g81
g82
ssg70
g4737
sg63
(lp4744
g2134
asbag56
(g77
g58
NtRp4745
(dp4746
g61
(dp4747
g88
g89
ssg70
g4737
sg63
(lp4748
S':'
asbag56
(g77
g58
NtRp4749
(dp4750
g61
(dp4751
sg70
g4737
sg63
(lp4752
g56
(g57
g58
NtRp4753
(dp4754
g61
(dp4755
g69
I5
ssg70
g4749
sg63
(lp4756
g2147
asbasbasbag56
(g72
g58
NtRp4757
(dp4758
g61
(dp4759
sg70
g2910
sg63
(lp4760
g56
(g77
g58
NtRp4761
(dp4762
g61
(dp4763
g81
g82
ssg70
g4757
sg63
(lp4764
S'view'
p4765
asbag56
(g77
g58
NtRp4766
(dp4767
g61
(dp4768
g88
g89
ssg70
g4757
sg63
(lp4769
S':'
asbag56
(g77
g58
NtRp4770
(dp4771
g61
(dp4772
sg70
g4757
sg63
(lp4773
g56
(g57
g58
NtRp4774
(dp4775
g61
(dp4776
g69
I5
ssg70
g4770
sg63
(lp4777
S'default/detalle.html'
p4778
asbasbasbasbasbsS'locals'
p4779
(dp4780
S'OBJECT'
p4781
S"<class 'gluon.html.OBJECT'>"
p4782
sS'_file'
p4783
S"'/datos/static/js/superfish.js'"
p4784
sS'SQLDB'
p4785
S"<class 'gluon.dal.DAL'>"
p4786
sg2870
S"<Storage {'_formkey[profesor/create]': '61c400d8...reate]': '585b2528-ed77-47fa-bd0e-82749c4051ab'}>"
p4787
sS'LINK'
p4788
S"<class 'gluon.html.LINK'>"
p4789
sS'BR'
p4790
S"<class 'gluon.html.BR'>"
p4791
sS'local_import'
p4792
S'<function <lambda>>'
p4793
sS'OPTGROUP'
p4794
S"<class 'gluon.html.OPTGROUP'>"
p4795
sS'PRE'
p4796
S"<class 'gluon.html.PRE'>"
p4797
sS'IS_INT_IN_RANGE'
p4798
S"<class 'gluon.validators.IS_INT_IN_RANGE'>"
p4799
sS'left_sidebar_enabled'
p4800
g99
sS'IS_LOWER'
p4801
S"<class 'gluon.validators.IS_LOWER'>"
p4802
sS'IS_STRONG'
p4803
S"<class 'gluon.validators.IS_STRONG'>"
p4804
sS'cache'
p4805
S'<gluon.cache.Cache object>'
p4806
sS'IS_IN_DB'
p4807
S"<class 'gluon.validators.IS_IN_DB'>"
p4808
sS'TAG'
p4809
S'<gluon.html.__TAG__ object>'
p4810
sS'_k'
p4811
S'5'
sS'SQLField'
p4812
S"<class 'gluon.dal.Field'>"
p4813
sS'BODY'
p4814
S"<class 'gluon.html.BODY'>"
p4815
sS'IS_DATE_IN_RANGE'
p4816
S"<class 'gluon.validators.IS_DATE_IN_RANGE'>"
p4817
sS'TH'
p4818
S"<class 'gluon.html.TH'>"
p4819
sS'URL'
p4820
S'<function URL>'
p4821
sS'__file__'
p4822
S"'/home/alumno/web2py/applications/datos/views/default/detalle.html'"
p4823
sS'db'
p4824
S'<DAL {\'_migrate_enabled\': True, \'_lastsql\': "SEL...\'_uri_hash\': \'eb1dad4d662ce09be948e804719cfbad\'}>'
p4825
sS'P'
S"<class 'gluon.html.P'>"
p4826
sS'TFOOT'
p4827
S"<class 'gluon.html.TFOOT'>"
p4828
sS'XHTML'
p4829
S"<class 'gluon.html.XHTML'>"
p4830
sS'ON'
p4831
g1789
sS'OL'
p4832
S"<class 'gluon.html.OL'>"
p4833
sS'TEXTAREA'
p4834
S"<class 'gluon.html.TEXTAREA'>"
p4835
sS'MENU'
p4836
S"<class 'gluon.html.MENU'>"
p4837
sS'_file0'
p4838
S"'/datos/static/js/superfish.js'"
p4839
sS'LOAD'
p4840
S'<gluon.compileapp.LoadFactory object>'
p4841
sS'CODE'
p4842
S"<class 'gluon.html.CODE'>"
p4843
sS'HTTP'
p4844
S"<class 'gluon.http.HTTP'>"
p4845
sS'HR'
p4846
S"<class 'gluon.html.HR'>"
p4847
sS'IS_DATETIME'
p4848
S"<class 'gluon.validators.IS_DATETIME'>"
p4849
sS'HEAD'
p4850
S"<class 'gluon.html.HEAD'>"
p4851
sS'LABEL'
p4852
S"<class 'gluon.html.LABEL'>"
p4853
sS'CLEANUP'
p4854
S"<class 'gluon.validators.CLEANUP'>"
p4855
sS'SELECT'
p4856
S"<class 'gluon.html.SELECT'>"
p4857
sS'CENTER'
p4858
S"<class 'gluon.html.CENTER'>"
p4859
sS'left_sidebar_style'
p4860
S'\'style="display: none;"\''
p4861
sS'__builtins__'
p4862
S"{'ArithmeticError': <type 'exceptions.ArithmeticError'>, 'AssertionError': <type 'exceptions.AssertionError'>, 'AttributeError': <type 'exceptions.AttributeError'>, 'BaseException': <type 'exceptions.BaseException'>, 'BufferError': <type 'exceptions.BufferError'>, 'BytesWarning': <type 'exceptions.BytesWarning'>, 'DeprecationWarning': <type 'exceptions.DeprecationWarning'>, 'EOFError': <type 'exceptions.EOFError'>, 'Ellipsis': Ellipsis, 'EnvironmentError': <type 'exceptions.EnvironmentError'>, ...}"
p4863
sS'IS_LIST_OF'
p4864
S"<class 'gluon.validators.IS_LIST_OF'>"
p4865
sS'SQLFORM'
p4866
S"<class 'gluon.sqlhtml.SQLFORM'>"
p4867
sS'_item'
p4868
S"'author'"
p4869
sS'EM'
p4870
S"<class 'gluon.html.EM'>"
p4871
sS'redirect'
p4872
S'<function redirect>'
p4873
sS'FIELDSET'
p4874
S"<class 'gluon.html.FIELDSET'>"
p4875
sS'IS_EQUAL_TO'
p4876
S"<class 'gluon.validators.IS_EQUAL_TO'>"
p4877
sS'embed64'
p4878
S'<function embed64>'
p4879
sS'INPUT'
p4880
S"<class 'gluon.html.INPUT'>"
p4881
sS'EMBED'
p4882
S"<class 'gluon.html.EMBED'>"
p4883
sS'FORM'
p4884
S"<class 'gluon.html.FORM'>"
p4885
sS'width_content'
p4886
S"'100%'"
p4887
sS'H2'
p4888
S"<class 'gluon.html.H2'>"
p4889
sS'H3'
p4890
S"<class 'gluon.html.H3'>"
p4891
sS'H1'
p4892
S"<class 'gluon.html.H1'>"
p4893
sS'H6'
p4894
S"<class 'gluon.html.H6'>"
p4895
sS'H4'
p4896
S"<class 'gluon.html.H4'>"
p4897
sS'H5'
p4898
S"<class 'gluon.html.H5'>"
p4899
sS'UL'
p4900
S"<class 'gluon.html.UL'>"
p4901
sS'IS_UPPER'
p4902
S"<class 'gluon.validators.IS_UPPER'>"
p4903
sS'xmlescape'
p4904
S'<function xmlescape>'
p4905
sS'IS_TIME'
p4906
S"<class 'gluon.validators.IS_TIME'>"
p4907
sS'OPTION'
p4908
S"<class 'gluon.html.OPTION'>"
p4909
sS'TITLE'
p4910
S"<class 'gluon.html.TITLE'>"
p4911
sS'CRYPT'
p4912
S"<class 'gluon.validators.CRYPT'>"
p4913
sS'IS_EMPTY_OR'
p4914
S"<class 'gluon.validators.IS_EMPTY_OR'>"
p4915
sS'MARKMIN'
p4916
S"<class 'gluon.html.MARKMIN'>"
p4917
sS'SCRIPT'
p4918
S"<class 'gluon.html.SCRIPT'>"
p4919
sS'TABLE'
p4920
S"<class 'gluon.html.TABLE'>"
p4921
sS'IS_IPV4'
p4922
S"<class 'gluon.validators.IS_IPV4'>"
p4923
sS'IS_LENGTH'
p4924
S"<class 'gluon.validators.IS_LENGTH'>"
p4925
sS'XML'
p4926
S"<class 'gluon.html.XML'>"
p4927
sS'B'
S"<class 'gluon.html.B'>"
p4928
sS'IMG'
p4929
S"<class 'gluon.html.IMG'>"
p4930
sS'SQLTABLE'
p4931
S"<class 'gluon.sqlhtml.SQLTABLE'>"
p4932
sS'IS_MATCH'
p4933
S"<class 'gluon.validators.IS_MATCH'>"
p4934
sS'IS_ALPHANUMERIC'
p4935
S"<class 'gluon.validators.IS_ALPHANUMERIC'>"
p4936
sS'SPAN'
p4937
S"<class 'gluon.html.SPAN'>"
p4938
sS'IS_SLUG'
p4939
S"<class 'gluon.validators.IS_SLUG'>"
p4940
sS'BEAUTIFY'
p4941
S"<class 'gluon.html.BEAUTIFY'>"
p4942
sS'META'
p4943
S"<class 'gluon.html.META'>"
p4944
sS'IS_DATE'
p4945
S"<class 'gluon.validators.IS_DATE'>"
p4946
sS'IS_EMAIL'
p4947
S"<class 'gluon.validators.IS_EMAIL'>"
p4948
sS'IS_NOT_EMPTY'
p4949
S"<class 'gluon.validators.IS_NOT_EMPTY'>"
p4950
sg55
S"<Storage {'body': <cStringIO.StringO object at 0..._vars': <Storage {}>, 'post_vars': <Storage {}>}>"
p4951
sS'TBODY'
p4952
S"<class 'gluon.html.TBODY'>"
p4953
sS'Field'
p4954
S"<class 'gluon.dal.Field'>"
p4955
sS'DIV'
p4956
S"<class 'gluon.html.DIV'>"
p4957
sS'LEGEND'
p4958
S"<class 'gluon.html.LEGEND'>"
p4959
sS'DAL'
p4960
S"<class 'gluon.dal.DAL'>"
p4961
sS'TT'
p4962
S"<class 'gluon.html.TT'>"
p4963
sS'TR'
p4964
S"<class 'gluon.html.TR'>"
p4965
sS'LI'
p4966
S"<class 'gluon.html.LI'>"
p4967
sS'right_sidebar_enabled'
p4968
g99
sS'IFRAME'
p4969
S"<class 'gluon.html.IFRAME'>"
p4970
sS'TD'
p4971
S"<class 'gluon.html.TD'>"
p4972
sS'IS_URL'
p4973
S"<class 'gluon.validators.IS_URL'>"
p4974
sS'A'
S"<class 'gluon.html.A'>"
p4975
sS'STYLE'
p4976
S"<class 'gluon.html.STYLE'>"
p4977
sS'IS_DATETIME_IN_RANGE'
p4978
S"<class 'gluon.validators.IS_DATETIME_IN_RANGE'>"
p4979
sS'HTML'
p4980
S"<class 'gluon.html.HTML'>"
p4981
sS'IS_IMAGE'
p4982
S"<class 'gluon.validators.IS_IMAGE'>"
p4983
sS'I'
S"<class 'gluon.html.I'>"
p4984
sS'right_sidebar_style'
p4985
S'\'style="display: none;"\''
p4986
sS'IS_NOT_IN_DB'
p4987
S"<class 'gluon.validators.IS_NOT_IN_DB'>"
p4988
sS'dato'
p4989
S"<Row {'update_record': <function <lambda> at 0x9...elete_record': <function <lambda> at 0x9ee380c>}>"
p4990
sg2905
S"<Storage {'body': <cStringIO.StringO object at 0...> at 0xa051fb4>, 'view': 'default/detalle.html'}>"
p4991
sS'THEAD'
p4992
S"<class 'gluon.html.THEAD'>"
p4993
sS'IS_NULL_OR'
p4994
S"<class 'gluon.validators.IS_EMPTY_OR'>"
p4995
sS'alumno'
p4996
S'<gluon.dal.Rows object>'
p4997
sS'IS_FLOAT_IN_RANGE'
p4998
S"<class 'gluon.validators.IS_FLOAT_IN_RANGE'>"
p4999
sS'IS_EXPR'
p5000
S"<class 'gluon.validators.IS_EXPR'>"
p5001
sS'T'
S'<gluon.languages.translator object>'
p5002
sS'IS_IN_SET'
p5003
S"<class 'gluon.validators.IS_IN_SET'>"
p5004
sS'IS_UPLOAD_FILENAME'
p5005
S"<class 'gluon.validators.IS_UPLOAD_FILENAME'>"
p5006
sS'style_content'
p5007
S'\'style="width: 100%"\''
p5008
sS'IS_DECIMAL_IN_RANGE'
p5009
S"<class 'gluon.validators.IS_DECIMAL_IN_RANGE'>"
p5010
sssS'traceback'
p5011
S'Traceback (most recent call last):\n  File "/home/alumno/web2py/gluon/restricted.py", line 192, in restricted\n    exec ccode in environment\n  File "/home/alumno/web2py/applications/datos/views/default/detalle.html", line 107, in <module>\nNameError: name \'data\' is not defined\n'
p5012
s.