(dp1
S'output'
p2
S''
sS'layer'
p3
S'/home/alumno/web2py/applications/datos/views/default/detalle.html'
p4
sS'code'
p5
S'response.write(\'<!DOCTYPE html>\\n<html lang="\', escape=False)\nresponse.write(T.accepted_language or \'en\')\nresponse.write(\'" class="no-js"><!-- no-js need it for modernzr -->\\n  <head>\\n    \\n    <meta charset="utf-8" />\\t  \\t\\n    <!-- www.phpied.com/conditional-comments-block-downloads/ -->\\n    <!--[if IE]><![endif]-->    \\n    <!-- Always force latest IE rendering engine \\n\\t (even in intranet) & Chrome Frame \\n\\t Remove this if you use the .htaccess -->\\n    <meta http-equiv="X-UA-Compatible" content="IE=edge,chrome=1">\\n    \\n    <title>\', escape=False)\nresponse.write(response.title or request.application)\nresponse.write(\'</title>\\n    \\n    <!-- http://dev.w3.org/html5/markup/meta.name.html -->\\n    <meta name="application-name" content="\', escape=False)\nresponse.write(request.application)\nresponse.write(\'" />\\t\\n    \\n    <!-- Speaking of Google, don\\\'t forget to set your site up: \\n\\t http://google.com/webmasters -->\\n    <meta name="google-site-verification" content="" />\\n    \\n    <!--  Mobile Viewport Fix\\n\\t  j.mp/mobileviewport & davidbcalhoun.com/2010/viewport-metatag \\n\\t  device-width: Occupy full width of the screen in its current orientation\\n\\t  initial-scale = 1.0 retains dimensions instead of zooming out if page height > device height\\n\\t  maximum-scale = 1.0 retains dimensions instead of zooming in if page width < device width\\n      -->\\n    <meta name="viewport" content="width=device-width; initial-scale=1.0; maximum-scale=1.0">\\n    \\n    <!-- Place favicon.ico and apple-touch-icon.png in the root of your domain and delete these references -->\\n    <link rel="shortcut icon" href="\', escape=False)\nresponse.write(URL(\'static\',\'favicon.ico\'))\nresponse.write(\'" type="image/x-icon">\\n    <link rel="apple-touch-icon" href="\', escape=False)\nresponse.write(URL(\'static\',\'favicon.png\'))\nresponse.write(\'">\\n\\n    <!-- For the less-enabled mobile browsers like Opera Mini -->\\n    <link rel="stylesheet" media="handheld" href="\', escape=False)\nresponse.write(URL(\'static\',\'css/handheld.css\'))\nresponse.write(\'">\\n    \\n    <!-- All JavaScript at the bottom, except for Modernizr which enables HTML5 elements & feature detects -->\\n    <script src="\', escape=False)\nresponse.write(URL(\'static\',\'js/modernizr-1.7.min.js\'))\nresponse.write(\'"></script>\\n    \\n    \', escape=False)\n#------  require CSS and JS files for this page (read info in base.css) ------\nresponse.write(\'\\n    \', escape=False)\nresponse.files.append(URL(\'static\',\'css/base.css\'))\nresponse.write(\'\\n    \', escape=False)\nresponse.files.append(URL(\'static\',\'css/superfish.css\'))\nresponse.write(\'\\n    \', escape=False)\nresponse.files.append(URL(\'static\',\'js/superfish.js\'))\nresponse.write(\'\\n    \', escape=False)\n#------ include web2py specific js code (jquery, calendar, form stuff) ------\nresponse.write(\'\\n    \', escape=False)\nresponse.files.insert(0,URL(\'static\',\'js/jquery.js\'))\nresponse.files.insert(1,URL(\'static\',\'css/calendar.css\'))\nresponse.files.insert(2,URL(\'static\',\'js/calendar.js\'))\nfor _item in response.meta or []:\n    response.write(\'\\n     <meta name="\', escape=False)\n    response.write(_item)\n    response.write(\'" content="\', escape=False)\n    response.write(response.meta[_item])\n    response.write(\'" />\', escape=False)\n    pass\nfor _k,_file in enumerate(response.files or []):\n    if _file in response.files[:_k]:\n        continue\n    _file0=_file.lower().split(\'?\')[0]\n    if _file0.endswith(\'.css\'):\n        response.write(\'\\n     <link href="\', escape=False)\n        response.write(_file)\n        response.write(\'" rel="stylesheet" type="text/css" />\', escape=False)\n    elif _file0.endswith(\'.js\'):\n        response.write(\'\\n     <script src="\', escape=False)\n        response.write(_file)\n        response.write(\'" type="text/javascript"></script>\', escape=False)\n        pass\n    pass\nresponse.write(\'\\n    <script type="text/javascript"><!--\\n    // These variables are used by the web2py_ajax_init function in web2py_ajax.js (which is loaded below).\\n    var w2p_ajax_confirm_message = "\', escape=False)\nresponse.write(T(\'Are you sure you want to delete this object?\'))\nresponse.write(\'";\\n    var w2p_ajax_date_format = "\', escape=False)\nresponse.write(T(\'%Y-%m-%d\'))\nresponse.write(\'";\\n    var w2p_ajax_datetime_format = "\', escape=False)\nresponse.write(T(\'%Y-%m-%d %H:%M:%S\'))\nresponse.write(\'";\\n    //--></script>\\n    <script src="\', escape=False)\nresponse.write(URL(\'static\',\'js/web2py_ajax.js\'))\nresponse.write(\'" type="text/javascript"></script>\\n\', escape=False)\nresponse.write(\'\\n\\n    \', escape=False)\n#using sidebars need to know what sidebar you want to use\n#prior of using it, because of static width size of content, you can use\n#left_sidebar, right_sidebar, both or none (False left and right)\nleft_sidebar_enabled = globals().get(\'left_sidebar_enabled\',False)\nright_sidebar_enabled = globals().get(\'right_sidebar_enabled\',False)\nif left_sidebar_enabled and right_sidebar_enabled: width_content=\'63%\'\nelif left_sidebar_enabled != right_sidebar_enabled: width_content=\'740px\'\nelse: width_content=\'100%\'\nif left_sidebar_enabled: left_sidebar_style = \'style="display: block;"\'\nelse: left_sidebar_style = \'style="display: none;"\'\nif right_sidebar_enabled: right_sidebar_style = \'style="display: block;"\'\nelse: right_sidebar_style = \'style="display: none;"\'\nstyle_content = \'style="width: %s"\' % width_content\nresponse.write(\'\\n  </head>\\n  \\n  <!-- paulirish.com/2008/conditional-stylesheets-vs-css-hacks-answer-neither/ -->\\t\\n  <!--[if lt IE 7 ]> <body class="ie6"> <![endif]-->\\n  <!--[if IE 7 ]>    <body class="ie7"> <![endif]-->\\n  <!--[if IE 8 ]>    <body class="ie8"> <![endif]-->\\n  <!--[if IE 9 ]>    <body class="ie9"> <![endif]-->\\n  <!--[if (gt IE 9)|!(IE)]><!--> <body> <!--<![endif]-->\\n    \\n    <div class="flash">\', escape=False)\nresponse.write(response.flash or \'\')\nresponse.write(\'</div> <!-- notification div -->\\n    \\n    <div id="container">\\t      \\t\\t      \\t\\n      \\n      <div id="wrapper">\\t\\t\\n\\t\\n\\t<div id="header"> <!-- header and login nav -->\\n\\t  \', escape=False)\nresponse.write(\' <!-- this is default header -->\\n\\t  \', escape=False)\ntry:\n    response.write(auth.navbar(action=URL(\'default\',\'user\')))\nexcept:pass\nresponse.write(\'\\t\\t          \\n\\t  <h1><span id="appname">\', escape=False)\nresponse.write(request.application.capitalize())\nresponse.write(\'</span>App</h1>\\n\\t  <div style="clear: both;"></div><!-- Clear the divs -->\\n\\t  \', escape=False)\nresponse.write(\'\\t\\t\\t\\t  \\t\\t\\t\\t\\t  \\n\\t</div><!-- header  -->\\n\\t\\n\\t<div id="statusbar"><!-- statusbar is menu zone -->\\n\\t  \', escape=False)\nresponse.write(\' <!-- this is default statusbar -->\\n\\t  \', escape=False)\n#------ superfish menu ------\nresponse.write(\'\\n\\t  \', escape=False)\nresponse.write(MENU(response.menu,_class=\'sf-menu\'))\nresponse.write(\'\\n\\t  <script type="text/javascript">\\n\\t    jQuery(document).ready(function(){\\n\\t    jQuery(\\\'ul.sf-menu\\\').superfish();});\\n\\t  </script>\\n\\t  <div style="clear: both;"></div><!-- Clear the divs -->\\t\\n\\t  \', escape=False)\nresponse.write(\'\\t\\t\\t\\t\\n\\t</div><!-- statusbar -->\\n\\t\\n\\t<div id="page"> <!-- Here my central body -->\\t  \\n\\n\\t  \', escape=False)\nif left_sidebar_enabled:\n    response.write(\'\\n          <div id="left_sidebar" \', escape=False)\n    response.write(XML(left_sidebar_style))\n    response.write(\' >\\n            <div style="padding: 4px;">\\n\\t      \', escape=False)\n    response.write(\'Content Left Sidebar\', escape=False)\n    response.write(\'\\t\\t  \\n            </div>\\n          </div><!-- left_sidebar -->\\n\\t  \', escape=False)\n    pass\nresponse.write(\'\\n\\n\\t  <!-- content -->\\n\\t  <div id="content" \', escape=False)\nresponse.write(XML(style_content))\nresponse.write(\' >\\n\\t    \', escape=False)\nresponse.write(\'\\n\\n\', escape=False)\nfor datos in alumno:\n    response.write(\'\\n    <h1>\', escape=False)\n    response.write(datos.nombre)\n    response.write(\' \', escape=False)\n    response.write(datos.apellidos)\n    response.write(\'</h1>\\n    <h2>codigo estudiante: \', escape=False)\n    response.write(datos.codigo)\n    response.write(\'</h2>\\n    <p>\\n    \', escape=False)\n    response.write(datos.nombre)\n    response.write(\' nacio el \', escape=False)\n    response.write(datos.fnacimiento)\n    response.write(\'.\\n    tiene como pasatiempo \', escape=False)\n    response.write(datos.hobby)\n    response.write(".<br>\\n    su correo electronico es:\\n    <strong><a href=\'mailto:", escape=False)\n    response.write(datos.email)\n    response.write("\'>", escape=False)\n    response.write(datos.email)\n    response.write(\'</a></strong>\\n    </p>\\n    \\n\', escape=False)\n    pass\nresponse.write(\'\\n\\n\', escape=False)\nfor datos in profesor:\n    response.write(\'\\n    <h1>\', escape=False)\n    response.write(datos.nombre_completo)\n    response.write(\'</h1><br>\\n    <h2>Codigo: \', escape=False)\n    response.write(datos.codigo)\n    response.write(\'</h2>\\n    <h2>Especialidad: \', escape=False)\n    response.write(datos.especialidad)\n    response.write(\'</h2>\\n    <h2>Experiencia: \', escape=False)\n    response.write(datos.anios_experiencia)\n    response.write(\' a\\xc3\\xb1os</h2>\\n    \\n\', escape=False)\n    pass\nresponse.write(\'\\n\\n\', escape=False)\nfor datos in curso\nresponse.write(\'\\n    <h1>\', escape=False)\nresponse.write(datos.codigo)\nresponse.write(\' \', escape=False)\nresponse.write(datos.nombre)\nresponse.write(\' \', escape=False)\nresponse.write(datos.descripcion)\nresponse.write(\'</h1>\\n\', escape=False)\npass\nresponse.write(\'\\n\', escape=False)\nresponse.write(\'\\t\\n\\t  </div>\\n\\t  <!-- content -->\\n\\n\\t  \', escape=False)\nif right_sidebar_enabled:\n    response.write(\'\\n          <div id="right_sidebar" \', escape=False)\n    response.write(XML(right_sidebar_style))\n    response.write(\' >\\n            <div style="padding: 4px;">\\n              \', escape=False)\n    response.write(\'Content Right Sidebar\', escape=False)\n    response.write(\'\\n            </div>\\n\\t  </div><!-- right_sidebar -->\\n          \', escape=False)\n    pass\nresponse.write(\'\\n\\n\\n\\t  <div style="clear: both;"></div><!-- Clear the divs -->\\n\\t  \\n\\t</div><!-- page -->\\t\\t\\t\\t\\t\\t\\t\\n\\t\\n\\t<div id="footer">\\n\\t  \', escape=False)\nresponse.write(\' <!-- this is default footer -->\\n\\t  <a href="http://www.web2py.com/" style="float: left; padding-right: 6px;">\\n\\t    <img src="\', escape=False)\nresponse.write(URL(\'static\',\'images/poweredby.png\'))\nresponse.write(\'"/>\\n\\t  </a>\\n\\t  \', escape=False)\nresponse.write(T(\'Copyright\'))\nresponse.write(\' &#169; 2010\\t\\t\\t\\t\\n\\t  <div style="clear: both;"></div><!-- Clear the divs -->\\n\\t  \', escape=False)\nresponse.write(\'\\n\\n\\t</div><!-- footer -->\\t\\t\\t\\n      </div><!-- wrapper -->\\n    </div><!-- container -->\\t\\t\\n    \\n    <!--[if lt IE 7 ]>\\n\\t<script src="\', escape=False)\nresponse.write(URL(\'static\',\'js/dd_belatedpng.js\'))\nresponse.write(\'"></script>\\n\\t<script> DD_belatedPNG.fix(\\\'img, .png_bg\\\'); //fix any <img> or .png_bg background-images </script>\\n\\t<![endif]-->\\n    \\n    <!-- asynchronous google analytics: mathiasbynens.be/notes/async-analytics-snippet \\n\\t change the UA-XXXXX-X to be your site\\\'s ID -->\\n    <!--   \\n\\t   <script>\\n\\t     var _gaq = [[\\\'_setAccount\\\', \\\'UA-XXXXX-X\\\'], [\\\'_trackPageview\\\']];\\n\\t     (function(d, t) {\\n\\t     var g = d.createElement(t),\\n\\t     s = d.getElementsByTagName(t)[0];\\n\\t     g.async = true;\\n\\t     g.src = \\\'//www.google-analytics.com/ga.js\\\';\\n\\t     s.parentNode.insertBefore(g, s);\\n\\t     })(document, \\\'script\\\');\\n\\t   </script>\\n\\t   -->    \\n  </body>\\n</html>\\n\', escape=False)'
p6
sS'snapshot'
p7
(dp8
S'exception'
p9
(dp10
S'__getslice__'
p11
S"<method-wrapper '__getslice__' of exceptions.SyntaxError object>"
p12
sS'text'
p13
S"'for datos in curso\\n'"
p14
sS'__str__'
p15
S"<method-wrapper '__str__' of exceptions.SyntaxError object>"
p16
sS'__reduce__'
p17
S'<built-in method __reduce__ of exceptions.SyntaxError object>'
p18
sS'__dict__'
p19
S'{}'
p20
sS'__sizeof__'
p21
S'<built-in method __sizeof__ of exceptions.SyntaxError object>'
p22
sS'__init__'
p23
S"<method-wrapper '__init__' of exceptions.SyntaxError object>"
p24
sS'__setattr__'
p25
S"<method-wrapper '__setattr__' of exceptions.SyntaxError object>"
p26
sS'__reduce_ex__'
p27
S'<built-in method __reduce_ex__ of exceptions.SyntaxError object>'
p28
sS'__new__'
p29
S'<built-in method __new__ of type object>'
p30
sS'__format__'
p31
S'<built-in method __format__ of exceptions.SyntaxError object>'
p32
sS'__class__'
p33
S"<type 'exceptions.SyntaxError'>"
p34
sS'filename'
p35
S"'/home/alumno/web2py/applications/datos/views/default/detalle.html'"
p36
sS'lineno'
p37
S'133'
p38
sS'msg'
p39
S"'invalid syntax'"
p40
sS'__doc__'
p41
S"'Invalid syntax.'"
p42
sS'__getitem__'
p43
S"<method-wrapper '__getitem__' of exceptions.SyntaxError object>"
p44
sS'__setstate__'
p45
S'<built-in method __setstate__ of exceptions.SyntaxError object>'
p46
sS'__getattribute__'
p47
S"<method-wrapper '__getattribute__' of exceptions.SyntaxError object>"
p48
sS'print_file_and_line'
p49
S'None'
p50
sS'args'
p51
S"('invalid syntax', ('/home/alumno/web2py/applications/datos/views/default/detalle.html', 133, 19, 'for datos in curso\\n'))"
p52
sS'__subclasshook__'
p53
S'<built-in method __subclasshook__ of type object>'
p54
sS'offset'
p55
S'19'
p56
sS'__unicode__'
p57
S'<built-in method __unicode__ of exceptions.SyntaxError object>'
p58
sS'__delattr__'
p59
S"<method-wrapper '__delattr__' of exceptions.SyntaxError object>"
p60
sS'__repr__'
p61
S"<method-wrapper '__repr__' of exceptions.SyntaxError object>"
p62
sS'__hash__'
p63
S"<method-wrapper '__hash__' of exceptions.SyntaxError object>"
p64
ssS'evalue'
p65
S'invalid syntax (detalle.html, line 133)'
p66
sS'request'
p67
ccopy_reg
_reconstructor
p68
(cgluon.html
BEAUTIFY
p69
c__builtin__
object
p70
NtRp71
(dp72
S'attributes'
p73
(dp74
sS'components'
p75
(lp76
g68
(cgluon.html
TABLE
p77
g70
NtRp78
(dp79
g73
(dp80
S'level'
p81
I5
ssS'parent'
p82
Nsg75
(lp83
g68
(cgluon.html
TR
p84
g70
NtRp85
(dp86
g73
(dp87
sg82
g78
sg75
(lp88
g68
(cgluon.html
TD
p89
g70
NtRp90
(dp91
g73
(dp92
S'_style'
p93
S'font-weight:bold;'
p94
ssg82
g85
sg75
(lp95
S'ajax'
p96
asbag68
(g89
g70
NtRp97
(dp98
g73
(dp99
S'_valign'
p100
S'top'
p101
ssg82
g85
sg75
(lp102
S':'
asbag68
(g89
g70
NtRp103
(dp104
g73
(dp105
sg82
g85
sg75
(lp106
g68
(g69
g70
NtRp107
(dp108
g73
(dp109
g81
I5
ssg82
g103
sg75
(lp110
S'False'
p111
asbasbasbag68
(g84
g70
NtRp112
(dp113
g73
(dp114
sg82
g78
sg75
(lp115
g68
(g89
g70
NtRp116
(dp117
g73
(dp118
g93
g94
ssg82
g112
sg75
(lp119
S'application'
p120
asbag68
(g89
g70
NtRp121
(dp122
g73
(dp123
g100
g101
ssg82
g112
sg75
(lp124
S':'
asbag68
(g89
g70
NtRp125
(dp126
g73
(dp127
sg82
g112
sg75
(lp128
g68
(g69
g70
NtRp129
(dp130
g73
(dp131
g81
I5
ssg82
g125
sg75
(lp132
S'datos'
p133
asbasbasbag68
(g84
g70
NtRp134
(dp135
g73
(dp136
sg82
g78
sg75
(lp137
g68
(g89
g70
NtRp138
(dp139
g73
(dp140
g93
g94
ssg82
g134
sg75
(lp141
g51
asbag68
(g89
g70
NtRp142
(dp143
g73
(dp144
g100
g101
ssg82
g134
sg75
(lp145
S':'
asbag68
(g89
g70
NtRp146
(dp147
g73
(dp148
sg82
g134
sg75
(lp149
g68
(g69
g70
NtRp150
(dp151
g73
(dp152
g81
I5
ssg82
g146
sg75
(lp153
g68
(g77
g70
NtRp154
(dp155
g73
(dp156
g81
I4
ssg82
Nsg75
(lp157
g68
(g84
g70
NtRp158
(dp159
g73
(dp160
sg82
g154
sg75
(lp161
g68
(g89
g70
NtRp162
(dp163
g73
(dp164
sg82
g158
sg75
(lp165
g68
(g69
g70
NtRp166
(dp167
g73
(dp168
g81
I4
ssg82
g162
sg75
(lp169
S'001'
p170
asbasbasbasbasbasbasbag68
(g84
g70
NtRp171
(dp172
g73
(dp173
sg82
g78
sg75
(lp174
g68
(g89
g70
NtRp175
(dp176
g73
(dp177
g93
g94
ssg82
g171
sg75
(lp178
S'body'
p179
asbag68
(g89
g70
NtRp180
(dp181
g73
(dp182
g100
g101
ssg82
g171
sg75
(lp183
S':'
asbag68
(g89
g70
NtRp184
(dp185
g73
(dp186
sg82
g171
sg75
(lp187
g68
(g69
g70
NtRp188
(dp189
g73
(dp190
g81
I5
ssg82
g184
sg75
(lp191
S'<cStringIO.StringO object at 0x9692080>'
p192
asbasbasbag68
(g84
g70
NtRp193
(dp194
g73
(dp195
sg82
g78
sg75
(lp196
g68
(g89
g70
NtRp197
(dp198
g73
(dp199
g93
g94
ssg82
g193
sg75
(lp200
S'client'
p201
asbag68
(g89
g70
NtRp202
(dp203
g73
(dp204
g100
g101
ssg82
g193
sg75
(lp205
S':'
asbag68
(g89
g70
NtRp206
(dp207
g73
(dp208
sg82
g193
sg75
(lp209
g68
(g69
g70
NtRp210
(dp211
g73
(dp212
g81
I5
ssg82
g206
sg75
(lp213
S'127.0.0.1'
p214
asbasbasbag68
(g84
g70
NtRp215
(dp216
g73
(dp217
sg82
g78
sg75
(lp218
g68
(g89
g70
NtRp219
(dp220
g73
(dp221
g93
g94
ssg82
g215
sg75
(lp222
S'controller'
p223
asbag68
(g89
g70
NtRp224
(dp225
g73
(dp226
g100
g101
ssg82
g215
sg75
(lp227
S':'
asbag68
(g89
g70
NtRp228
(dp229
g73
(dp230
sg82
g215
sg75
(lp231
g68
(g69
g70
NtRp232
(dp233
g73
(dp234
g81
I5
ssg82
g228
sg75
(lp235
S'default'
p236
asbasbasbag68
(g84
g70
NtRp237
(dp238
g73
(dp239
sg82
g78
sg75
(lp240
g68
(g89
g70
NtRp241
(dp242
g73
(dp243
g93
g94
ssg82
g237
sg75
(lp244
S'cookies'
p245
asbag68
(g89
g70
NtRp246
(dp247
g73
(dp248
g100
g101
ssg82
g237
sg75
(lp249
S':'
asbag68
(g89
g70
NtRp250
(dp251
g73
(dp252
sg82
g237
sg75
(lp253
g68
(g69
g70
NtRp254
(dp255
g73
(dp256
g81
I5
ssg82
g250
sg75
(lp257
g68
(g77
g70
NtRp258
(dp259
g73
(dp260
g81
I4
ssg82
Nsg75
(lp261
g68
(g84
g70
NtRp262
(dp263
g73
(dp264
sg82
g258
sg75
(lp265
g68
(g89
g70
NtRp266
(dp267
g73
(dp268
g93
g94
ssg82
g262
sg75
(lp269
S'adminLanguage'
p270
asbag68
(g89
g70
NtRp271
(dp272
g73
(dp273
g100
g101
ssg82
g262
sg75
(lp274
S':'
asbag68
(g89
g70
NtRp275
(dp276
g73
(dp277
sg82
g262
sg75
(lp278
g68
(g69
g70
NtRp279
(dp280
g73
(dp281
g81
I4
ssg82
g275
sg75
(lp282
g68
(g77
g70
NtRp283
(dp284
g73
(dp285
g81
I3
ssg82
Nsg75
(lp286
g68
(g84
g70
NtRp287
(dp288
g73
(dp289
sg82
g283
sg75
(lp290
g68
(g89
g70
NtRp291
(dp292
g73
(dp293
g93
g94
ssg82
g287
sg75
(lp294
S'comment'
p295
asbag68
(g89
g70
NtRp296
(dp297
g73
(dp298
g100
g101
ssg82
g287
sg75
(lp299
S':'
asbag68
(g89
g70
NtRp300
(dp301
g73
(dp302
sg82
g287
sg75
(lp303
g68
(g69
g70
NtRp304
(dp305
g73
(dp306
g81
I3
ssg82
g300
sg75
(lp307
S''
asbasbasbag68
(g84
g70
NtRp308
(dp309
g73
(dp310
sg82
g283
sg75
(lp311
g68
(g89
g70
NtRp312
(dp313
g73
(dp314
g93
g94
ssg82
g308
sg75
(lp315
S'domain'
p316
asbag68
(g89
g70
NtRp317
(dp318
g73
(dp319
g100
g101
ssg82
g308
sg75
(lp320
S':'
asbag68
(g89
g70
NtRp321
(dp322
g73
(dp323
sg82
g308
sg75
(lp324
g68
(g69
g70
NtRp325
(dp326
g73
(dp327
g81
I3
ssg82
g321
sg75
(lp328
S''
asbasbasbag68
(g84
g70
NtRp329
(dp330
g73
(dp331
sg82
g283
sg75
(lp332
g68
(g89
g70
NtRp333
(dp334
g73
(dp335
g93
g94
ssg82
g329
sg75
(lp336
S'expires'
p337
asbag68
(g89
g70
NtRp338
(dp339
g73
(dp340
g100
g101
ssg82
g329
sg75
(lp341
S':'
asbag68
(g89
g70
NtRp342
(dp343
g73
(dp344
sg82
g329
sg75
(lp345
g68
(g69
g70
NtRp346
(dp347
g73
(dp348
g81
I3
ssg82
g342
sg75
(lp349
S''
asbasbasbag68
(g84
g70
NtRp350
(dp351
g73
(dp352
sg82
g283
sg75
(lp353
g68
(g89
g70
NtRp354
(dp355
g73
(dp356
g93
g94
ssg82
g350
sg75
(lp357
S'httponly'
p358
asbag68
(g89
g70
NtRp359
(dp360
g73
(dp361
g100
g101
ssg82
g350
sg75
(lp362
S':'
asbag68
(g89
g70
NtRp363
(dp364
g73
(dp365
sg82
g350
sg75
(lp366
g68
(g69
g70
NtRp367
(dp368
g73
(dp369
g81
I3
ssg82
g363
sg75
(lp370
S''
asbasbasbag68
(g84
g70
NtRp371
(dp372
g73
(dp373
sg82
g283
sg75
(lp374
g68
(g89
g70
NtRp375
(dp376
g73
(dp377
g93
g94
ssg82
g371
sg75
(lp378
S'max-age'
p379
asbag68
(g89
g70
NtRp380
(dp381
g73
(dp382
g100
g101
ssg82
g371
sg75
(lp383
S':'
asbag68
(g89
g70
NtRp384
(dp385
g73
(dp386
sg82
g371
sg75
(lp387
g68
(g69
g70
NtRp388
(dp389
g73
(dp390
g81
I3
ssg82
g384
sg75
(lp391
S''
asbasbasbag68
(g84
g70
NtRp392
(dp393
g73
(dp394
sg82
g283
sg75
(lp395
g68
(g89
g70
NtRp396
(dp397
g73
(dp398
g93
g94
ssg82
g392
sg75
(lp399
S'path'
p400
asbag68
(g89
g70
NtRp401
(dp402
g73
(dp403
g100
g101
ssg82
g392
sg75
(lp404
S':'
asbag68
(g89
g70
NtRp405
(dp406
g73
(dp407
sg82
g392
sg75
(lp408
g68
(g69
g70
NtRp409
(dp410
g73
(dp411
g81
I3
ssg82
g405
sg75
(lp412
S''
asbasbasbag68
(g84
g70
NtRp413
(dp414
g73
(dp415
sg82
g283
sg75
(lp416
g68
(g89
g70
NtRp417
(dp418
g73
(dp419
g93
g94
ssg82
g413
sg75
(lp420
S'secure'
p421
asbag68
(g89
g70
NtRp422
(dp423
g73
(dp424
g100
g101
ssg82
g413
sg75
(lp425
S':'
asbag68
(g89
g70
NtRp426
(dp427
g73
(dp428
sg82
g413
sg75
(lp429
g68
(g69
g70
NtRp430
(dp431
g73
(dp432
g81
I3
ssg82
g426
sg75
(lp433
S''
asbasbasbag68
(g84
g70
NtRp434
(dp435
g73
(dp436
sg82
g283
sg75
(lp437
g68
(g89
g70
NtRp438
(dp439
g73
(dp440
g93
g94
ssg82
g434
sg75
(lp441
S'version'
p442
asbag68
(g89
g70
NtRp443
(dp444
g73
(dp445
g100
g101
ssg82
g434
sg75
(lp446
S':'
asbag68
(g89
g70
NtRp447
(dp448
g73
(dp449
sg82
g434
sg75
(lp450
g68
(g69
g70
NtRp451
(dp452
g73
(dp453
g81
I3
ssg82
g447
sg75
(lp454
S''
asbasbasbasbasbasbasbag68
(g84
g70
NtRp455
(dp456
g73
(dp457
sg82
g258
sg75
(lp458
g68
(g89
g70
NtRp459
(dp460
g73
(dp461
g93
g94
ssg82
g455
sg75
(lp462
S'session_id_admin'
p463
asbag68
(g89
g70
NtRp464
(dp465
g73
(dp466
g100
g101
ssg82
g455
sg75
(lp467
S':'
asbag68
(g89
g70
NtRp468
(dp469
g73
(dp470
sg82
g455
sg75
(lp471
g68
(g69
g70
NtRp472
(dp473
g73
(dp474
g81
I4
ssg82
g468
sg75
(lp475
g68
(g77
g70
NtRp476
(dp477
g73
(dp478
g81
I3
ssg82
Nsg75
(lp479
g68
(g84
g70
NtRp480
(dp481
g73
(dp482
sg82
g476
sg75
(lp483
g68
(g89
g70
NtRp484
(dp485
g73
(dp486
g93
g94
ssg82
g480
sg75
(lp487
g295
asbag68
(g89
g70
NtRp488
(dp489
g73
(dp490
g100
g101
ssg82
g480
sg75
(lp491
S':'
asbag68
(g89
g70
NtRp492
(dp493
g73
(dp494
sg82
g480
sg75
(lp495
g68
(g69
g70
NtRp496
(dp497
g73
(dp498
g81
I3
ssg82
g492
sg75
(lp499
S''
asbasbasbag68
(g84
g70
NtRp500
(dp501
g73
(dp502
sg82
g476
sg75
(lp503
g68
(g89
g70
NtRp504
(dp505
g73
(dp506
g93
g94
ssg82
g500
sg75
(lp507
g316
asbag68
(g89
g70
NtRp508
(dp509
g73
(dp510
g100
g101
ssg82
g500
sg75
(lp511
S':'
asbag68
(g89
g70
NtRp512
(dp513
g73
(dp514
sg82
g500
sg75
(lp515
g68
(g69
g70
NtRp516
(dp517
g73
(dp518
g81
I3
ssg82
g512
sg75
(lp519
S''
asbasbasbag68
(g84
g70
NtRp520
(dp521
g73
(dp522
sg82
g476
sg75
(lp523
g68
(g89
g70
NtRp524
(dp525
g73
(dp526
g93
g94
ssg82
g520
sg75
(lp527
g337
asbag68
(g89
g70
NtRp528
(dp529
g73
(dp530
g100
g101
ssg82
g520
sg75
(lp531
S':'
asbag68
(g89
g70
NtRp532
(dp533
g73
(dp534
sg82
g520
sg75
(lp535
g68
(g69
g70
NtRp536
(dp537
g73
(dp538
g81
I3
ssg82
g532
sg75
(lp539
S''
asbasbasbag68
(g84
g70
NtRp540
(dp541
g73
(dp542
sg82
g476
sg75
(lp543
g68
(g89
g70
NtRp544
(dp545
g73
(dp546
g93
g94
ssg82
g540
sg75
(lp547
g358
asbag68
(g89
g70
NtRp548
(dp549
g73
(dp550
g100
g101
ssg82
g540
sg75
(lp551
S':'
asbag68
(g89
g70
NtRp552
(dp553
g73
(dp554
sg82
g540
sg75
(lp555
g68
(g69
g70
NtRp556
(dp557
g73
(dp558
g81
I3
ssg82
g552
sg75
(lp559
S''
asbasbasbag68
(g84
g70
NtRp560
(dp561
g73
(dp562
sg82
g476
sg75
(lp563
g68
(g89
g70
NtRp564
(dp565
g73
(dp566
g93
g94
ssg82
g560
sg75
(lp567
g379
asbag68
(g89
g70
NtRp568
(dp569
g73
(dp570
g100
g101
ssg82
g560
sg75
(lp571
S':'
asbag68
(g89
g70
NtRp572
(dp573
g73
(dp574
sg82
g560
sg75
(lp575
g68
(g69
g70
NtRp576
(dp577
g73
(dp578
g81
I3
ssg82
g572
sg75
(lp579
S''
asbasbasbag68
(g84
g70
NtRp580
(dp581
g73
(dp582
sg82
g476
sg75
(lp583
g68
(g89
g70
NtRp584
(dp585
g73
(dp586
g93
g94
ssg82
g580
sg75
(lp587
g400
asbag68
(g89
g70
NtRp588
(dp589
g73
(dp590
g100
g101
ssg82
g580
sg75
(lp591
S':'
asbag68
(g89
g70
NtRp592
(dp593
g73
(dp594
sg82
g580
sg75
(lp595
g68
(g69
g70
NtRp596
(dp597
g73
(dp598
g81
I3
ssg82
g592
sg75
(lp599
S''
asbasbasbag68
(g84
g70
NtRp600
(dp601
g73
(dp602
sg82
g476
sg75
(lp603
g68
(g89
g70
NtRp604
(dp605
g73
(dp606
g93
g94
ssg82
g600
sg75
(lp607
g421
asbag68
(g89
g70
NtRp608
(dp609
g73
(dp610
g100
g101
ssg82
g600
sg75
(lp611
S':'
asbag68
(g89
g70
NtRp612
(dp613
g73
(dp614
sg82
g600
sg75
(lp615
g68
(g69
g70
NtRp616
(dp617
g73
(dp618
g81
I3
ssg82
g612
sg75
(lp619
S''
asbasbasbag68
(g84
g70
NtRp620
(dp621
g73
(dp622
sg82
g476
sg75
(lp623
g68
(g89
g70
NtRp624
(dp625
g73
(dp626
g93
g94
ssg82
g620
sg75
(lp627
g442
asbag68
(g89
g70
NtRp628
(dp629
g73
(dp630
g100
g101
ssg82
g620
sg75
(lp631
S':'
asbag68
(g89
g70
NtRp632
(dp633
g73
(dp634
sg82
g620
sg75
(lp635
g68
(g69
g70
NtRp636
(dp637
g73
(dp638
g81
I3
ssg82
g632
sg75
(lp639
S''
asbasbasbasbasbasbasbag68
(g84
g70
NtRp640
(dp641
g73
(dp642
sg82
g258
sg75
(lp643
g68
(g89
g70
NtRp644
(dp645
g73
(dp646
g93
g94
ssg82
g640
sg75
(lp647
S'session_id_datos'
p648
asbag68
(g89
g70
NtRp649
(dp650
g73
(dp651
g100
g101
ssg82
g640
sg75
(lp652
S':'
asbag68
(g89
g70
NtRp653
(dp654
g73
(dp655
sg82
g640
sg75
(lp656
g68
(g69
g70
NtRp657
(dp658
g73
(dp659
g81
I4
ssg82
g653
sg75
(lp660
g68
(g77
g70
NtRp661
(dp662
g73
(dp663
g81
I3
ssg82
Nsg75
(lp664
g68
(g84
g70
NtRp665
(dp666
g73
(dp667
sg82
g661
sg75
(lp668
g68
(g89
g70
NtRp669
(dp670
g73
(dp671
g93
g94
ssg82
g665
sg75
(lp672
g295
asbag68
(g89
g70
NtRp673
(dp674
g73
(dp675
g100
g101
ssg82
g665
sg75
(lp676
S':'
asbag68
(g89
g70
NtRp677
(dp678
g73
(dp679
sg82
g665
sg75
(lp680
g68
(g69
g70
NtRp681
(dp682
g73
(dp683
g81
I3
ssg82
g677
sg75
(lp684
S''
asbasbasbag68
(g84
g70
NtRp685
(dp686
g73
(dp687
sg82
g661
sg75
(lp688
g68
(g89
g70
NtRp689
(dp690
g73
(dp691
g93
g94
ssg82
g685
sg75
(lp692
g316
asbag68
(g89
g70
NtRp693
(dp694
g73
(dp695
g100
g101
ssg82
g685
sg75
(lp696
S':'
asbag68
(g89
g70
NtRp697
(dp698
g73
(dp699
sg82
g685
sg75
(lp700
g68
(g69
g70
NtRp701
(dp702
g73
(dp703
g81
I3
ssg82
g697
sg75
(lp704
S''
asbasbasbag68
(g84
g70
NtRp705
(dp706
g73
(dp707
sg82
g661
sg75
(lp708
g68
(g89
g70
NtRp709
(dp710
g73
(dp711
g93
g94
ssg82
g705
sg75
(lp712
g337
asbag68
(g89
g70
NtRp713
(dp714
g73
(dp715
g100
g101
ssg82
g705
sg75
(lp716
S':'
asbag68
(g89
g70
NtRp717
(dp718
g73
(dp719
sg82
g705
sg75
(lp720
g68
(g69
g70
NtRp721
(dp722
g73
(dp723
g81
I3
ssg82
g717
sg75
(lp724
S''
asbasbasbag68
(g84
g70
NtRp725
(dp726
g73
(dp727
sg82
g661
sg75
(lp728
g68
(g89
g70
NtRp729
(dp730
g73
(dp731
g93
g94
ssg82
g725
sg75
(lp732
g358
asbag68
(g89
g70
NtRp733
(dp734
g73
(dp735
g100
g101
ssg82
g725
sg75
(lp736
S':'
asbag68
(g89
g70
NtRp737
(dp738
g73
(dp739
sg82
g725
sg75
(lp740
g68
(g69
g70
NtRp741
(dp742
g73
(dp743
g81
I3
ssg82
g737
sg75
(lp744
S''
asbasbasbag68
(g84
g70
NtRp745
(dp746
g73
(dp747
sg82
g661
sg75
(lp748
g68
(g89
g70
NtRp749
(dp750
g73
(dp751
g93
g94
ssg82
g745
sg75
(lp752
g379
asbag68
(g89
g70
NtRp753
(dp754
g73
(dp755
g100
g101
ssg82
g745
sg75
(lp756
S':'
asbag68
(g89
g70
NtRp757
(dp758
g73
(dp759
sg82
g745
sg75
(lp760
g68
(g69
g70
NtRp761
(dp762
g73
(dp763
g81
I3
ssg82
g757
sg75
(lp764
S''
asbasbasbag68
(g84
g70
NtRp765
(dp766
g73
(dp767
sg82
g661
sg75
(lp768
g68
(g89
g70
NtRp769
(dp770
g73
(dp771
g93
g94
ssg82
g765
sg75
(lp772
g400
asbag68
(g89
g70
NtRp773
(dp774
g73
(dp775
g100
g101
ssg82
g765
sg75
(lp776
S':'
asbag68
(g89
g70
NtRp777
(dp778
g73
(dp779
sg82
g765
sg75
(lp780
g68
(g69
g70
NtRp781
(dp782
g73
(dp783
g81
I3
ssg82
g777
sg75
(lp784
S''
asbasbasbag68
(g84
g70
NtRp785
(dp786
g73
(dp787
sg82
g661
sg75
(lp788
g68
(g89
g70
NtRp789
(dp790
g73
(dp791
g93
g94
ssg82
g785
sg75
(lp792
g421
asbag68
(g89
g70
NtRp793
(dp794
g73
(dp795
g100
g101
ssg82
g785
sg75
(lp796
S':'
asbag68
(g89
g70
NtRp797
(dp798
g73
(dp799
sg82
g785
sg75
(lp800
g68
(g69
g70
NtRp801
(dp802
g73
(dp803
g81
I3
ssg82
g797
sg75
(lp804
S''
asbasbasbag68
(g84
g70
NtRp805
(dp806
g73
(dp807
sg82
g661
sg75
(lp808
g68
(g89
g70
NtRp809
(dp810
g73
(dp811
g93
g94
ssg82
g805
sg75
(lp812
g442
asbag68
(g89
g70
NtRp813
(dp814
g73
(dp815
g100
g101
ssg82
g805
sg75
(lp816
S':'
asbag68
(g89
g70
NtRp817
(dp818
g73
(dp819
sg82
g805
sg75
(lp820
g68
(g69
g70
NtRp821
(dp822
g73
(dp823
g81
I3
ssg82
g817
sg75
(lp824
S''
asbasbasbasbasbasbasbag68
(g84
g70
NtRp825
(dp826
g73
(dp827
sg82
g258
sg75
(lp828
g68
(g89
g70
NtRp829
(dp830
g73
(dp831
g93
g94
ssg82
g825
sg75
(lp832
S'session_id_examples'
p833
asbag68
(g89
g70
NtRp834
(dp835
g73
(dp836
g100
g101
ssg82
g825
sg75
(lp837
S':'
asbag68
(g89
g70
NtRp838
(dp839
g73
(dp840
sg82
g825
sg75
(lp841
g68
(g69
g70
NtRp842
(dp843
g73
(dp844
g81
I4
ssg82
g838
sg75
(lp845
g68
(g77
g70
NtRp846
(dp847
g73
(dp848
g81
I3
ssg82
Nsg75
(lp849
g68
(g84
g70
NtRp850
(dp851
g73
(dp852
sg82
g846
sg75
(lp853
g68
(g89
g70
NtRp854
(dp855
g73
(dp856
g93
g94
ssg82
g850
sg75
(lp857
g295
asbag68
(g89
g70
NtRp858
(dp859
g73
(dp860
g100
g101
ssg82
g850
sg75
(lp861
S':'
asbag68
(g89
g70
NtRp862
(dp863
g73
(dp864
sg82
g850
sg75
(lp865
g68
(g69
g70
NtRp866
(dp867
g73
(dp868
g81
I3
ssg82
g862
sg75
(lp869
S''
asbasbasbag68
(g84
g70
NtRp870
(dp871
g73
(dp872
sg82
g846
sg75
(lp873
g68
(g89
g70
NtRp874
(dp875
g73
(dp876
g93
g94
ssg82
g870
sg75
(lp877
g316
asbag68
(g89
g70
NtRp878
(dp879
g73
(dp880
g100
g101
ssg82
g870
sg75
(lp881
S':'
asbag68
(g89
g70
NtRp882
(dp883
g73
(dp884
sg82
g870
sg75
(lp885
g68
(g69
g70
NtRp886
(dp887
g73
(dp888
g81
I3
ssg82
g882
sg75
(lp889
S''
asbasbasbag68
(g84
g70
NtRp890
(dp891
g73
(dp892
sg82
g846
sg75
(lp893
g68
(g89
g70
NtRp894
(dp895
g73
(dp896
g93
g94
ssg82
g890
sg75
(lp897
g337
asbag68
(g89
g70
NtRp898
(dp899
g73
(dp900
g100
g101
ssg82
g890
sg75
(lp901
S':'
asbag68
(g89
g70
NtRp902
(dp903
g73
(dp904
sg82
g890
sg75
(lp905
g68
(g69
g70
NtRp906
(dp907
g73
(dp908
g81
I3
ssg82
g902
sg75
(lp909
S''
asbasbasbag68
(g84
g70
NtRp910
(dp911
g73
(dp912
sg82
g846
sg75
(lp913
g68
(g89
g70
NtRp914
(dp915
g73
(dp916
g93
g94
ssg82
g910
sg75
(lp917
g358
asbag68
(g89
g70
NtRp918
(dp919
g73
(dp920
g100
g101
ssg82
g910
sg75
(lp921
S':'
asbag68
(g89
g70
NtRp922
(dp923
g73
(dp924
sg82
g910
sg75
(lp925
g68
(g69
g70
NtRp926
(dp927
g73
(dp928
g81
I3
ssg82
g922
sg75
(lp929
S''
asbasbasbag68
(g84
g70
NtRp930
(dp931
g73
(dp932
sg82
g846
sg75
(lp933
g68
(g89
g70
NtRp934
(dp935
g73
(dp936
g93
g94
ssg82
g930
sg75
(lp937
g379
asbag68
(g89
g70
NtRp938
(dp939
g73
(dp940
g100
g101
ssg82
g930
sg75
(lp941
S':'
asbag68
(g89
g70
NtRp942
(dp943
g73
(dp944
sg82
g930
sg75
(lp945
g68
(g69
g70
NtRp946
(dp947
g73
(dp948
g81
I3
ssg82
g942
sg75
(lp949
S''
asbasbasbag68
(g84
g70
NtRp950
(dp951
g73
(dp952
sg82
g846
sg75
(lp953
g68
(g89
g70
NtRp954
(dp955
g73
(dp956
g93
g94
ssg82
g950
sg75
(lp957
g400
asbag68
(g89
g70
NtRp958
(dp959
g73
(dp960
g100
g101
ssg82
g950
sg75
(lp961
S':'
asbag68
(g89
g70
NtRp962
(dp963
g73
(dp964
sg82
g950
sg75
(lp965
g68
(g69
g70
NtRp966
(dp967
g73
(dp968
g81
I3
ssg82
g962
sg75
(lp969
S''
asbasbasbag68
(g84
g70
NtRp970
(dp971
g73
(dp972
sg82
g846
sg75
(lp973
g68
(g89
g70
NtRp974
(dp975
g73
(dp976
g93
g94
ssg82
g970
sg75
(lp977
g421
asbag68
(g89
g70
NtRp978
(dp979
g73
(dp980
g100
g101
ssg82
g970
sg75
(lp981
S':'
asbag68
(g89
g70
NtRp982
(dp983
g73
(dp984
sg82
g970
sg75
(lp985
g68
(g69
g70
NtRp986
(dp987
g73
(dp988
g81
I3
ssg82
g982
sg75
(lp989
S''
asbasbasbag68
(g84
g70
NtRp990
(dp991
g73
(dp992
sg82
g846
sg75
(lp993
g68
(g89
g70
NtRp994
(dp995
g73
(dp996
g93
g94
ssg82
g990
sg75
(lp997
g442
asbag68
(g89
g70
NtRp998
(dp999
g73
(dp1000
g100
g101
ssg82
g990
sg75
(lp1001
S':'
asbag68
(g89
g70
NtRp1002
(dp1003
g73
(dp1004
sg82
g990
sg75
(lp1005
g68
(g69
g70
NtRp1006
(dp1007
g73
(dp1008
g81
I3
ssg82
g1002
sg75
(lp1009
S''
asbasbasbasbasbasbasbag68
(g84
g70
NtRp1010
(dp1011
g73
(dp1012
sg82
g258
sg75
(lp1013
g68
(g89
g70
NtRp1014
(dp1015
g73
(dp1016
g93
g94
ssg82
g1010
sg75
(lp1017
S'session_id_welcome'
p1018
asbag68
(g89
g70
NtRp1019
(dp1020
g73
(dp1021
g100
g101
ssg82
g1010
sg75
(lp1022
S':'
asbag68
(g89
g70
NtRp1023
(dp1024
g73
(dp1025
sg82
g1010
sg75
(lp1026
g68
(g69
g70
NtRp1027
(dp1028
g73
(dp1029
g81
I4
ssg82
g1023
sg75
(lp1030
g68
(g77
g70
NtRp1031
(dp1032
g73
(dp1033
g81
I3
ssg82
Nsg75
(lp1034
g68
(g84
g70
NtRp1035
(dp1036
g73
(dp1037
sg82
g1031
sg75
(lp1038
g68
(g89
g70
NtRp1039
(dp1040
g73
(dp1041
g93
g94
ssg82
g1035
sg75
(lp1042
g295
asbag68
(g89
g70
NtRp1043
(dp1044
g73
(dp1045
g100
g101
ssg82
g1035
sg75
(lp1046
S':'
asbag68
(g89
g70
NtRp1047
(dp1048
g73
(dp1049
sg82
g1035
sg75
(lp1050
g68
(g69
g70
NtRp1051
(dp1052
g73
(dp1053
g81
I3
ssg82
g1047
sg75
(lp1054
S''
asbasbasbag68
(g84
g70
NtRp1055
(dp1056
g73
(dp1057
sg82
g1031
sg75
(lp1058
g68
(g89
g70
NtRp1059
(dp1060
g73
(dp1061
g93
g94
ssg82
g1055
sg75
(lp1062
g316
asbag68
(g89
g70
NtRp1063
(dp1064
g73
(dp1065
g100
g101
ssg82
g1055
sg75
(lp1066
S':'
asbag68
(g89
g70
NtRp1067
(dp1068
g73
(dp1069
sg82
g1055
sg75
(lp1070
g68
(g69
g70
NtRp1071
(dp1072
g73
(dp1073
g81
I3
ssg82
g1067
sg75
(lp1074
S''
asbasbasbag68
(g84
g70
NtRp1075
(dp1076
g73
(dp1077
sg82
g1031
sg75
(lp1078
g68
(g89
g70
NtRp1079
(dp1080
g73
(dp1081
g93
g94
ssg82
g1075
sg75
(lp1082
g337
asbag68
(g89
g70
NtRp1083
(dp1084
g73
(dp1085
g100
g101
ssg82
g1075
sg75
(lp1086
S':'
asbag68
(g89
g70
NtRp1087
(dp1088
g73
(dp1089
sg82
g1075
sg75
(lp1090
g68
(g69
g70
NtRp1091
(dp1092
g73
(dp1093
g81
I3
ssg82
g1087
sg75
(lp1094
S''
asbasbasbag68
(g84
g70
NtRp1095
(dp1096
g73
(dp1097
sg82
g1031
sg75
(lp1098
g68
(g89
g70
NtRp1099
(dp1100
g73
(dp1101
g93
g94
ssg82
g1095
sg75
(lp1102
g358
asbag68
(g89
g70
NtRp1103
(dp1104
g73
(dp1105
g100
g101
ssg82
g1095
sg75
(lp1106
S':'
asbag68
(g89
g70
NtRp1107
(dp1108
g73
(dp1109
sg82
g1095
sg75
(lp1110
g68
(g69
g70
NtRp1111
(dp1112
g73
(dp1113
g81
I3
ssg82
g1107
sg75
(lp1114
S''
asbasbasbag68
(g84
g70
NtRp1115
(dp1116
g73
(dp1117
sg82
g1031
sg75
(lp1118
g68
(g89
g70
NtRp1119
(dp1120
g73
(dp1121
g93
g94
ssg82
g1115
sg75
(lp1122
g379
asbag68
(g89
g70
NtRp1123
(dp1124
g73
(dp1125
g100
g101
ssg82
g1115
sg75
(lp1126
S':'
asbag68
(g89
g70
NtRp1127
(dp1128
g73
(dp1129
sg82
g1115
sg75
(lp1130
g68
(g69
g70
NtRp1131
(dp1132
g73
(dp1133
g81
I3
ssg82
g1127
sg75
(lp1134
S''
asbasbasbag68
(g84
g70
NtRp1135
(dp1136
g73
(dp1137
sg82
g1031
sg75
(lp1138
g68
(g89
g70
NtRp1139
(dp1140
g73
(dp1141
g93
g94
ssg82
g1135
sg75
(lp1142
g400
asbag68
(g89
g70
NtRp1143
(dp1144
g73
(dp1145
g100
g101
ssg82
g1135
sg75
(lp1146
S':'
asbag68
(g89
g70
NtRp1147
(dp1148
g73
(dp1149
sg82
g1135
sg75
(lp1150
g68
(g69
g70
NtRp1151
(dp1152
g73
(dp1153
g81
I3
ssg82
g1147
sg75
(lp1154
S''
asbasbasbag68
(g84
g70
NtRp1155
(dp1156
g73
(dp1157
sg82
g1031
sg75
(lp1158
g68
(g89
g70
NtRp1159
(dp1160
g73
(dp1161
g93
g94
ssg82
g1155
sg75
(lp1162
g421
asbag68
(g89
g70
NtRp1163
(dp1164
g73
(dp1165
g100
g101
ssg82
g1155
sg75
(lp1166
S':'
asbag68
(g89
g70
NtRp1167
(dp1168
g73
(dp1169
sg82
g1155
sg75
(lp1170
g68
(g69
g70
NtRp1171
(dp1172
g73
(dp1173
g81
I3
ssg82
g1167
sg75
(lp1174
S''
asbasbasbag68
(g84
g70
NtRp1175
(dp1176
g73
(dp1177
sg82
g1031
sg75
(lp1178
g68
(g89
g70
NtRp1179
(dp1180
g73
(dp1181
g93
g94
ssg82
g1175
sg75
(lp1182
g442
asbag68
(g89
g70
NtRp1183
(dp1184
g73
(dp1185
g100
g101
ssg82
g1175
sg75
(lp1186
S':'
asbag68
(g89
g70
NtRp1187
(dp1188
g73
(dp1189
sg82
g1175
sg75
(lp1190
g68
(g69
g70
NtRp1191
(dp1192
g73
(dp1193
g81
I3
ssg82
g1187
sg75
(lp1194
S''
asbasbasbasbasbasbasbasbasbasbasbag68
(g84
g70
NtRp1195
(dp1196
g73
(dp1197
sg82
g78
sg75
(lp1198
g68
(g89
g70
NtRp1199
(dp1200
g73
(dp1201
g93
g94
ssg82
g1195
sg75
(lp1202
S'env'
p1203
asbag68
(g89
g70
NtRp1204
(dp1205
g73
(dp1206
g100
g101
ssg82
g1195
sg75
(lp1207
S':'
asbag68
(g89
g70
NtRp1208
(dp1209
g73
(dp1210
sg82
g1195
sg75
(lp1211
g68
(g69
g70
NtRp1212
(dp1213
g73
(dp1214
g81
I5
ssg82
g1208
sg75
(lp1215
g68
(g77
g70
NtRp1216
(dp1217
g73
(dp1218
g81
I4
ssg82
Nsg75
(lp1219
g68
(g84
g70
NtRp1220
(dp1221
g73
(dp1222
sg82
g1216
sg75
(lp1223
g68
(g89
g70
NtRp1224
(dp1225
g73
(dp1226
g93
g94
ssg82
g1220
sg75
(lp1227
S'app_folders'
p1228
asbag68
(g89
g70
NtRp1229
(dp1230
g73
(dp1231
g100
g101
ssg82
g1220
sg75
(lp1232
S':'
asbag68
(g89
g70
NtRp1233
(dp1234
g73
(dp1235
sg82
g1220
sg75
(lp1236
g68
(g69
g70
NtRp1237
(dp1238
g73
(dp1239
g81
I4
ssg82
g1233
sg75
(lp1240
S"set(['/home/alumno/web2py/applications/admin/', '/home/alumno/web2py/applications/examples/', '/home/alumno/web2py/applications/welcome/', '/home/alumno/web2py/applications/datos/'])"
p1241
asbasbasbag68
(g84
g70
NtRp1242
(dp1243
g73
(dp1244
sg82
g1216
sg75
(lp1245
g68
(g89
g70
NtRp1246
(dp1247
g73
(dp1248
g93
g94
ssg82
g1242
sg75
(lp1249
S'applications_parent'
p1250
asbag68
(g89
g70
NtRp1251
(dp1252
g73
(dp1253
g100
g101
ssg82
g1242
sg75
(lp1254
S':'
asbag68
(g89
g70
NtRp1255
(dp1256
g73
(dp1257
sg82
g1242
sg75
(lp1258
g68
(g69
g70
NtRp1259
(dp1260
g73
(dp1261
g81
I4
ssg82
g1255
sg75
(lp1262
S'/home/alumno/web2py'
p1263
asbasbasbag68
(g84
g70
NtRp1264
(dp1265
g73
(dp1266
sg82
g1216
sg75
(lp1267
g68
(g89
g70
NtRp1268
(dp1269
g73
(dp1270
g93
g94
ssg82
g1264
sg75
(lp1271
S'cmd_args'
p1272
asbag68
(g89
g70
NtRp1273
(dp1274
g73
(dp1275
g100
g101
ssg82
g1264
sg75
(lp1276
S':'
asbag68
(g89
g70
NtRp1277
(dp1278
g73
(dp1279
sg82
g1264
sg75
(lp1280
g68
(g69
g70
NtRp1281
(dp1282
g73
(dp1283
g81
I4
ssg82
g1277
sg75
(lp1284
g68
(g77
g70
NtRp1285
(dp1286
g73
(dp1287
g81
I3
ssg82
Nsg75
(lp1288
sbasbasbasbag68
(g84
g70
NtRp1289
(dp1290
g73
(dp1291
sg82
g1216
sg75
(lp1292
g68
(g89
g70
NtRp1293
(dp1294
g73
(dp1295
g93
g94
ssg82
g1289
sg75
(lp1296
S'cmd_options'
p1297
asbag68
(g89
g70
NtRp1298
(dp1299
g73
(dp1300
g100
g101
ssg82
g1289
sg75
(lp1301
S':'
asbag68
(g89
g70
NtRp1302
(dp1303
g73
(dp1304
sg82
g1289
sg75
(lp1305
g68
(g69
g70
NtRp1306
(dp1307
g73
(dp1308
g81
I4
ssg82
g1302
sg75
(lp1309
S"<Values at 0x9087cec: {'verbose': False, 'ip': '127.0.0.1', 'shutdown_timeout': 5, 'taskbar': False, 'port': 8000, 'maxthreads': None, 'softcron': False, 'server_name': 'ubuntu-dev', 'bpython': False, 'nogui': False, 'nocron': False, 'extcron': False, 'debuglevel': 30, 'test': None, 'folder': '/home/alumno/web2py', 'config': '', 'import_models': False, 'winservice': '', 'shell': None, 'run': '', 'log_filename': 'httpserver.log', 'args': [''], 'profiler_filename': None, 'ssl_private_key': '', 'password': 'toor', 'request_queue_size': 5, 'ssl_certificate': '', 'cronjob': False, 'plain': False, 'quiet': False, 'interfaces': None, 'minthreads': None, 'timeout': 10, 'numthreads': None, 'nobanner': False, 'pid_filename': 'httpserver.pid'}>"
p1310
asbasbasbag68
(g84
g70
NtRp1311
(dp1312
g73
(dp1313
sg82
g1216
sg75
(lp1314
g68
(g89
g70
NtRp1315
(dp1316
g73
(dp1317
g93
g94
ssg82
g1311
sg75
(lp1318
S'db_sessions'
p1319
asbag68
(g89
g70
NtRp1320
(dp1321
g73
(dp1322
g100
g101
ssg82
g1311
sg75
(lp1323
S':'
asbag68
(g89
g70
NtRp1324
(dp1325
g73
(dp1326
sg82
g1311
sg75
(lp1327
g68
(g69
g70
NtRp1328
(dp1329
g73
(dp1330
g81
I4
ssg82
g1324
sg75
(lp1331
S'set([])'
p1332
asbasbasbag68
(g84
g70
NtRp1333
(dp1334
g73
(dp1335
sg82
g1216
sg75
(lp1336
g68
(g89
g70
NtRp1337
(dp1338
g73
(dp1339
g93
g94
ssg82
g1333
sg75
(lp1340
S'debugging'
p1341
asbag68
(g89
g70
NtRp1342
(dp1343
g73
(dp1344
g100
g101
ssg82
g1333
sg75
(lp1345
S':'
asbag68
(g89
g70
NtRp1346
(dp1347
g73
(dp1348
sg82
g1333
sg75
(lp1349
g68
(g69
g70
NtRp1350
(dp1351
g73
(dp1352
g81
I4
ssg82
g1346
sg75
(lp1353
g111
asbasbasbag68
(g84
g70
NtRp1354
(dp1355
g73
(dp1356
sg82
g1216
sg75
(lp1357
g68
(g89
g70
NtRp1358
(dp1359
g73
(dp1360
g93
g94
ssg82
g1354
sg75
(lp1361
S'gluon_parent'
p1362
asbag68
(g89
g70
NtRp1363
(dp1364
g73
(dp1365
g100
g101
ssg82
g1354
sg75
(lp1366
S':'
asbag68
(g89
g70
NtRp1367
(dp1368
g73
(dp1369
sg82
g1354
sg75
(lp1370
g68
(g69
g70
NtRp1371
(dp1372
g73
(dp1373
g81
I4
ssg82
g1367
sg75
(lp1374
S'/home/alumno/web2py'
p1375
asbasbasbag68
(g84
g70
NtRp1376
(dp1377
g73
(dp1378
sg82
g1216
sg75
(lp1379
g68
(g89
g70
NtRp1380
(dp1381
g73
(dp1382
g93
g94
ssg82
g1376
sg75
(lp1383
S'http_accept'
p1384
asbag68
(g89
g70
NtRp1385
(dp1386
g73
(dp1387
g100
g101
ssg82
g1376
sg75
(lp1388
S':'
asbag68
(g89
g70
NtRp1389
(dp1390
g73
(dp1391
sg82
g1376
sg75
(lp1392
g68
(g69
g70
NtRp1393
(dp1394
g73
(dp1395
g81
I4
ssg82
g1389
sg75
(lp1396
S'text/html,application/xhtml+xml,application/xml;q=0.9,*/*;q=0.8'
p1397
asbasbasbag68
(g84
g70
NtRp1398
(dp1399
g73
(dp1400
sg82
g1216
sg75
(lp1401
g68
(g89
g70
NtRp1402
(dp1403
g73
(dp1404
g93
g94
ssg82
g1398
sg75
(lp1405
S'http_accept_charset'
p1406
asbag68
(g89
g70
NtRp1407
(dp1408
g73
(dp1409
g100
g101
ssg82
g1398
sg75
(lp1410
S':'
asbag68
(g89
g70
NtRp1411
(dp1412
g73
(dp1413
sg82
g1398
sg75
(lp1414
g68
(g69
g70
NtRp1415
(dp1416
g73
(dp1417
g81
I4
ssg82
g1411
sg75
(lp1418
S'ISO-8859-1,utf-8;q=0.7,*;q=0.7'
p1419
asbasbasbag68
(g84
g70
NtRp1420
(dp1421
g73
(dp1422
sg82
g1216
sg75
(lp1423
g68
(g89
g70
NtRp1424
(dp1425
g73
(dp1426
g93
g94
ssg82
g1420
sg75
(lp1427
S'http_accept_encoding'
p1428
asbag68
(g89
g70
NtRp1429
(dp1430
g73
(dp1431
g100
g101
ssg82
g1420
sg75
(lp1432
S':'
asbag68
(g89
g70
NtRp1433
(dp1434
g73
(dp1435
sg82
g1420
sg75
(lp1436
g68
(g69
g70
NtRp1437
(dp1438
g73
(dp1439
g81
I4
ssg82
g1433
sg75
(lp1440
S'gzip, deflate'
p1441
asbasbasbag68
(g84
g70
NtRp1442
(dp1443
g73
(dp1444
sg82
g1216
sg75
(lp1445
g68
(g89
g70
NtRp1446
(dp1447
g73
(dp1448
g93
g94
ssg82
g1442
sg75
(lp1449
S'http_accept_language'
p1450
asbag68
(g89
g70
NtRp1451
(dp1452
g73
(dp1453
g100
g101
ssg82
g1442
sg75
(lp1454
S':'
asbag68
(g89
g70
NtRp1455
(dp1456
g73
(dp1457
sg82
g1442
sg75
(lp1458
g68
(g69
g70
NtRp1459
(dp1460
g73
(dp1461
g81
I4
ssg82
g1455
sg75
(lp1462
S'es-ar,es;q=0.8,en-us;q=0.5,en;q=0.3'
p1463
asbasbasbag68
(g84
g70
NtRp1464
(dp1465
g73
(dp1466
sg82
g1216
sg75
(lp1467
g68
(g89
g70
NtRp1468
(dp1469
g73
(dp1470
g93
g94
ssg82
g1464
sg75
(lp1471
S'http_connection'
p1472
asbag68
(g89
g70
NtRp1473
(dp1474
g73
(dp1475
g100
g101
ssg82
g1464
sg75
(lp1476
S':'
asbag68
(g89
g70
NtRp1477
(dp1478
g73
(dp1479
sg82
g1464
sg75
(lp1480
g68
(g69
g70
NtRp1481
(dp1482
g73
(dp1483
g81
I4
ssg82
g1477
sg75
(lp1484
S'keep-alive'
p1485
asbasbasbag68
(g84
g70
NtRp1486
(dp1487
g73
(dp1488
sg82
g1216
sg75
(lp1489
g68
(g89
g70
NtRp1490
(dp1491
g73
(dp1492
g93
g94
ssg82
g1486
sg75
(lp1493
S'http_cookie'
p1494
asbag68
(g89
g70
NtRp1495
(dp1496
g73
(dp1497
g100
g101
ssg82
g1486
sg75
(lp1498
S':'
asbag68
(g89
g70
NtRp1499
(dp1500
g73
(dp1501
sg82
g1486
sg75
(lp1502
g68
(g69
g70
NtRp1503
(dp1504
g73
(dp1505
g81
I4
ssg82
g1499
sg75
(lp1506
S'session_id_welcome=127.0.0.1-c95fabcd-64b7-4ad2-8180-0b191d29eb3c; session_id_admin=127.0.0.1-2a24ba51-970a-4d02-b8db-815ef71053d7; adminLanguage=es-es; session_id_datos=127.0.0.1-46d2cb62-581d-41be-b0c5-47ee0f5ac400; session_id_examples=127.0.0.1-1b0b7a34-7f7b-4b4f-9bcd-8574562516ff'
p1507
asbasbasbag68
(g84
g70
NtRp1508
(dp1509
g73
(dp1510
sg82
g1216
sg75
(lp1511
g68
(g89
g70
NtRp1512
(dp1513
g73
(dp1514
g93
g94
ssg82
g1508
sg75
(lp1515
S'http_host'
p1516
asbag68
(g89
g70
NtRp1517
(dp1518
g73
(dp1519
g100
g101
ssg82
g1508
sg75
(lp1520
S':'
asbag68
(g89
g70
NtRp1521
(dp1522
g73
(dp1523
sg82
g1508
sg75
(lp1524
g68
(g69
g70
NtRp1525
(dp1526
g73
(dp1527
g81
I4
ssg82
g1521
sg75
(lp1528
S'127.0.0.1:8000'
p1529
asbasbasbag68
(g84
g70
NtRp1530
(dp1531
g73
(dp1532
sg82
g1216
sg75
(lp1533
g68
(g89
g70
NtRp1534
(dp1535
g73
(dp1536
g93
g94
ssg82
g1530
sg75
(lp1537
S'http_referer'
p1538
asbag68
(g89
g70
NtRp1539
(dp1540
g73
(dp1541
g100
g101
ssg82
g1530
sg75
(lp1542
S':'
asbag68
(g89
g70
NtRp1543
(dp1544
g73
(dp1545
sg82
g1530
sg75
(lp1546
g68
(g69
g70
NtRp1547
(dp1548
g73
(dp1549
g81
I4
ssg82
g1543
sg75
(lp1550
S'http://127.0.0.1:8000/datos/default/index'
p1551
asbasbasbag68
(g84
g70
NtRp1552
(dp1553
g73
(dp1554
sg82
g1216
sg75
(lp1555
g68
(g89
g70
NtRp1556
(dp1557
g73
(dp1558
g93
g94
ssg82
g1552
sg75
(lp1559
S'http_user_agent'
p1560
asbag68
(g89
g70
NtRp1561
(dp1562
g73
(dp1563
g100
g101
ssg82
g1552
sg75
(lp1564
S':'
asbag68
(g89
g70
NtRp1565
(dp1566
g73
(dp1567
sg82
g1552
sg75
(lp1568
g68
(g69
g70
NtRp1569
(dp1570
g73
(dp1571
g81
I4
ssg82
g1565
sg75
(lp1572
S'Mozilla/5.0 (X11; Linux i686; rv:6.0) Gecko/20100101 Firefox/6.0'
p1573
asbasbasbag68
(g84
g70
NtRp1574
(dp1575
g73
(dp1576
sg82
g1216
sg75
(lp1577
g68
(g89
g70
NtRp1578
(dp1579
g73
(dp1580
g93
g94
ssg82
g1574
sg75
(lp1581
S'path_info'
p1582
asbag68
(g89
g70
NtRp1583
(dp1584
g73
(dp1585
g100
g101
ssg82
g1574
sg75
(lp1586
S':'
asbag68
(g89
g70
NtRp1587
(dp1588
g73
(dp1589
sg82
g1574
sg75
(lp1590
g68
(g69
g70
NtRp1591
(dp1592
g73
(dp1593
g81
I4
ssg82
g1587
sg75
(lp1594
S'/datos/default/detalle/001'
p1595
asbasbasbag68
(g84
g70
NtRp1596
(dp1597
g73
(dp1598
sg82
g1216
sg75
(lp1599
g68
(g89
g70
NtRp1600
(dp1601
g73
(dp1602
g93
g94
ssg82
g1596
sg75
(lp1603
S'query_string'
p1604
asbag68
(g89
g70
NtRp1605
(dp1606
g73
(dp1607
g100
g101
ssg82
g1596
sg75
(lp1608
S':'
asbag68
(g89
g70
NtRp1609
(dp1610
g73
(dp1611
sg82
g1596
sg75
(lp1612
g68
(g69
g70
NtRp1613
(dp1614
g73
(dp1615
g81
I4
ssg82
g1609
sg75
(lp1616
S''
asbasbasbag68
(g84
g70
NtRp1617
(dp1618
g73
(dp1619
sg82
g1216
sg75
(lp1620
g68
(g89
g70
NtRp1621
(dp1622
g73
(dp1623
g93
g94
ssg82
g1617
sg75
(lp1624
S'remote_addr'
p1625
asbag68
(g89
g70
NtRp1626
(dp1627
g73
(dp1628
g100
g101
ssg82
g1617
sg75
(lp1629
S':'
asbag68
(g89
g70
NtRp1630
(dp1631
g73
(dp1632
sg82
g1617
sg75
(lp1633
g68
(g69
g70
NtRp1634
(dp1635
g73
(dp1636
g81
I4
ssg82
g1630
sg75
(lp1637
g214
asbasbasbag68
(g84
g70
NtRp1638
(dp1639
g73
(dp1640
sg82
g1216
sg75
(lp1641
g68
(g89
g70
NtRp1642
(dp1643
g73
(dp1644
g93
g94
ssg82
g1638
sg75
(lp1645
S'remote_port'
p1646
asbag68
(g89
g70
NtRp1647
(dp1648
g73
(dp1649
g100
g101
ssg82
g1638
sg75
(lp1650
S':'
asbag68
(g89
g70
NtRp1651
(dp1652
g73
(dp1653
sg82
g1638
sg75
(lp1654
g68
(g69
g70
NtRp1655
(dp1656
g73
(dp1657
g81
I4
ssg82
g1651
sg75
(lp1658
S'59592'
p1659
asbasbasbag68
(g84
g70
NtRp1660
(dp1661
g73
(dp1662
sg82
g1216
sg75
(lp1663
g68
(g89
g70
NtRp1664
(dp1665
g73
(dp1666
g93
g94
ssg82
g1660
sg75
(lp1667
S'request_method'
p1668
asbag68
(g89
g70
NtRp1669
(dp1670
g73
(dp1671
g100
g101
ssg82
g1660
sg75
(lp1672
S':'
asbag68
(g89
g70
NtRp1673
(dp1674
g73
(dp1675
sg82
g1660
sg75
(lp1676
g68
(g69
g70
NtRp1677
(dp1678
g73
(dp1679
g81
I4
ssg82
g1673
sg75
(lp1680
S'GET'
p1681
asbasbasbag68
(g84
g70
NtRp1682
(dp1683
g73
(dp1684
sg82
g1216
sg75
(lp1685
g68
(g89
g70
NtRp1686
(dp1687
g73
(dp1688
g93
g94
ssg82
g1682
sg75
(lp1689
S'script_name'
p1690
asbag68
(g89
g70
NtRp1691
(dp1692
g73
(dp1693
g100
g101
ssg82
g1682
sg75
(lp1694
S':'
asbag68
(g89
g70
NtRp1695
(dp1696
g73
(dp1697
sg82
g1682
sg75
(lp1698
g68
(g69
g70
NtRp1699
(dp1700
g73
(dp1701
g81
I4
ssg82
g1695
sg75
(lp1702
S''
asbasbasbag68
(g84
g70
NtRp1703
(dp1704
g73
(dp1705
sg82
g1216
sg75
(lp1706
g68
(g89
g70
NtRp1707
(dp1708
g73
(dp1709
g93
g94
ssg82
g1703
sg75
(lp1710
S'server_name'
p1711
asbag68
(g89
g70
NtRp1712
(dp1713
g73
(dp1714
g100
g101
ssg82
g1703
sg75
(lp1715
S':'
asbag68
(g89
g70
NtRp1716
(dp1717
g73
(dp1718
sg82
g1703
sg75
(lp1719
g68
(g69
g70
NtRp1720
(dp1721
g73
(dp1722
g81
I4
ssg82
g1716
sg75
(lp1723
S'ubuntu-dev'
p1724
asbasbasbag68
(g84
g70
NtRp1725
(dp1726
g73
(dp1727
sg82
g1216
sg75
(lp1728
g68
(g89
g70
NtRp1729
(dp1730
g73
(dp1731
g93
g94
ssg82
g1725
sg75
(lp1732
S'server_port'
p1733
asbag68
(g89
g70
NtRp1734
(dp1735
g73
(dp1736
g100
g101
ssg82
g1725
sg75
(lp1737
S':'
asbag68
(g89
g70
NtRp1738
(dp1739
g73
(dp1740
sg82
g1725
sg75
(lp1741
g68
(g69
g70
NtRp1742
(dp1743
g73
(dp1744
g81
I4
ssg82
g1738
sg75
(lp1745
S'8000'
p1746
asbasbasbag68
(g84
g70
NtRp1747
(dp1748
g73
(dp1749
sg82
g1216
sg75
(lp1750
g68
(g89
g70
NtRp1751
(dp1752
g73
(dp1753
g93
g94
ssg82
g1747
sg75
(lp1754
S'server_protocol'
p1755
asbag68
(g89
g70
NtRp1756
(dp1757
g73
(dp1758
g100
g101
ssg82
g1747
sg75
(lp1759
S':'
asbag68
(g89
g70
NtRp1760
(dp1761
g73
(dp1762
sg82
g1747
sg75
(lp1763
g68
(g69
g70
NtRp1764
(dp1765
g73
(dp1766
g81
I4
ssg82
g1760
sg75
(lp1767
S'HTTP/1.1'
p1768
asbasbasbag68
(g84
g70
NtRp1769
(dp1770
g73
(dp1771
sg82
g1216
sg75
(lp1772
g68
(g89
g70
NtRp1773
(dp1774
g73
(dp1775
g93
g94
ssg82
g1769
sg75
(lp1776
S'server_software'
p1777
asbag68
(g89
g70
NtRp1778
(dp1779
g73
(dp1780
g100
g101
ssg82
g1769
sg75
(lp1781
S':'
asbag68
(g89
g70
NtRp1782
(dp1783
g73
(dp1784
sg82
g1769
sg75
(lp1785
g68
(g69
g70
NtRp1786
(dp1787
g73
(dp1788
g81
I4
ssg82
g1782
sg75
(lp1789
S'Rocket 1.2.2'
p1790
asbasbasbag68
(g84
g70
NtRp1791
(dp1792
g73
(dp1793
sg82
g1216
sg75
(lp1794
g68
(g89
g70
NtRp1795
(dp1796
g73
(dp1797
g93
g94
ssg82
g1791
sg75
(lp1798
S'web2py_crontype'
p1799
asbag68
(g89
g70
NtRp1800
(dp1801
g73
(dp1802
g100
g101
ssg82
g1791
sg75
(lp1803
S':'
asbag68
(g89
g70
NtRp1804
(dp1805
g73
(dp1806
sg82
g1791
sg75
(lp1807
g68
(g69
g70
NtRp1808
(dp1809
g73
(dp1810
g81
I4
ssg82
g1804
sg75
(lp1811
S'hard'
p1812
asbasbasbag68
(g84
g70
NtRp1813
(dp1814
g73
(dp1815
sg82
g1216
sg75
(lp1816
g68
(g89
g70
NtRp1817
(dp1818
g73
(dp1819
g93
g94
ssg82
g1813
sg75
(lp1820
S'web2py_path'
p1821
asbag68
(g89
g70
NtRp1822
(dp1823
g73
(dp1824
g100
g101
ssg82
g1813
sg75
(lp1825
S':'
asbag68
(g89
g70
NtRp1826
(dp1827
g73
(dp1828
sg82
g1813
sg75
(lp1829
g68
(g69
g70
NtRp1830
(dp1831
g73
(dp1832
g81
I4
ssg82
g1826
sg75
(lp1833
g1263
asbasbasbag68
(g84
g70
NtRp1834
(dp1835
g73
(dp1836
sg82
g1216
sg75
(lp1837
g68
(g89
g70
NtRp1838
(dp1839
g73
(dp1840
g93
g94
ssg82
g1834
sg75
(lp1841
S'web2py_version'
p1842
asbag68
(g89
g70
NtRp1843
(dp1844
g73
(dp1845
g100
g101
ssg82
g1834
sg75
(lp1846
S':'
asbag68
(g89
g70
NtRp1847
(dp1848
g73
(dp1849
sg82
g1834
sg75
(lp1850
g68
(g69
g70
NtRp1851
(dp1852
g73
(dp1853
g81
I4
ssg82
g1847
sg75
(lp1854
S'Version 1.96.4 (2011-06-18 21:34:53)\n'
p1855
asbasbasbag68
(g84
g70
NtRp1856
(dp1857
g73
(dp1858
sg82
g1216
sg75
(lp1859
g68
(g89
g70
NtRp1860
(dp1861
g73
(dp1862
g93
g94
ssg82
g1856
sg75
(lp1863
S'wsgi_errors'
p1864
asbag68
(g89
g70
NtRp1865
(dp1866
g73
(dp1867
g100
g101
ssg82
g1856
sg75
(lp1868
S':'
asbag68
(g89
g70
NtRp1869
(dp1870
g73
(dp1871
sg82
g1856
sg75
(lp1872
g68
(g69
g70
NtRp1873
(dp1874
g73
(dp1875
g81
I4
ssg82
g1869
sg75
(lp1876
S"<open file '<stderr>', mode 'w' at 0xb77f60d0>"
p1877
asbasbasbag68
(g84
g70
NtRp1878
(dp1879
g73
(dp1880
sg82
g1216
sg75
(lp1881
g68
(g89
g70
NtRp1882
(dp1883
g73
(dp1884
g93
g94
ssg82
g1878
sg75
(lp1885
S'wsgi_file_wrapper'
p1886
asbag68
(g89
g70
NtRp1887
(dp1888
g73
(dp1889
g100
g101
ssg82
g1878
sg75
(lp1890
S':'
asbag68
(g89
g70
NtRp1891
(dp1892
g73
(dp1893
sg82
g1878
sg75
(lp1894
g68
(g69
g70
NtRp1895
(dp1896
g73
(dp1897
g81
I4
ssg82
g1891
sg75
(lp1898
S'<class gluon.rocket.FileWrapper at 0x8ea1e3c>'
p1899
asbasbasbag68
(g84
g70
NtRp1900
(dp1901
g73
(dp1902
sg82
g1216
sg75
(lp1903
g68
(g89
g70
NtRp1904
(dp1905
g73
(dp1906
g93
g94
ssg82
g1900
sg75
(lp1907
S'wsgi_input'
p1908
asbag68
(g89
g70
NtRp1909
(dp1910
g73
(dp1911
g100
g101
ssg82
g1900
sg75
(lp1912
S':'
asbag68
(g89
g70
NtRp1913
(dp1914
g73
(dp1915
sg82
g1900
sg75
(lp1916
g68
(g69
g70
NtRp1917
(dp1918
g73
(dp1919
g81
I4
ssg82
g1913
sg75
(lp1920
S'<socket._fileobject object at 0xa337eec>'
p1921
asbasbasbag68
(g84
g70
NtRp1922
(dp1923
g73
(dp1924
sg82
g1216
sg75
(lp1925
g68
(g89
g70
NtRp1926
(dp1927
g73
(dp1928
g93
g94
ssg82
g1922
sg75
(lp1929
S'wsgi_multiprocess'
p1930
asbag68
(g89
g70
NtRp1931
(dp1932
g73
(dp1933
g100
g101
ssg82
g1922
sg75
(lp1934
S':'
asbag68
(g89
g70
NtRp1935
(dp1936
g73
(dp1937
sg82
g1922
sg75
(lp1938
g68
(g69
g70
NtRp1939
(dp1940
g73
(dp1941
g81
I4
ssg82
g1935
sg75
(lp1942
g111
asbasbasbag68
(g84
g70
NtRp1943
(dp1944
g73
(dp1945
sg82
g1216
sg75
(lp1946
g68
(g89
g70
NtRp1947
(dp1948
g73
(dp1949
g93
g94
ssg82
g1943
sg75
(lp1950
S'wsgi_multithread'
p1951
asbag68
(g89
g70
NtRp1952
(dp1953
g73
(dp1954
g100
g101
ssg82
g1943
sg75
(lp1955
S':'
asbag68
(g89
g70
NtRp1956
(dp1957
g73
(dp1958
sg82
g1943
sg75
(lp1959
g68
(g69
g70
NtRp1960
(dp1961
g73
(dp1962
g81
I4
ssg82
g1956
sg75
(lp1963
S'True'
p1964
asbasbasbag68
(g84
g70
NtRp1965
(dp1966
g73
(dp1967
sg82
g1216
sg75
(lp1968
g68
(g89
g70
NtRp1969
(dp1970
g73
(dp1971
g93
g94
ssg82
g1965
sg75
(lp1972
S'wsgi_run_once'
p1973
asbag68
(g89
g70
NtRp1974
(dp1975
g73
(dp1976
g100
g101
ssg82
g1965
sg75
(lp1977
S':'
asbag68
(g89
g70
NtRp1978
(dp1979
g73
(dp1980
sg82
g1965
sg75
(lp1981
g68
(g69
g70
NtRp1982
(dp1983
g73
(dp1984
g81
I4
ssg82
g1978
sg75
(lp1985
g111
asbasbasbag68
(g84
g70
NtRp1986
(dp1987
g73
(dp1988
sg82
g1216
sg75
(lp1989
g68
(g89
g70
NtRp1990
(dp1991
g73
(dp1992
g93
g94
ssg82
g1986
sg75
(lp1993
S'wsgi_url_scheme'
p1994
asbag68
(g89
g70
NtRp1995
(dp1996
g73
(dp1997
g100
g101
ssg82
g1986
sg75
(lp1998
S':'
asbag68
(g89
g70
NtRp1999
(dp2000
g73
(dp2001
sg82
g1986
sg75
(lp2002
g68
(g69
g70
NtRp2003
(dp2004
g73
(dp2005
g81
I4
ssg82
g1999
sg75
(lp2006
S'http'
p2007
asbasbasbag68
(g84
g70
NtRp2008
(dp2009
g73
(dp2010
sg82
g1216
sg75
(lp2011
g68
(g89
g70
NtRp2012
(dp2013
g73
(dp2014
g93
g94
ssg82
g2008
sg75
(lp2015
S'wsgi_version'
p2016
asbag68
(g89
g70
NtRp2017
(dp2018
g73
(dp2019
g100
g101
ssg82
g2008
sg75
(lp2020
S':'
asbag68
(g89
g70
NtRp2021
(dp2022
g73
(dp2023
sg82
g2008
sg75
(lp2024
g68
(g69
g70
NtRp2025
(dp2026
g73
(dp2027
g81
I4
ssg82
g2021
sg75
(lp2028
g68
(g77
g70
NtRp2029
(dp2030
g73
(dp2031
g81
I3
ssg82
Nsg75
(lp2032
g68
(g84
g70
NtRp2033
(dp2034
g73
(dp2035
sg82
g2029
sg75
(lp2036
g68
(g89
g70
NtRp2037
(dp2038
g73
(dp2039
sg82
g2033
sg75
(lp2040
g68
(g69
g70
NtRp2041
(dp2042
g73
(dp2043
g81
I3
ssg82
g2037
sg75
(lp2044
S'1'
asbasbasbag68
(g84
g70
NtRp2045
(dp2046
g73
(dp2047
sg82
g2029
sg75
(lp2048
g68
(g89
g70
NtRp2049
(dp2050
g73
(dp2051
sg82
g2045
sg75
(lp2052
g68
(g69
g70
NtRp2053
(dp2054
g73
(dp2055
g81
I3
ssg82
g2049
sg75
(lp2056
S'0'
asbasbasbasbasbasbasbasbasbasbasbag68
(g84
g70
NtRp2057
(dp2058
g73
(dp2059
sg82
g78
sg75
(lp2060
g68
(g89
g70
NtRp2061
(dp2062
g73
(dp2063
g93
g94
ssg82
g2057
sg75
(lp2064
S'extension'
p2065
asbag68
(g89
g70
NtRp2066
(dp2067
g73
(dp2068
g100
g101
ssg82
g2057
sg75
(lp2069
S':'
asbag68
(g89
g70
NtRp2070
(dp2071
g73
(dp2072
sg82
g2057
sg75
(lp2073
g68
(g69
g70
NtRp2074
(dp2075
g73
(dp2076
g81
I5
ssg82
g2070
sg75
(lp2077
S'html'
p2078
asbasbasbag68
(g84
g70
NtRp2079
(dp2080
g73
(dp2081
sg82
g78
sg75
(lp2082
g68
(g89
g70
NtRp2083
(dp2084
g73
(dp2085
g93
g94
ssg82
g2079
sg75
(lp2086
S'folder'
p2087
asbag68
(g89
g70
NtRp2088
(dp2089
g73
(dp2090
g100
g101
ssg82
g2079
sg75
(lp2091
S':'
asbag68
(g89
g70
NtRp2092
(dp2093
g73
(dp2094
sg82
g2079
sg75
(lp2095
g68
(g69
g70
NtRp2096
(dp2097
g73
(dp2098
g81
I5
ssg82
g2092
sg75
(lp2099
S'/home/alumno/web2py/applications/datos/'
p2100
asbasbasbag68
(g84
g70
NtRp2101
(dp2102
g73
(dp2103
sg82
g78
sg75
(lp2104
g68
(g89
g70
NtRp2105
(dp2106
g73
(dp2107
g93
g94
ssg82
g2101
sg75
(lp2108
S'function'
p2109
asbag68
(g89
g70
NtRp2110
(dp2111
g73
(dp2112
g100
g101
ssg82
g2101
sg75
(lp2113
S':'
asbag68
(g89
g70
NtRp2114
(dp2115
g73
(dp2116
sg82
g2101
sg75
(lp2117
g68
(g69
g70
NtRp2118
(dp2119
g73
(dp2120
g81
I5
ssg82
g2114
sg75
(lp2121
S'detalle'
p2122
asbasbasbag68
(g84
g70
NtRp2123
(dp2124
g73
(dp2125
sg82
g78
sg75
(lp2126
g68
(g89
g70
NtRp2127
(dp2128
g73
(dp2129
g93
g94
ssg82
g2123
sg75
(lp2130
S'get_vars'
p2131
asbag68
(g89
g70
NtRp2132
(dp2133
g73
(dp2134
g100
g101
ssg82
g2123
sg75
(lp2135
S':'
asbag68
(g89
g70
NtRp2136
(dp2137
g73
(dp2138
sg82
g2123
sg75
(lp2139
g68
(g69
g70
NtRp2140
(dp2141
g73
(dp2142
g81
I5
ssg82
g2136
sg75
(lp2143
g68
(g77
g70
NtRp2144
(dp2145
g73
(dp2146
g81
I4
ssg82
Nsg75
(lp2147
sbasbasbasbag68
(g84
g70
NtRp2148
(dp2149
g73
(dp2150
sg82
g78
sg75
(lp2151
g68
(g89
g70
NtRp2152
(dp2153
g73
(dp2154
g93
g94
ssg82
g2148
sg75
(lp2155
S'is_https'
p2156
asbag68
(g89
g70
NtRp2157
(dp2158
g73
(dp2159
g100
g101
ssg82
g2148
sg75
(lp2160
S':'
asbag68
(g89
g70
NtRp2161
(dp2162
g73
(dp2163
sg82
g2148
sg75
(lp2164
g68
(g69
g70
NtRp2165
(dp2166
g73
(dp2167
g81
I5
ssg82
g2161
sg75
(lp2168
g111
asbasbasbag68
(g84
g70
NtRp2169
(dp2170
g73
(dp2171
sg82
g78
sg75
(lp2172
g68
(g89
g70
NtRp2173
(dp2174
g73
(dp2175
g93
g94
ssg82
g2169
sg75
(lp2176
S'is_local'
p2177
asbag68
(g89
g70
NtRp2178
(dp2179
g73
(dp2180
g100
g101
ssg82
g2169
sg75
(lp2181
S':'
asbag68
(g89
g70
NtRp2182
(dp2183
g73
(dp2184
sg82
g2169
sg75
(lp2185
g68
(g69
g70
NtRp2186
(dp2187
g73
(dp2188
g81
I5
ssg82
g2182
sg75
(lp2189
g1964
asbasbasbag68
(g84
g70
NtRp2190
(dp2191
g73
(dp2192
sg82
g78
sg75
(lp2193
g68
(g89
g70
NtRp2194
(dp2195
g73
(dp2196
g93
g94
ssg82
g2190
sg75
(lp2197
S'is_restful'
p2198
asbag68
(g89
g70
NtRp2199
(dp2200
g73
(dp2201
g100
g101
ssg82
g2190
sg75
(lp2202
S':'
asbag68
(g89
g70
NtRp2203
(dp2204
g73
(dp2205
sg82
g2190
sg75
(lp2206
g68
(g69
g70
NtRp2207
(dp2208
g73
(dp2209
g81
I5
ssg82
g2203
sg75
(lp2210
g111
asbasbasbag68
(g84
g70
NtRp2211
(dp2212
g73
(dp2213
sg82
g78
sg75
(lp2214
g68
(g89
g70
NtRp2215
(dp2216
g73
(dp2217
g93
g94
ssg82
g2211
sg75
(lp2218
S'now'
p2219
asbag68
(g89
g70
NtRp2220
(dp2221
g73
(dp2222
g100
g101
ssg82
g2211
sg75
(lp2223
S':'
asbag68
(g89
g70
NtRp2224
(dp2225
g73
(dp2226
sg82
g2211
sg75
(lp2227
g68
(g69
g70
NtRp2228
(dp2229
g73
(dp2230
g81
I5
ssg82
g2224
sg75
(lp2231
S'datetime.datetime(2011, 9, 10, 19, 3, 30, 248456)'
p2232
asbasbasbag68
(g84
g70
NtRp2233
(dp2234
g73
(dp2235
sg82
g78
sg75
(lp2236
g68
(g89
g70
NtRp2237
(dp2238
g73
(dp2239
g93
g94
ssg82
g2233
sg75
(lp2240
S'post_vars'
p2241
asbag68
(g89
g70
NtRp2242
(dp2243
g73
(dp2244
g100
g101
ssg82
g2233
sg75
(lp2245
S':'
asbag68
(g89
g70
NtRp2246
(dp2247
g73
(dp2248
sg82
g2233
sg75
(lp2249
g68
(g69
g70
NtRp2250
(dp2251
g73
(dp2252
g81
I5
ssg82
g2246
sg75
(lp2253
g68
(g77
g70
NtRp2254
(dp2255
g73
(dp2256
g81
I4
ssg82
Nsg75
(lp2257
sbasbasbasbag68
(g84
g70
NtRp2258
(dp2259
g73
(dp2260
sg82
g78
sg75
(lp2261
g68
(g89
g70
NtRp2262
(dp2263
g73
(dp2264
g93
g94
ssg82
g2258
sg75
(lp2265
S'raw_args'
p2266
asbag68
(g89
g70
NtRp2267
(dp2268
g73
(dp2269
g100
g101
ssg82
g2258
sg75
(lp2270
S':'
asbag68
(g89
g70
NtRp2271
(dp2272
g73
(dp2273
sg82
g2258
sg75
(lp2274
g68
(g69
g70
NtRp2275
(dp2276
g73
(dp2277
g81
I5
ssg82
g2271
sg75
(lp2278
g170
asbasbasbag68
(g84
g70
NtRp2279
(dp2280
g73
(dp2281
sg82
g78
sg75
(lp2282
g68
(g89
g70
NtRp2283
(dp2284
g73
(dp2285
g93
g94
ssg82
g2279
sg75
(lp2286
S'url'
p2287
asbag68
(g89
g70
NtRp2288
(dp2289
g73
(dp2290
g100
g101
ssg82
g2279
sg75
(lp2291
S':'
asbag68
(g89
g70
NtRp2292
(dp2293
g73
(dp2294
sg82
g2279
sg75
(lp2295
g68
(g69
g70
NtRp2296
(dp2297
g73
(dp2298
g81
I5
ssg82
g2292
sg75
(lp2299
S'/datos/default/detalle/001'
p2300
asbasbasbag68
(g84
g70
NtRp2301
(dp2302
g73
(dp2303
sg82
g78
sg75
(lp2304
g68
(g89
g70
NtRp2305
(dp2306
g73
(dp2307
g93
g94
ssg82
g2301
sg75
(lp2308
S'uuid'
p2309
asbag68
(g89
g70
NtRp2310
(dp2311
g73
(dp2312
g100
g101
ssg82
g2301
sg75
(lp2313
S':'
asbag68
(g89
g70
NtRp2314
(dp2315
g73
(dp2316
sg82
g2301
sg75
(lp2317
g68
(g69
g70
NtRp2318
(dp2319
g73
(dp2320
g81
I5
ssg82
g2314
sg75
(lp2321
S'datos/127.0.0.1.2011-09-10.19-03-30.df577ae7-38e5-4370-9d3e-4b74107b9e48'
p2322
asbasbasbag68
(g84
g70
NtRp2323
(dp2324
g73
(dp2325
sg82
g78
sg75
(lp2326
g68
(g89
g70
NtRp2327
(dp2328
g73
(dp2329
g93
g94
ssg82
g2323
sg75
(lp2330
S'vars'
p2331
asbag68
(g89
g70
NtRp2332
(dp2333
g73
(dp2334
g100
g101
ssg82
g2323
sg75
(lp2335
S':'
asbag68
(g89
g70
NtRp2336
(dp2337
g73
(dp2338
sg82
g2323
sg75
(lp2339
g68
(g69
g70
NtRp2340
(dp2341
g73
(dp2342
g81
I5
ssg82
g2336
sg75
(lp2343
g68
(g77
g70
NtRp2344
(dp2345
g73
(dp2346
g81
I4
ssg82
Nsg75
(lp2347
sbasbasbasbag68
(g84
g70
NtRp2348
(dp2349
g73
(dp2350
sg82
g78
sg75
(lp2351
g68
(g89
g70
NtRp2352
(dp2353
g73
(dp2354
g93
g94
ssg82
g2348
sg75
(lp2355
S'wsgi'
p2356
asbag68
(g89
g70
NtRp2357
(dp2358
g73
(dp2359
g100
g101
ssg82
g2348
sg75
(lp2360
S':'
asbag68
(g89
g70
NtRp2361
(dp2362
g73
(dp2363
sg82
g2348
sg75
(lp2364
g68
(g69
g70
NtRp2365
(dp2366
g73
(dp2367
g81
I5
ssg82
g2361
sg75
(lp2368
g68
(g77
g70
NtRp2369
(dp2370
g73
(dp2371
g81
I4
ssg82
Nsg75
(lp2372
g68
(g84
g70
NtRp2373
(dp2374
g73
(dp2375
sg82
g2369
sg75
(lp2376
g68
(g89
g70
NtRp2377
(dp2378
g73
(dp2379
g93
g94
ssg82
g2373
sg75
(lp2380
S'environ'
p2381
asbag68
(g89
g70
NtRp2382
(dp2383
g73
(dp2384
g100
g101
ssg82
g2373
sg75
(lp2385
S':'
asbag68
(g89
g70
NtRp2386
(dp2387
g73
(dp2388
sg82
g2373
sg75
(lp2389
g68
(g69
g70
NtRp2390
(dp2391
g73
(dp2392
g81
I4
ssg82
g2386
sg75
(lp2393
g68
(g77
g70
NtRp2394
(dp2395
g73
(dp2396
g81
I3
ssg82
Nsg75
(lp2397
g68
(g84
g70
NtRp2398
(dp2399
g73
(dp2400
sg82
g2394
sg75
(lp2401
g68
(g89
g70
NtRp2402
(dp2403
g73
(dp2404
g93
g94
ssg82
g2398
sg75
(lp2405
S'HTTP_ACCEPT'
p2406
asbag68
(g89
g70
NtRp2407
(dp2408
g73
(dp2409
g100
g101
ssg82
g2398
sg75
(lp2410
S':'
asbag68
(g89
g70
NtRp2411
(dp2412
g73
(dp2413
sg82
g2398
sg75
(lp2414
g68
(g69
g70
NtRp2415
(dp2416
g73
(dp2417
g81
I3
ssg82
g2411
sg75
(lp2418
g1397
asbasbasbag68
(g84
g70
NtRp2419
(dp2420
g73
(dp2421
sg82
g2394
sg75
(lp2422
g68
(g89
g70
NtRp2423
(dp2424
g73
(dp2425
g93
g94
ssg82
g2419
sg75
(lp2426
S'HTTP_ACCEPT_CHARSET'
p2427
asbag68
(g89
g70
NtRp2428
(dp2429
g73
(dp2430
g100
g101
ssg82
g2419
sg75
(lp2431
S':'
asbag68
(g89
g70
NtRp2432
(dp2433
g73
(dp2434
sg82
g2419
sg75
(lp2435
g68
(g69
g70
NtRp2436
(dp2437
g73
(dp2438
g81
I3
ssg82
g2432
sg75
(lp2439
g1419
asbasbasbag68
(g84
g70
NtRp2440
(dp2441
g73
(dp2442
sg82
g2394
sg75
(lp2443
g68
(g89
g70
NtRp2444
(dp2445
g73
(dp2446
g93
g94
ssg82
g2440
sg75
(lp2447
S'HTTP_ACCEPT_ENCODING'
p2448
asbag68
(g89
g70
NtRp2449
(dp2450
g73
(dp2451
g100
g101
ssg82
g2440
sg75
(lp2452
S':'
asbag68
(g89
g70
NtRp2453
(dp2454
g73
(dp2455
sg82
g2440
sg75
(lp2456
g68
(g69
g70
NtRp2457
(dp2458
g73
(dp2459
g81
I3
ssg82
g2453
sg75
(lp2460
g1441
asbasbasbag68
(g84
g70
NtRp2461
(dp2462
g73
(dp2463
sg82
g2394
sg75
(lp2464
g68
(g89
g70
NtRp2465
(dp2466
g73
(dp2467
g93
g94
ssg82
g2461
sg75
(lp2468
S'HTTP_ACCEPT_LANGUAGE'
p2469
asbag68
(g89
g70
NtRp2470
(dp2471
g73
(dp2472
g100
g101
ssg82
g2461
sg75
(lp2473
S':'
asbag68
(g89
g70
NtRp2474
(dp2475
g73
(dp2476
sg82
g2461
sg75
(lp2477
g68
(g69
g70
NtRp2478
(dp2479
g73
(dp2480
g81
I3
ssg82
g2474
sg75
(lp2481
g1463
asbasbasbag68
(g84
g70
NtRp2482
(dp2483
g73
(dp2484
sg82
g2394
sg75
(lp2485
g68
(g89
g70
NtRp2486
(dp2487
g73
(dp2488
g93
g94
ssg82
g2482
sg75
(lp2489
S'HTTP_CONNECTION'
p2490
asbag68
(g89
g70
NtRp2491
(dp2492
g73
(dp2493
g100
g101
ssg82
g2482
sg75
(lp2494
S':'
asbag68
(g89
g70
NtRp2495
(dp2496
g73
(dp2497
sg82
g2482
sg75
(lp2498
g68
(g69
g70
NtRp2499
(dp2500
g73
(dp2501
g81
I3
ssg82
g2495
sg75
(lp2502
g1485
asbasbasbag68
(g84
g70
NtRp2503
(dp2504
g73
(dp2505
sg82
g2394
sg75
(lp2506
g68
(g89
g70
NtRp2507
(dp2508
g73
(dp2509
g93
g94
ssg82
g2503
sg75
(lp2510
S'HTTP_COOKIE'
p2511
asbag68
(g89
g70
NtRp2512
(dp2513
g73
(dp2514
g100
g101
ssg82
g2503
sg75
(lp2515
S':'
asbag68
(g89
g70
NtRp2516
(dp2517
g73
(dp2518
sg82
g2503
sg75
(lp2519
g68
(g69
g70
NtRp2520
(dp2521
g73
(dp2522
g81
I3
ssg82
g2516
sg75
(lp2523
g1507
asbasbasbag68
(g84
g70
NtRp2524
(dp2525
g73
(dp2526
sg82
g2394
sg75
(lp2527
g68
(g89
g70
NtRp2528
(dp2529
g73
(dp2530
g93
g94
ssg82
g2524
sg75
(lp2531
S'HTTP_HOST'
p2532
asbag68
(g89
g70
NtRp2533
(dp2534
g73
(dp2535
g100
g101
ssg82
g2524
sg75
(lp2536
S':'
asbag68
(g89
g70
NtRp2537
(dp2538
g73
(dp2539
sg82
g2524
sg75
(lp2540
g68
(g69
g70
NtRp2541
(dp2542
g73
(dp2543
g81
I3
ssg82
g2537
sg75
(lp2544
g1529
asbasbasbag68
(g84
g70
NtRp2545
(dp2546
g73
(dp2547
sg82
g2394
sg75
(lp2548
g68
(g89
g70
NtRp2549
(dp2550
g73
(dp2551
g93
g94
ssg82
g2545
sg75
(lp2552
S'HTTP_REFERER'
p2553
asbag68
(g89
g70
NtRp2554
(dp2555
g73
(dp2556
g100
g101
ssg82
g2545
sg75
(lp2557
S':'
asbag68
(g89
g70
NtRp2558
(dp2559
g73
(dp2560
sg82
g2545
sg75
(lp2561
g68
(g69
g70
NtRp2562
(dp2563
g73
(dp2564
g81
I3
ssg82
g2558
sg75
(lp2565
g1551
asbasbasbag68
(g84
g70
NtRp2566
(dp2567
g73
(dp2568
sg82
g2394
sg75
(lp2569
g68
(g89
g70
NtRp2570
(dp2571
g73
(dp2572
g93
g94
ssg82
g2566
sg75
(lp2573
S'HTTP_USER_AGENT'
p2574
asbag68
(g89
g70
NtRp2575
(dp2576
g73
(dp2577
g100
g101
ssg82
g2566
sg75
(lp2578
S':'
asbag68
(g89
g70
NtRp2579
(dp2580
g73
(dp2581
sg82
g2566
sg75
(lp2582
g68
(g69
g70
NtRp2583
(dp2584
g73
(dp2585
g81
I3
ssg82
g2579
sg75
(lp2586
g1573
asbasbasbag68
(g84
g70
NtRp2587
(dp2588
g73
(dp2589
sg82
g2394
sg75
(lp2590
g68
(g89
g70
NtRp2591
(dp2592
g73
(dp2593
g93
g94
ssg82
g2587
sg75
(lp2594
S'PATH_INFO'
p2595
asbag68
(g89
g70
NtRp2596
(dp2597
g73
(dp2598
g100
g101
ssg82
g2587
sg75
(lp2599
S':'
asbag68
(g89
g70
NtRp2600
(dp2601
g73
(dp2602
sg82
g2587
sg75
(lp2603
g68
(g69
g70
NtRp2604
(dp2605
g73
(dp2606
g81
I3
ssg82
g2600
sg75
(lp2607
g1595
asbasbasbag68
(g84
g70
NtRp2608
(dp2609
g73
(dp2610
sg82
g2394
sg75
(lp2611
g68
(g89
g70
NtRp2612
(dp2613
g73
(dp2614
g93
g94
ssg82
g2608
sg75
(lp2615
S'QUERY_STRING'
p2616
asbag68
(g89
g70
NtRp2617
(dp2618
g73
(dp2619
g100
g101
ssg82
g2608
sg75
(lp2620
S':'
asbag68
(g89
g70
NtRp2621
(dp2622
g73
(dp2623
sg82
g2608
sg75
(lp2624
g68
(g69
g70
NtRp2625
(dp2626
g73
(dp2627
g81
I3
ssg82
g2621
sg75
(lp2628
S''
asbasbasbag68
(g84
g70
NtRp2629
(dp2630
g73
(dp2631
sg82
g2394
sg75
(lp2632
g68
(g89
g70
NtRp2633
(dp2634
g73
(dp2635
g93
g94
ssg82
g2629
sg75
(lp2636
S'REMOTE_ADDR'
p2637
asbag68
(g89
g70
NtRp2638
(dp2639
g73
(dp2640
g100
g101
ssg82
g2629
sg75
(lp2641
S':'
asbag68
(g89
g70
NtRp2642
(dp2643
g73
(dp2644
sg82
g2629
sg75
(lp2645
g68
(g69
g70
NtRp2646
(dp2647
g73
(dp2648
g81
I3
ssg82
g2642
sg75
(lp2649
g214
asbasbasbag68
(g84
g70
NtRp2650
(dp2651
g73
(dp2652
sg82
g2394
sg75
(lp2653
g68
(g89
g70
NtRp2654
(dp2655
g73
(dp2656
g93
g94
ssg82
g2650
sg75
(lp2657
S'REMOTE_PORT'
p2658
asbag68
(g89
g70
NtRp2659
(dp2660
g73
(dp2661
g100
g101
ssg82
g2650
sg75
(lp2662
S':'
asbag68
(g89
g70
NtRp2663
(dp2664
g73
(dp2665
sg82
g2650
sg75
(lp2666
g68
(g69
g70
NtRp2667
(dp2668
g73
(dp2669
g81
I3
ssg82
g2663
sg75
(lp2670
g1659
asbasbasbag68
(g84
g70
NtRp2671
(dp2672
g73
(dp2673
sg82
g2394
sg75
(lp2674
g68
(g89
g70
NtRp2675
(dp2676
g73
(dp2677
g93
g94
ssg82
g2671
sg75
(lp2678
S'REQUEST_METHOD'
p2679
asbag68
(g89
g70
NtRp2680
(dp2681
g73
(dp2682
g100
g101
ssg82
g2671
sg75
(lp2683
S':'
asbag68
(g89
g70
NtRp2684
(dp2685
g73
(dp2686
sg82
g2671
sg75
(lp2687
g68
(g69
g70
NtRp2688
(dp2689
g73
(dp2690
g81
I3
ssg82
g2684
sg75
(lp2691
g1681
asbasbasbag68
(g84
g70
NtRp2692
(dp2693
g73
(dp2694
sg82
g2394
sg75
(lp2695
g68
(g89
g70
NtRp2696
(dp2697
g73
(dp2698
g93
g94
ssg82
g2692
sg75
(lp2699
S'SCRIPT_NAME'
p2700
asbag68
(g89
g70
NtRp2701
(dp2702
g73
(dp2703
g100
g101
ssg82
g2692
sg75
(lp2704
S':'
asbag68
(g89
g70
NtRp2705
(dp2706
g73
(dp2707
sg82
g2692
sg75
(lp2708
g68
(g69
g70
NtRp2709
(dp2710
g73
(dp2711
g81
I3
ssg82
g2705
sg75
(lp2712
S''
asbasbasbag68
(g84
g70
NtRp2713
(dp2714
g73
(dp2715
sg82
g2394
sg75
(lp2716
g68
(g89
g70
NtRp2717
(dp2718
g73
(dp2719
g93
g94
ssg82
g2713
sg75
(lp2720
S'SERVER_NAME'
p2721
asbag68
(g89
g70
NtRp2722
(dp2723
g73
(dp2724
g100
g101
ssg82
g2713
sg75
(lp2725
S':'
asbag68
(g89
g70
NtRp2726
(dp2727
g73
(dp2728
sg82
g2713
sg75
(lp2729
g68
(g69
g70
NtRp2730
(dp2731
g73
(dp2732
g81
I3
ssg82
g2726
sg75
(lp2733
g1724
asbasbasbag68
(g84
g70
NtRp2734
(dp2735
g73
(dp2736
sg82
g2394
sg75
(lp2737
g68
(g89
g70
NtRp2738
(dp2739
g73
(dp2740
g93
g94
ssg82
g2734
sg75
(lp2741
S'SERVER_PORT'
p2742
asbag68
(g89
g70
NtRp2743
(dp2744
g73
(dp2745
g100
g101
ssg82
g2734
sg75
(lp2746
S':'
asbag68
(g89
g70
NtRp2747
(dp2748
g73
(dp2749
sg82
g2734
sg75
(lp2750
g68
(g69
g70
NtRp2751
(dp2752
g73
(dp2753
g81
I3
ssg82
g2747
sg75
(lp2754
g1746
asbasbasbag68
(g84
g70
NtRp2755
(dp2756
g73
(dp2757
sg82
g2394
sg75
(lp2758
g68
(g89
g70
NtRp2759
(dp2760
g73
(dp2761
g93
g94
ssg82
g2755
sg75
(lp2762
S'SERVER_PROTOCOL'
p2763
asbag68
(g89
g70
NtRp2764
(dp2765
g73
(dp2766
g100
g101
ssg82
g2755
sg75
(lp2767
S':'
asbag68
(g89
g70
NtRp2768
(dp2769
g73
(dp2770
sg82
g2755
sg75
(lp2771
g68
(g69
g70
NtRp2772
(dp2773
g73
(dp2774
g81
I3
ssg82
g2768
sg75
(lp2775
g1768
asbasbasbag68
(g84
g70
NtRp2776
(dp2777
g73
(dp2778
sg82
g2394
sg75
(lp2779
g68
(g89
g70
NtRp2780
(dp2781
g73
(dp2782
g93
g94
ssg82
g2776
sg75
(lp2783
S'SERVER_SOFTWARE'
p2784
asbag68
(g89
g70
NtRp2785
(dp2786
g73
(dp2787
g100
g101
ssg82
g2776
sg75
(lp2788
S':'
asbag68
(g89
g70
NtRp2789
(dp2790
g73
(dp2791
sg82
g2776
sg75
(lp2792
g68
(g69
g70
NtRp2793
(dp2794
g73
(dp2795
g81
I3
ssg82
g2789
sg75
(lp2796
g1790
asbasbasbag68
(g84
g70
NtRp2797
(dp2798
g73
(dp2799
sg82
g2394
sg75
(lp2800
g68
(g89
g70
NtRp2801
(dp2802
g73
(dp2803
g93
g94
ssg82
g2797
sg75
(lp2804
S'wsgi.errors'
p2805
asbag68
(g89
g70
NtRp2806
(dp2807
g73
(dp2808
g100
g101
ssg82
g2797
sg75
(lp2809
S':'
asbag68
(g89
g70
NtRp2810
(dp2811
g73
(dp2812
sg82
g2797
sg75
(lp2813
g68
(g69
g70
NtRp2814
(dp2815
g73
(dp2816
g81
I3
ssg82
g2810
sg75
(lp2817
S"<open file '<stderr>', mode 'w' at 0xb77f60d0>"
p2818
asbasbasbag68
(g84
g70
NtRp2819
(dp2820
g73
(dp2821
sg82
g2394
sg75
(lp2822
g68
(g89
g70
NtRp2823
(dp2824
g73
(dp2825
g93
g94
ssg82
g2819
sg75
(lp2826
S'wsgi.file_wrapper'
p2827
asbag68
(g89
g70
NtRp2828
(dp2829
g73
(dp2830
g100
g101
ssg82
g2819
sg75
(lp2831
S':'
asbag68
(g89
g70
NtRp2832
(dp2833
g73
(dp2834
sg82
g2819
sg75
(lp2835
g68
(g69
g70
NtRp2836
(dp2837
g73
(dp2838
g81
I3
ssg82
g2832
sg75
(lp2839
S'<class gluon.rocket.FileWrapper at 0x8ea1e3c>'
p2840
asbasbasbag68
(g84
g70
NtRp2841
(dp2842
g73
(dp2843
sg82
g2394
sg75
(lp2844
g68
(g89
g70
NtRp2845
(dp2846
g73
(dp2847
g93
g94
ssg82
g2841
sg75
(lp2848
S'wsgi.input'
p2849
asbag68
(g89
g70
NtRp2850
(dp2851
g73
(dp2852
g100
g101
ssg82
g2841
sg75
(lp2853
S':'
asbag68
(g89
g70
NtRp2854
(dp2855
g73
(dp2856
sg82
g2841
sg75
(lp2857
g68
(g69
g70
NtRp2858
(dp2859
g73
(dp2860
g81
I3
ssg82
g2854
sg75
(lp2861
S'<cStringIO.StringO object at 0x9692080>'
p2862
asbasbasbag68
(g84
g70
NtRp2863
(dp2864
g73
(dp2865
sg82
g2394
sg75
(lp2866
g68
(g89
g70
NtRp2867
(dp2868
g73
(dp2869
g93
g94
ssg82
g2863
sg75
(lp2870
S'wsgi.multiprocess'
p2871
asbag68
(g89
g70
NtRp2872
(dp2873
g73
(dp2874
g100
g101
ssg82
g2863
sg75
(lp2875
S':'
asbag68
(g89
g70
NtRp2876
(dp2877
g73
(dp2878
sg82
g2863
sg75
(lp2879
g68
(g69
g70
NtRp2880
(dp2881
g73
(dp2882
g81
I3
ssg82
g2876
sg75
(lp2883
g111
asbasbasbag68
(g84
g70
NtRp2884
(dp2885
g73
(dp2886
sg82
g2394
sg75
(lp2887
g68
(g89
g70
NtRp2888
(dp2889
g73
(dp2890
g93
g94
ssg82
g2884
sg75
(lp2891
S'wsgi.multithread'
p2892
asbag68
(g89
g70
NtRp2893
(dp2894
g73
(dp2895
g100
g101
ssg82
g2884
sg75
(lp2896
S':'
asbag68
(g89
g70
NtRp2897
(dp2898
g73
(dp2899
sg82
g2884
sg75
(lp2900
g68
(g69
g70
NtRp2901
(dp2902
g73
(dp2903
g81
I3
ssg82
g2897
sg75
(lp2904
g1964
asbasbasbag68
(g84
g70
NtRp2905
(dp2906
g73
(dp2907
sg82
g2394
sg75
(lp2908
g68
(g89
g70
NtRp2909
(dp2910
g73
(dp2911
g93
g94
ssg82
g2905
sg75
(lp2912
S'wsgi.run_once'
p2913
asbag68
(g89
g70
NtRp2914
(dp2915
g73
(dp2916
g100
g101
ssg82
g2905
sg75
(lp2917
S':'
asbag68
(g89
g70
NtRp2918
(dp2919
g73
(dp2920
sg82
g2905
sg75
(lp2921
g68
(g69
g70
NtRp2922
(dp2923
g73
(dp2924
g81
I3
ssg82
g2918
sg75
(lp2925
g111
asbasbasbag68
(g84
g70
NtRp2926
(dp2927
g73
(dp2928
sg82
g2394
sg75
(lp2929
g68
(g89
g70
NtRp2930
(dp2931
g73
(dp2932
g93
g94
ssg82
g2926
sg75
(lp2933
S'wsgi.url_scheme'
p2934
asbag68
(g89
g70
NtRp2935
(dp2936
g73
(dp2937
g100
g101
ssg82
g2926
sg75
(lp2938
S':'
asbag68
(g89
g70
NtRp2939
(dp2940
g73
(dp2941
sg82
g2926
sg75
(lp2942
g68
(g69
g70
NtRp2943
(dp2944
g73
(dp2945
g81
I3
ssg82
g2939
sg75
(lp2946
g2007
asbasbasbag68
(g84
g70
NtRp2947
(dp2948
g73
(dp2949
sg82
g2394
sg75
(lp2950
g68
(g89
g70
NtRp2951
(dp2952
g73
(dp2953
g93
g94
ssg82
g2947
sg75
(lp2954
S'wsgi.version'
p2955
asbag68
(g89
g70
NtRp2956
(dp2957
g73
(dp2958
g100
g101
ssg82
g2947
sg75
(lp2959
S':'
asbag68
(g89
g70
NtRp2960
(dp2961
g73
(dp2962
sg82
g2947
sg75
(lp2963
g68
(g69
g70
NtRp2964
(dp2965
g73
(dp2966
g81
I3
ssg82
g2960
sg75
(lp2967
S'1'
asbasbasbasbasbasbasbasbasbasbasbasbasbsS'frames'
p2968
(lp2969
(dp2970
S'file'
p2971
S'/home/alumno/web2py/gluon/restricted.py'
p2972
sS'dump'
p2973
(dp2974
S'code'
p2975
S'\'response.write(\\\'<!DOCTYPE html>\\\\n<html lang="\\\', ...t   -->    \\\\n  </body>\\\\n</html>\\\\n\\\', escape=False)\''
p2976
sS'layer'
p2977
S"'/home/alumno/web2py/applications/datos/views/default/detalle.html'"
p2978
sS'global compile2'
p2979
S'<function compile2>'
p2980
sS'ccode'
p2981
S'undefined'
p2982
ssS'lnum'
p2983
I191
sS'lines'
p2984
(dp2985
I192
S'        exec ccode in environment'
p2986
sI193
S'    except HTTP:'
p2987
sI194
S'        raise'
p2988
sI195
S'    except Exception:'
p2989
sI186
S"    environment['__file__'] = layer"
p2990
sI187
S'    try:'
p2991
sI188
S'        if type(code) == types.CodeType:'
p2992
sI189
S'            ccode = code'
p2993
sI190
S'        else:'
p2994
sI191
S'            ccode = compile2(code,layer)'
p2995
ssS'call'
p2996
S'(code=\'response.write(\\\'<!DOCTYPE html>\\\\n<html lang="\\\', ...t   -->    \\\\n  </body>\\\\n</html>\\\\n\\\', escape=False)\', environment={\'A\': <class \'gluon.html.A\'>, \'B\': <class \'gluon.html.B\'>, \'BEAUTIFY\': <class \'gluon.html.BEAUTIFY\'>, \'BODY\': <class \'gluon.html.BODY\'>, \'BR\': <class \'gluon.html.BR\'>, \'CENTER\': <class \'gluon.html.CENTER\'>, \'CLEANUP\': <class \'gluon.validators.CLEANUP\'>, \'CODE\': <class \'gluon.html.CODE\'>, \'CRYPT\': <class \'gluon.validators.CRYPT\'>, \'DAL\': <class \'gluon.dal.DAL\'>, ...}, layer=\'/home/alumno/web2py/applications/datos/views/default/detalle.html\')'
p2997
sS'func'
p2998
S'restricted'
p2999
sa(dp3000
g2971
S'/home/alumno/web2py/gluon/restricted.py'
p3001
sg2973
(dp3002
S'builtincompile'
p3003
S'<built-in function compile>'
p3004
sS'code'
p3005
S'\'response.write(\\\'<!DOCTYPE html>\\\\n<html lang="\\\', ...t   -->    \\\\n  </body>\\\\n</html>\\\\n\\\', escape=False)\''
p3006
sS'code.rstrip'
p3007
S'<built-in method rstrip of str object>'
p3008
sS').replace'
p3009
g2982
sS'layer'
p3010
S"'/home/alumno/web2py/applications/datos/views/default/detalle.html'"
p3011
ssg2983
I178
sg2984
(dp3012
I173
S''
sI174
S'def compile2(code,layer):'
p3013
sI175
S'    """'
p3014
sI176
S"    The +'\\n' is necessary else compile fails when code ends in a comment."
p3015
sI177
S'    """'
p3016
sI178
S"    return compile(code.rstrip().replace('\\r\\n','\\n')+'\\n', layer, 'exec')"
p3017
sI179
S''
sI180
S"def restricted(code, environment={}, layer='Unknown'):"
p3018
sI181
S'    """'
p3019
sI182
S'    runs code in environment and returns the output. if an exception occurs'
p3020
ssg2996
S'(code=\'response.write(\\\'<!DOCTYPE html>\\\\n<html lang="\\\', ...t   -->    \\\\n  </body>\\\\n</html>\\\\n\\\', escape=False)\', layer=\'/home/alumno/web2py/applications/datos/views/default/detalle.html\')'
p3021
sg2998
S'compile2'
p3022
sasS'pyver'
p3023
S'Python 2.6.6: /usr/bin/python'
p3024
sS'session'
p3025
g68
(g69
g70
NtRp3026
(dp3027
g73
(dp3028
sg75
(lp3029
g68
(g77
g70
NtRp3030
(dp3031
g73
(dp3032
g81
I5
ssg82
Nsg75
(lp3033
g68
(g84
g70
NtRp3034
(dp3035
g73
(dp3036
sg82
g3030
sg75
(lp3037
g68
(g89
g70
NtRp3038
(dp3039
g73
(dp3040
g93
g94
ssg82
g3034
sg75
(lp3041
S'last_query'
p3042
asbag68
(g89
g70
NtRp3043
(dp3044
g73
(dp3045
g100
g101
ssg82
g3034
sg75
(lp3046
S':'
asbag68
(g89
g70
NtRp3047
(dp3048
g73
(dp3049
sg82
g3034
sg75
(lp3050
g68
(g69
g70
NtRp3051
(dp3052
g73
(dp3053
g81
I5
ssg82
g3047
sg75
(lp3054
S'db.alumno_curso.id>0'
p3055
asbasbasbasbasbsS'etype'
p3056
S"<type 'exceptions.SyntaxError'>"
p3057
sS'date'
p3058
S'Sat Sep 10 19:03:30 2011'
p3059
sS'response'
p3060
g68
(g69
g70
NtRp3061
(dp3062
g73
(dp3063
sg75
(lp3064
g68
(g77
g70
NtRp3065
(dp3066
g73
(dp3067
g81
I5
ssg82
Nsg75
(lp3068
g68
(g84
g70
NtRp3069
(dp3070
g73
(dp3071
sg82
g3065
sg75
(lp3072
g68
(g89
g70
NtRp3073
(dp3074
g73
(dp3075
g93
g94
ssg82
g3069
sg75
(lp3076
g179
asbag68
(g89
g70
NtRp3077
(dp3078
g73
(dp3079
g100
g101
ssg82
g3069
sg75
(lp3080
S':'
asbag68
(g89
g70
NtRp3081
(dp3082
g73
(dp3083
sg82
g3069
sg75
(lp3084
g68
(g69
g70
NtRp3085
(dp3086
g73
(dp3087
g81
I5
ssg82
g3081
sg75
(lp3088
S'<cStringIO.StringO object at 0x982fdc0>'
p3089
asbasbasbag68
(g84
g70
NtRp3090
(dp3091
g73
(dp3092
sg82
g3065
sg75
(lp3093
g68
(g89
g70
NtRp3094
(dp3095
g73
(dp3096
g93
g94
ssg82
g3090
sg75
(lp3097
g245
asbag68
(g89
g70
NtRp3098
(dp3099
g73
(dp3100
g100
g101
ssg82
g3090
sg75
(lp3101
S':'
asbag68
(g89
g70
NtRp3102
(dp3103
g73
(dp3104
sg82
g3090
sg75
(lp3105
g68
(g69
g70
NtRp3106
(dp3107
g73
(dp3108
g81
I5
ssg82
g3102
sg75
(lp3109
g68
(g77
g70
NtRp3110
(dp3111
g73
(dp3112
g81
I4
ssg82
Nsg75
(lp3113
g68
(g84
g70
NtRp3114
(dp3115
g73
(dp3116
sg82
g3110
sg75
(lp3117
g68
(g89
g70
NtRp3118
(dp3119
g73
(dp3120
g93
g94
ssg82
g3114
sg75
(lp3121
S'session_id_datos'
p3122
asbag68
(g89
g70
NtRp3123
(dp3124
g73
(dp3125
g100
g101
ssg82
g3114
sg75
(lp3126
S':'
asbag68
(g89
g70
NtRp3127
(dp3128
g73
(dp3129
sg82
g3114
sg75
(lp3130
g68
(g69
g70
NtRp3131
(dp3132
g73
(dp3133
g81
I4
ssg82
g3127
sg75
(lp3134
g68
(g77
g70
NtRp3135
(dp3136
g73
(dp3137
g81
I3
ssg82
Nsg75
(lp3138
g68
(g84
g70
NtRp3139
(dp3140
g73
(dp3141
sg82
g3135
sg75
(lp3142
g68
(g89
g70
NtRp3143
(dp3144
g73
(dp3145
g93
g94
ssg82
g3139
sg75
(lp3146
g295
asbag68
(g89
g70
NtRp3147
(dp3148
g73
(dp3149
g100
g101
ssg82
g3139
sg75
(lp3150
S':'
asbag68
(g89
g70
NtRp3151
(dp3152
g73
(dp3153
sg82
g3139
sg75
(lp3154
g68
(g69
g70
NtRp3155
(dp3156
g73
(dp3157
g81
I3
ssg82
g3151
sg75
(lp3158
S''
asbasbasbag68
(g84
g70
NtRp3159
(dp3160
g73
(dp3161
sg82
g3135
sg75
(lp3162
g68
(g89
g70
NtRp3163
(dp3164
g73
(dp3165
g93
g94
ssg82
g3159
sg75
(lp3166
g316
asbag68
(g89
g70
NtRp3167
(dp3168
g73
(dp3169
g100
g101
ssg82
g3159
sg75
(lp3170
S':'
asbag68
(g89
g70
NtRp3171
(dp3172
g73
(dp3173
sg82
g3159
sg75
(lp3174
g68
(g69
g70
NtRp3175
(dp3176
g73
(dp3177
g81
I3
ssg82
g3171
sg75
(lp3178
S''
asbasbasbag68
(g84
g70
NtRp3179
(dp3180
g73
(dp3181
sg82
g3135
sg75
(lp3182
g68
(g89
g70
NtRp3183
(dp3184
g73
(dp3185
g93
g94
ssg82
g3179
sg75
(lp3186
g337
asbag68
(g89
g70
NtRp3187
(dp3188
g73
(dp3189
g100
g101
ssg82
g3179
sg75
(lp3190
S':'
asbag68
(g89
g70
NtRp3191
(dp3192
g73
(dp3193
sg82
g3179
sg75
(lp3194
g68
(g69
g70
NtRp3195
(dp3196
g73
(dp3197
g81
I3
ssg82
g3191
sg75
(lp3198
S''
asbasbasbag68
(g84
g70
NtRp3199
(dp3200
g73
(dp3201
sg82
g3135
sg75
(lp3202
g68
(g89
g70
NtRp3203
(dp3204
g73
(dp3205
g93
g94
ssg82
g3199
sg75
(lp3206
g358
asbag68
(g89
g70
NtRp3207
(dp3208
g73
(dp3209
g100
g101
ssg82
g3199
sg75
(lp3210
S':'
asbag68
(g89
g70
NtRp3211
(dp3212
g73
(dp3213
sg82
g3199
sg75
(lp3214
g68
(g69
g70
NtRp3215
(dp3216
g73
(dp3217
g81
I3
ssg82
g3211
sg75
(lp3218
S''
asbasbasbag68
(g84
g70
NtRp3219
(dp3220
g73
(dp3221
sg82
g3135
sg75
(lp3222
g68
(g89
g70
NtRp3223
(dp3224
g73
(dp3225
g93
g94
ssg82
g3219
sg75
(lp3226
g379
asbag68
(g89
g70
NtRp3227
(dp3228
g73
(dp3229
g100
g101
ssg82
g3219
sg75
(lp3230
S':'
asbag68
(g89
g70
NtRp3231
(dp3232
g73
(dp3233
sg82
g3219
sg75
(lp3234
g68
(g69
g70
NtRp3235
(dp3236
g73
(dp3237
g81
I3
ssg82
g3231
sg75
(lp3238
S''
asbasbasbag68
(g84
g70
NtRp3239
(dp3240
g73
(dp3241
sg82
g3135
sg75
(lp3242
g68
(g89
g70
NtRp3243
(dp3244
g73
(dp3245
g93
g94
ssg82
g3239
sg75
(lp3246
g400
asbag68
(g89
g70
NtRp3247
(dp3248
g73
(dp3249
g100
g101
ssg82
g3239
sg75
(lp3250
S':'
asbag68
(g89
g70
NtRp3251
(dp3252
g73
(dp3253
sg82
g3239
sg75
(lp3254
g68
(g69
g70
NtRp3255
(dp3256
g73
(dp3257
g81
I3
ssg82
g3251
sg75
(lp3258
S'/'
asbasbasbag68
(g84
g70
NtRp3259
(dp3260
g73
(dp3261
sg82
g3135
sg75
(lp3262
g68
(g89
g70
NtRp3263
(dp3264
g73
(dp3265
g93
g94
ssg82
g3259
sg75
(lp3266
g421
asbag68
(g89
g70
NtRp3267
(dp3268
g73
(dp3269
g100
g101
ssg82
g3259
sg75
(lp3270
S':'
asbag68
(g89
g70
NtRp3271
(dp3272
g73
(dp3273
sg82
g3259
sg75
(lp3274
g68
(g69
g70
NtRp3275
(dp3276
g73
(dp3277
g81
I3
ssg82
g3271
sg75
(lp3278
S''
asbasbasbag68
(g84
g70
NtRp3279
(dp3280
g73
(dp3281
sg82
g3135
sg75
(lp3282
g68
(g89
g70
NtRp3283
(dp3284
g73
(dp3285
g93
g94
ssg82
g3279
sg75
(lp3286
g442
asbag68
(g89
g70
NtRp3287
(dp3288
g73
(dp3289
g100
g101
ssg82
g3279
sg75
(lp3290
S':'
asbag68
(g89
g70
NtRp3291
(dp3292
g73
(dp3293
sg82
g3279
sg75
(lp3294
g68
(g69
g70
NtRp3295
(dp3296
g73
(dp3297
g81
I3
ssg82
g3291
sg75
(lp3298
S''
asbasbasbasbasbasbasbasbasbasbasbag68
(g84
g70
NtRp3299
(dp3300
g73
(dp3301
sg82
g3065
sg75
(lp3302
g68
(g89
g70
NtRp3303
(dp3304
g73
(dp3305
g93
g94
ssg82
g3299
sg75
(lp3306
S'files'
p3307
asbag68
(g89
g70
NtRp3308
(dp3309
g73
(dp3310
g100
g101
ssg82
g3299
sg75
(lp3311
S':'
asbag68
(g89
g70
NtRp3312
(dp3313
g73
(dp3314
sg82
g3299
sg75
(lp3315
g68
(g69
g70
NtRp3316
(dp3317
g73
(dp3318
g81
I5
ssg82
g3312
sg75
(lp3319
g68
(g77
g70
NtRp3320
(dp3321
g73
(dp3322
g81
I4
ssg82
Nsg75
(lp3323
sbasbasbasbag68
(g84
g70
NtRp3324
(dp3325
g73
(dp3326
sg82
g3065
sg75
(lp3327
g68
(g89
g70
NtRp3328
(dp3329
g73
(dp3330
g93
g94
ssg82
g3324
sg75
(lp3331
S'flash'
p3332
asbag68
(g89
g70
NtRp3333
(dp3334
g73
(dp3335
g100
g101
ssg82
g3324
sg75
(lp3336
S':'
asbag68
(g89
g70
NtRp3337
(dp3338
g73
(dp3339
sg82
g3324
sg75
(lp3340
g68
(g69
g70
NtRp3341
(dp3342
g73
(dp3343
g81
I5
ssg82
g3337
sg75
(lp3344
S''
asbasbasbag68
(g84
g70
NtRp3345
(dp3346
g73
(dp3347
sg82
g3065
sg75
(lp3348
g68
(g89
g70
NtRp3349
(dp3350
g73
(dp3351
g93
g94
ssg82
g3345
sg75
(lp3352
S'headers'
p3353
asbag68
(g89
g70
NtRp3354
(dp3355
g73
(dp3356
g100
g101
ssg82
g3345
sg75
(lp3357
S':'
asbag68
(g89
g70
NtRp3358
(dp3359
g73
(dp3360
sg82
g3345
sg75
(lp3361
g68
(g69
g70
NtRp3362
(dp3363
g73
(dp3364
g81
I5
ssg82
g3358
sg75
(lp3365
g68
(g77
g70
NtRp3366
(dp3367
g73
(dp3368
g81
I4
ssg82
Nsg75
(lp3369
g68
(g84
g70
NtRp3370
(dp3371
g73
(dp3372
sg82
g3366
sg75
(lp3373
g68
(g89
g70
NtRp3374
(dp3375
g73
(dp3376
g93
g94
ssg82
g3370
sg75
(lp3377
S'Cache-Control'
p3378
asbag68
(g89
g70
NtRp3379
(dp3380
g73
(dp3381
g100
g101
ssg82
g3370
sg75
(lp3382
S':'
asbag68
(g89
g70
NtRp3383
(dp3384
g73
(dp3385
sg82
g3370
sg75
(lp3386
g68
(g69
g70
NtRp3387
(dp3388
g73
(dp3389
g81
I4
ssg82
g3383
sg75
(lp3390
S'no-store, no-cache, must-revalidate, post-check=0, pre-check=0'
p3391
asbasbasbag68
(g84
g70
NtRp3392
(dp3393
g73
(dp3394
sg82
g3366
sg75
(lp3395
g68
(g89
g70
NtRp3396
(dp3397
g73
(dp3398
g93
g94
ssg82
g3392
sg75
(lp3399
S'Content-Type'
p3400
asbag68
(g89
g70
NtRp3401
(dp3402
g73
(dp3403
g100
g101
ssg82
g3392
sg75
(lp3404
S':'
asbag68
(g89
g70
NtRp3405
(dp3406
g73
(dp3407
sg82
g3392
sg75
(lp3408
g68
(g69
g70
NtRp3409
(dp3410
g73
(dp3411
g81
I4
ssg82
g3405
sg75
(lp3412
S'text/html; charset=utf-8'
p3413
asbasbasbag68
(g84
g70
NtRp3414
(dp3415
g73
(dp3416
sg82
g3366
sg75
(lp3417
g68
(g89
g70
NtRp3418
(dp3419
g73
(dp3420
g93
g94
ssg82
g3414
sg75
(lp3421
S'Expires'
p3422
asbag68
(g89
g70
NtRp3423
(dp3424
g73
(dp3425
g100
g101
ssg82
g3414
sg75
(lp3426
S':'
asbag68
(g89
g70
NtRp3427
(dp3428
g73
(dp3429
sg82
g3414
sg75
(lp3430
g68
(g69
g70
NtRp3431
(dp3432
g73
(dp3433
g81
I4
ssg82
g3427
sg75
(lp3434
S'Sun, 11 Sep 2011 00:03:30 GMT'
p3435
asbasbasbag68
(g84
g70
NtRp3436
(dp3437
g73
(dp3438
sg82
g3366
sg75
(lp3439
g68
(g89
g70
NtRp3440
(dp3441
g73
(dp3442
g93
g94
ssg82
g3436
sg75
(lp3443
S'Pragma'
p3444
asbag68
(g89
g70
NtRp3445
(dp3446
g73
(dp3447
g100
g101
ssg82
g3436
sg75
(lp3448
S':'
asbag68
(g89
g70
NtRp3449
(dp3450
g73
(dp3451
sg82
g3436
sg75
(lp3452
g68
(g69
g70
NtRp3453
(dp3454
g73
(dp3455
g81
I4
ssg82
g3449
sg75
(lp3456
S'no-cache'
p3457
asbasbasbag68
(g84
g70
NtRp3458
(dp3459
g73
(dp3460
sg82
g3366
sg75
(lp3461
g68
(g89
g70
NtRp3462
(dp3463
g73
(dp3464
g93
g94
ssg82
g3458
sg75
(lp3465
S'X-Powered-By'
p3466
asbag68
(g89
g70
NtRp3467
(dp3468
g73
(dp3469
g100
g101
ssg82
g3458
sg75
(lp3470
S':'
asbag68
(g89
g70
NtRp3471
(dp3472
g73
(dp3473
sg82
g3458
sg75
(lp3474
g68
(g69
g70
NtRp3475
(dp3476
g73
(dp3477
g81
I4
ssg82
g3471
sg75
(lp3478
S'web2py'
p3479
asbasbasbasbasbasbasbag68
(g84
g70
NtRp3480
(dp3481
g73
(dp3482
sg82
g3065
sg75
(lp3483
g68
(g89
g70
NtRp3484
(dp3485
g73
(dp3486
g93
g94
ssg82
g3480
sg75
(lp3487
S'menu'
p3488
asbag68
(g89
g70
NtRp3489
(dp3490
g73
(dp3491
g100
g101
ssg82
g3480
sg75
(lp3492
S':'
asbag68
(g89
g70
NtRp3493
(dp3494
g73
(dp3495
sg82
g3480
sg75
(lp3496
g68
(g69
g70
NtRp3497
(dp3498
g73
(dp3499
g81
I5
ssg82
g3493
sg75
(lp3500
g68
(g77
g70
NtRp3501
(dp3502
g73
(dp3503
g81
I4
ssg82
Nsg75
(lp3504
g68
(g84
g70
NtRp3505
(dp3506
g73
(dp3507
sg82
g3501
sg75
(lp3508
g68
(g89
g70
NtRp3509
(dp3510
g73
(dp3511
sg82
g3505
sg75
(lp3512
g68
(g69
g70
NtRp3513
(dp3514
g73
(dp3515
g81
I4
ssg82
g3509
sg75
(lp3516
g68
(g77
g70
NtRp3517
(dp3518
g73
(dp3519
g81
I3
ssg82
Nsg75
(lp3520
g68
(g84
g70
NtRp3521
(dp3522
g73
(dp3523
sg82
g3517
sg75
(lp3524
g68
(g89
g70
NtRp3525
(dp3526
g73
(dp3527
sg82
g3521
sg75
(lp3528
g68
(g69
g70
NtRp3529
(dp3530
g73
(dp3531
g81
I3
ssg82
g3525
sg75
(lp3532
cgluon.languages
lazyT_unpickle
p3533
(S's\x04\x00\x00\x00Home'
tRp3534
asbasbasbag68
(g84
g70
NtRp3535
(dp3536
g73
(dp3537
sg82
g3517
sg75
(lp3538
g68
(g89
g70
NtRp3539
(dp3540
g73
(dp3541
sg82
g3535
sg75
(lp3542
g68
(g69
g70
NtRp3543
(dp3544
g73
(dp3545
g81
I3
ssg82
g3539
sg75
(lp3546
g111
asbasbasbag68
(g84
g70
NtRp3547
(dp3548
g73
(dp3549
sg82
g3517
sg75
(lp3550
g68
(g89
g70
NtRp3551
(dp3552
g73
(dp3553
sg82
g3547
sg75
(lp3554
g68
(g69
g70
NtRp3555
(dp3556
g73
(dp3557
g81
I3
ssg82
g3551
sg75
(lp3558
S'/datos/default/index'
p3559
asbasbasbag68
(g84
g70
NtRp3560
(dp3561
g73
(dp3562
sg82
g3517
sg75
(lp3563
g68
(g89
g70
NtRp3564
(dp3565
g73
(dp3566
sg82
g3560
sg75
(lp3567
g68
(g69
g70
NtRp3568
(dp3569
g73
(dp3570
g81
I3
ssg82
g3564
sg75
(lp3571
g68
(g77
g70
NtRp3572
(dp3573
g73
(dp3574
g81
I2
ssg82
Nsg75
(lp3575
sbasbasbasbasbasbasbasbag68
(g84
g70
NtRp3576
(dp3577
g73
(dp3578
sg82
g3501
sg75
(lp3579
g68
(g89
g70
NtRp3580
(dp3581
g73
(dp3582
sg82
g3576
sg75
(lp3583
g68
(g69
g70
NtRp3584
(dp3585
g73
(dp3586
g81
I4
ssg82
g3580
sg75
(lp3587
g68
(g77
g70
NtRp3588
(dp3589
g73
(dp3590
g81
I3
ssg82
Nsg75
(lp3591
g68
(g84
g70
NtRp3592
(dp3593
g73
(dp3594
sg82
g3588
sg75
(lp3595
g68
(g89
g70
NtRp3596
(dp3597
g73
(dp3598
sg82
g3592
sg75
(lp3599
g68
(g69
g70
NtRp3600
(dp3601
g73
(dp3602
g81
I3
ssg82
g3596
sg75
(lp3603
g3533
(S's\x08\x00\x00\x00This App'
tRp3604
asbasbasbag68
(g84
g70
NtRp3605
(dp3606
g73
(dp3607
sg82
g3588
sg75
(lp3608
g68
(g89
g70
NtRp3609
(dp3610
g73
(dp3611
sg82
g3605
sg75
(lp3612
g68
(g69
g70
NtRp3613
(dp3614
g73
(dp3615
g81
I3
ssg82
g3609
sg75
(lp3616
g111
asbasbasbag68
(g84
g70
NtRp3617
(dp3618
g73
(dp3619
sg82
g3588
sg75
(lp3620
g68
(g89
g70
NtRp3621
(dp3622
g73
(dp3623
sg82
g3617
sg75
(lp3624
g68
(g69
g70
NtRp3625
(dp3626
g73
(dp3627
g81
I3
ssg82
g3621
sg75
(lp3628
S'/admin/default/design/datos'
p3629
asbasbasbag68
(g84
g70
NtRp3630
(dp3631
g73
(dp3632
sg82
g3588
sg75
(lp3633
g68
(g89
g70
NtRp3634
(dp3635
g73
(dp3636
sg82
g3630
sg75
(lp3637
g68
(g69
g70
NtRp3638
(dp3639
g73
(dp3640
g81
I3
ssg82
g3634
sg75
(lp3641
g68
(g77
g70
NtRp3642
(dp3643
g73
(dp3644
g81
I2
ssg82
Nsg75
(lp3645
g68
(g84
g70
NtRp3646
(dp3647
g73
(dp3648
sg82
g3642
sg75
(lp3649
g68
(g89
g70
NtRp3650
(dp3651
g73
(dp3652
sg82
g3646
sg75
(lp3653
g68
(g69
g70
NtRp3654
(dp3655
g73
(dp3656
g81
I2
ssg82
g3650
sg75
(lp3657
g68
(g77
g70
NtRp3658
(dp3659
g73
(dp3660
g81
I1
ssg82
Nsg75
(lp3661
g68
(g84
g70
NtRp3662
(dp3663
g73
(dp3664
sg82
g3658
sg75
(lp3665
g68
(g89
g70
NtRp3666
(dp3667
g73
(dp3668
sg82
g3662
sg75
(lp3669
g68
(g69
g70
NtRp3670
(dp3671
g73
(dp3672
g81
I1
ssg82
g3666
sg75
(lp3673
g3533
(S's\n\x00\x00\x00Controller'
tRp3674
asbasbasbag68
(g84
g70
NtRp3675
(dp3676
g73
(dp3677
sg82
g3658
sg75
(lp3678
g68
(g89
g70
NtRp3679
(dp3680
g73
(dp3681
sg82
g3675
sg75
(lp3682
g68
(g69
g70
NtRp3683
(dp3684
g73
(dp3685
g81
I1
ssg82
g3679
sg75
(lp3686
I00
asbasbasbag68
(g84
g70
NtRp3687
(dp3688
g73
(dp3689
sg82
g3658
sg75
(lp3690
g68
(g89
g70
NtRp3691
(dp3692
g73
(dp3693
sg82
g3687
sg75
(lp3694
g68
(g69
g70
NtRp3695
(dp3696
g73
(dp3697
g81
I1
ssg82
g3691
sg75
(lp3698
S'/admin/default/edit/datos/controllers/default.py'
p3699
asbasbasbasbasbasbasbag68
(g84
g70
NtRp3700
(dp3701
g73
(dp3702
sg82
g3642
sg75
(lp3703
g68
(g89
g70
NtRp3704
(dp3705
g73
(dp3706
sg82
g3700
sg75
(lp3707
g68
(g69
g70
NtRp3708
(dp3709
g73
(dp3710
g81
I2
ssg82
g3704
sg75
(lp3711
g68
(g77
g70
NtRp3712
(dp3713
g73
(dp3714
g81
I1
ssg82
Nsg75
(lp3715
g68
(g84
g70
NtRp3716
(dp3717
g73
(dp3718
sg82
g3712
sg75
(lp3719
g68
(g89
g70
NtRp3720
(dp3721
g73
(dp3722
sg82
g3716
sg75
(lp3723
g68
(g69
g70
NtRp3724
(dp3725
g73
(dp3726
g81
I1
ssg82
g3720
sg75
(lp3727
g3533
(S's\x04\x00\x00\x00View'
tRp3728
asbasbasbag68
(g84
g70
NtRp3729
(dp3730
g73
(dp3731
sg82
g3712
sg75
(lp3732
g68
(g89
g70
NtRp3733
(dp3734
g73
(dp3735
sg82
g3729
sg75
(lp3736
g68
(g69
g70
NtRp3737
(dp3738
g73
(dp3739
g81
I1
ssg82
g3733
sg75
(lp3740
I00
asbasbasbag68
(g84
g70
NtRp3741
(dp3742
g73
(dp3743
sg82
g3712
sg75
(lp3744
g68
(g89
g70
NtRp3745
(dp3746
g73
(dp3747
sg82
g3741
sg75
(lp3748
g68
(g69
g70
NtRp3749
(dp3750
g73
(dp3751
g81
I1
ssg82
g3745
sg75
(lp3752
S'/admin/default/edit/datos/views/default/detalle.html'
p3753
asbasbasbasbasbasbasbag68
(g84
g70
NtRp3754
(dp3755
g73
(dp3756
sg82
g3642
sg75
(lp3757
g68
(g89
g70
NtRp3758
(dp3759
g73
(dp3760
sg82
g3754
sg75
(lp3761
g68
(g69
g70
NtRp3762
(dp3763
g73
(dp3764
g81
I2
ssg82
g3758
sg75
(lp3765
g68
(g77
g70
NtRp3766
(dp3767
g73
(dp3768
g81
I1
ssg82
Nsg75
(lp3769
g68
(g84
g70
NtRp3770
(dp3771
g73
(dp3772
sg82
g3766
sg75
(lp3773
g68
(g89
g70
NtRp3774
(dp3775
g73
(dp3776
sg82
g3770
sg75
(lp3777
g68
(g69
g70
NtRp3778
(dp3779
g73
(dp3780
g81
I1
ssg82
g3774
sg75
(lp3781
g3533
(S's\x06\x00\x00\x00Layout'
tRp3782
asbasbasbag68
(g84
g70
NtRp3783
(dp3784
g73
(dp3785
sg82
g3766
sg75
(lp3786
g68
(g89
g70
NtRp3787
(dp3788
g73
(dp3789
sg82
g3783
sg75
(lp3790
g68
(g69
g70
NtRp3791
(dp3792
g73
(dp3793
g81
I1
ssg82
g3787
sg75
(lp3794
I00
asbasbasbag68
(g84
g70
NtRp3795
(dp3796
g73
(dp3797
sg82
g3766
sg75
(lp3798
g68
(g89
g70
NtRp3799
(dp3800
g73
(dp3801
sg82
g3795
sg75
(lp3802
g68
(g69
g70
NtRp3803
(dp3804
g73
(dp3805
g81
I1
ssg82
g3799
sg75
(lp3806
S'/admin/default/edit/datos/views/layout.html'
p3807
asbasbasbasbasbasbasbag68
(g84
g70
NtRp3808
(dp3809
g73
(dp3810
sg82
g3642
sg75
(lp3811
g68
(g89
g70
NtRp3812
(dp3813
g73
(dp3814
sg82
g3808
sg75
(lp3815
g68
(g69
g70
NtRp3816
(dp3817
g73
(dp3818
g81
I2
ssg82
g3812
sg75
(lp3819
g68
(g77
g70
NtRp3820
(dp3821
g73
(dp3822
g81
I1
ssg82
Nsg75
(lp3823
g68
(g84
g70
NtRp3824
(dp3825
g73
(dp3826
sg82
g3820
sg75
(lp3827
g68
(g89
g70
NtRp3828
(dp3829
g73
(dp3830
sg82
g3824
sg75
(lp3831
g68
(g69
g70
NtRp3832
(dp3833
g73
(dp3834
g81
I1
ssg82
g3828
sg75
(lp3835
g3533
(S's\n\x00\x00\x00Stylesheet'
tRp3836
asbasbasbag68
(g84
g70
NtRp3837
(dp3838
g73
(dp3839
sg82
g3820
sg75
(lp3840
g68
(g89
g70
NtRp3841
(dp3842
g73
(dp3843
sg82
g3837
sg75
(lp3844
g68
(g69
g70
NtRp3845
(dp3846
g73
(dp3847
g81
I1
ssg82
g3841
sg75
(lp3848
I00
asbasbasbag68
(g84
g70
NtRp3849
(dp3850
g73
(dp3851
sg82
g3820
sg75
(lp3852
g68
(g89
g70
NtRp3853
(dp3854
g73
(dp3855
sg82
g3849
sg75
(lp3856
g68
(g69
g70
NtRp3857
(dp3858
g73
(dp3859
g81
I1
ssg82
g3853
sg75
(lp3860
S'/admin/default/edit/datos/static/base.css'
p3861
asbasbasbasbasbasbasbag68
(g84
g70
NtRp3862
(dp3863
g73
(dp3864
sg82
g3642
sg75
(lp3865
g68
(g89
g70
NtRp3866
(dp3867
g73
(dp3868
sg82
g3862
sg75
(lp3869
g68
(g69
g70
NtRp3870
(dp3871
g73
(dp3872
g81
I2
ssg82
g3866
sg75
(lp3873
g68
(g77
g70
NtRp3874
(dp3875
g73
(dp3876
g81
I1
ssg82
Nsg75
(lp3877
g68
(g84
g70
NtRp3878
(dp3879
g73
(dp3880
sg82
g3874
sg75
(lp3881
g68
(g89
g70
NtRp3882
(dp3883
g73
(dp3884
sg82
g3878
sg75
(lp3885
g68
(g69
g70
NtRp3886
(dp3887
g73
(dp3888
g81
I1
ssg82
g3882
sg75
(lp3889
g3533
(S's\x08\x00\x00\x00DB Model'
tRp3890
asbasbasbag68
(g84
g70
NtRp3891
(dp3892
g73
(dp3893
sg82
g3874
sg75
(lp3894
g68
(g89
g70
NtRp3895
(dp3896
g73
(dp3897
sg82
g3891
sg75
(lp3898
g68
(g69
g70
NtRp3899
(dp3900
g73
(dp3901
g81
I1
ssg82
g3895
sg75
(lp3902
I00
asbasbasbag68
(g84
g70
NtRp3903
(dp3904
g73
(dp3905
sg82
g3874
sg75
(lp3906
g68
(g89
g70
NtRp3907
(dp3908
g73
(dp3909
sg82
g3903
sg75
(lp3910
g68
(g69
g70
NtRp3911
(dp3912
g73
(dp3913
g81
I1
ssg82
g3907
sg75
(lp3914
S'/admin/default/edit/datos/models/db.py'
p3915
asbasbasbasbasbasbasbag68
(g84
g70
NtRp3916
(dp3917
g73
(dp3918
sg82
g3642
sg75
(lp3919
g68
(g89
g70
NtRp3920
(dp3921
g73
(dp3922
sg82
g3916
sg75
(lp3923
g68
(g69
g70
NtRp3924
(dp3925
g73
(dp3926
g81
I2
ssg82
g3920
sg75
(lp3927
g68
(g77
g70
NtRp3928
(dp3929
g73
(dp3930
g81
I1
ssg82
Nsg75
(lp3931
g68
(g84
g70
NtRp3932
(dp3933
g73
(dp3934
sg82
g3928
sg75
(lp3935
g68
(g89
g70
NtRp3936
(dp3937
g73
(dp3938
sg82
g3932
sg75
(lp3939
g68
(g69
g70
NtRp3940
(dp3941
g73
(dp3942
g81
I1
ssg82
g3936
sg75
(lp3943
g3533
(S's\n\x00\x00\x00Menu Model'
tRp3944
asbasbasbag68
(g84
g70
NtRp3945
(dp3946
g73
(dp3947
sg82
g3928
sg75
(lp3948
g68
(g89
g70
NtRp3949
(dp3950
g73
(dp3951
sg82
g3945
sg75
(lp3952
g68
(g69
g70
NtRp3953
(dp3954
g73
(dp3955
g81
I1
ssg82
g3949
sg75
(lp3956
I00
asbasbasbag68
(g84
g70
NtRp3957
(dp3958
g73
(dp3959
sg82
g3928
sg75
(lp3960
g68
(g89
g70
NtRp3961
(dp3962
g73
(dp3963
sg82
g3957
sg75
(lp3964
g68
(g69
g70
NtRp3965
(dp3966
g73
(dp3967
g81
I1
ssg82
g3961
sg75
(lp3968
S'/admin/default/edit/datos/models/menu.py'
p3969
asbasbasbasbasbasbasbag68
(g84
g70
NtRp3970
(dp3971
g73
(dp3972
sg82
g3642
sg75
(lp3973
g68
(g89
g70
NtRp3974
(dp3975
g73
(dp3976
sg82
g3970
sg75
(lp3977
g68
(g69
g70
NtRp3978
(dp3979
g73
(dp3980
g81
I2
ssg82
g3974
sg75
(lp3981
g68
(g77
g70
NtRp3982
(dp3983
g73
(dp3984
g81
I1
ssg82
Nsg75
(lp3985
g68
(g84
g70
NtRp3986
(dp3987
g73
(dp3988
sg82
g3982
sg75
(lp3989
g68
(g89
g70
NtRp3990
(dp3991
g73
(dp3992
sg82
g3986
sg75
(lp3993
g68
(g69
g70
NtRp3994
(dp3995
g73
(dp3996
g81
I1
ssg82
g3990
sg75
(lp3997
g3533
(S's\x08\x00\x00\x00Database'
tRp3998
asbasbasbag68
(g84
g70
NtRp3999
(dp4000
g73
(dp4001
sg82
g3982
sg75
(lp4002
g68
(g89
g70
NtRp4003
(dp4004
g73
(dp4005
sg82
g3999
sg75
(lp4006
g68
(g69
g70
NtRp4007
(dp4008
g73
(dp4009
g81
I1
ssg82
g4003
sg75
(lp4010
I00
asbasbasbag68
(g84
g70
NtRp4011
(dp4012
g73
(dp4013
sg82
g3982
sg75
(lp4014
g68
(g89
g70
NtRp4015
(dp4016
g73
(dp4017
sg82
g4011
sg75
(lp4018
g68
(g69
g70
NtRp4019
(dp4020
g73
(dp4021
g81
I1
ssg82
g4015
sg75
(lp4022
S'/datos/appadmin/index'
p4023
asbasbasbasbasbasbasbag68
(g84
g70
NtRp4024
(dp4025
g73
(dp4026
sg82
g3642
sg75
(lp4027
g68
(g89
g70
NtRp4028
(dp4029
g73
(dp4030
sg82
g4024
sg75
(lp4031
g68
(g69
g70
NtRp4032
(dp4033
g73
(dp4034
g81
I2
ssg82
g4028
sg75
(lp4035
g68
(g77
g70
NtRp4036
(dp4037
g73
(dp4038
g81
I1
ssg82
Nsg75
(lp4039
g68
(g84
g70
NtRp4040
(dp4041
g73
(dp4042
sg82
g4036
sg75
(lp4043
g68
(g89
g70
NtRp4044
(dp4045
g73
(dp4046
sg82
g4040
sg75
(lp4047
g68
(g69
g70
NtRp4048
(dp4049
g73
(dp4050
g81
I1
ssg82
g4044
sg75
(lp4051
g3533
(S's\x06\x00\x00\x00Errors'
tRp4052
asbasbasbag68
(g84
g70
NtRp4053
(dp4054
g73
(dp4055
sg82
g4036
sg75
(lp4056
g68
(g89
g70
NtRp4057
(dp4058
g73
(dp4059
sg82
g4053
sg75
(lp4060
g68
(g69
g70
NtRp4061
(dp4062
g73
(dp4063
g81
I1
ssg82
g4057
sg75
(lp4064
I00
asbasbasbag68
(g84
g70
NtRp4065
(dp4066
g73
(dp4067
sg82
g4036
sg75
(lp4068
g68
(g89
g70
NtRp4069
(dp4070
g73
(dp4071
sg82
g4065
sg75
(lp4072
g68
(g69
g70
NtRp4073
(dp4074
g73
(dp4075
g81
I1
ssg82
g4069
sg75
(lp4076
S'/admin/default/errors/datos'
p4077
asbasbasbasbasbasbasbag68
(g84
g70
NtRp4078
(dp4079
g73
(dp4080
sg82
g3642
sg75
(lp4081
g68
(g89
g70
NtRp4082
(dp4083
g73
(dp4084
sg82
g4078
sg75
(lp4085
g68
(g69
g70
NtRp4086
(dp4087
g73
(dp4088
g81
I2
ssg82
g4082
sg75
(lp4089
g68
(g77
g70
NtRp4090
(dp4091
g73
(dp4092
g81
I1
ssg82
Nsg75
(lp4093
g68
(g84
g70
NtRp4094
(dp4095
g73
(dp4096
sg82
g4090
sg75
(lp4097
g68
(g89
g70
NtRp4098
(dp4099
g73
(dp4100
sg82
g4094
sg75
(lp4101
g68
(g69
g70
NtRp4102
(dp4103
g73
(dp4104
g81
I1
ssg82
g4098
sg75
(lp4105
g3533
(S's\x05\x00\x00\x00About'
tRp4106
asbasbasbag68
(g84
g70
NtRp4107
(dp4108
g73
(dp4109
sg82
g4090
sg75
(lp4110
g68
(g89
g70
NtRp4111
(dp4112
g73
(dp4113
sg82
g4107
sg75
(lp4114
g68
(g69
g70
NtRp4115
(dp4116
g73
(dp4117
g81
I1
ssg82
g4111
sg75
(lp4118
I00
asbasbasbag68
(g84
g70
NtRp4119
(dp4120
g73
(dp4121
sg82
g4090
sg75
(lp4122
g68
(g89
g70
NtRp4123
(dp4124
g73
(dp4125
sg82
g4119
sg75
(lp4126
g68
(g69
g70
NtRp4127
(dp4128
g73
(dp4129
g81
I1
ssg82
g4123
sg75
(lp4130
S'/admin/default/about/datos'
p4131
asbasbasbasbasbasbasbasbasbasbasbasbasbasbasbag68
(g84
g70
NtRp4132
(dp4133
g73
(dp4134
sg82
g3501
sg75
(lp4135
g68
(g89
g70
NtRp4136
(dp4137
g73
(dp4138
sg82
g4132
sg75
(lp4139
g68
(g69
g70
NtRp4140
(dp4141
g73
(dp4142
g81
I4
ssg82
g4136
sg75
(lp4143
g68
(g77
g70
NtRp4144
(dp4145
g73
(dp4146
g81
I3
ssg82
Nsg75
(lp4147
g68
(g84
g70
NtRp4148
(dp4149
g73
(dp4150
sg82
g4144
sg75
(lp4151
g68
(g89
g70
NtRp4152
(dp4153
g73
(dp4154
sg82
g4148
sg75
(lp4155
g68
(g69
g70
NtRp4156
(dp4157
g73
(dp4158
g81
I3
ssg82
g4152
sg75
(lp4159
g3533
(S's\t\x00\x00\x00Resources'
tRp4160
asbasbasbag68
(g84
g70
NtRp4161
(dp4162
g73
(dp4163
sg82
g4144
sg75
(lp4164
g68
(g89
g70
NtRp4165
(dp4166
g73
(dp4167
sg82
g4161
sg75
(lp4168
g68
(g69
g70
NtRp4169
(dp4170
g73
(dp4171
g81
I3
ssg82
g4165
sg75
(lp4172
g111
asbasbasbag68
(g84
g70
NtRp4173
(dp4174
g73
(dp4175
sg82
g4144
sg75
(lp4176
g68
(g89
g70
NtRp4177
(dp4178
g73
(dp4179
sg82
g4173
sg75
(lp4180
g68
(g69
g70
NtRp4181
(dp4182
g73
(dp4183
g81
I3
ssg82
g4177
sg75
(lp4184
S'None'
p4185
asbasbasbag68
(g84
g70
NtRp4186
(dp4187
g73
(dp4188
sg82
g4144
sg75
(lp4189
g68
(g89
g70
NtRp4190
(dp4191
g73
(dp4192
sg82
g4186
sg75
(lp4193
g68
(g69
g70
NtRp4194
(dp4195
g73
(dp4196
g81
I3
ssg82
g4190
sg75
(lp4197
g68
(g77
g70
NtRp4198
(dp4199
g73
(dp4200
g81
I2
ssg82
Nsg75
(lp4201
g68
(g84
g70
NtRp4202
(dp4203
g73
(dp4204
sg82
g4198
sg75
(lp4205
g68
(g89
g70
NtRp4206
(dp4207
g73
(dp4208
sg82
g4202
sg75
(lp4209
g68
(g69
g70
NtRp4210
(dp4211
g73
(dp4212
g81
I2
ssg82
g4206
sg75
(lp4213
g68
(g77
g70
NtRp4214
(dp4215
g73
(dp4216
g81
I1
ssg82
Nsg75
(lp4217
g68
(g84
g70
NtRp4218
(dp4219
g73
(dp4220
sg82
g4214
sg75
(lp4221
g68
(g89
g70
NtRp4222
(dp4223
g73
(dp4224
sg82
g4218
sg75
(lp4225
g68
(g69
g70
NtRp4226
(dp4227
g73
(dp4228
g81
I1
ssg82
g4222
sg75
(lp4229
g3533
(S's\r\x00\x00\x00Documentation'
tRp4230
asbasbasbag68
(g84
g70
NtRp4231
(dp4232
g73
(dp4233
sg82
g4214
sg75
(lp4234
g68
(g89
g70
NtRp4235
(dp4236
g73
(dp4237
sg82
g4231
sg75
(lp4238
g68
(g69
g70
NtRp4239
(dp4240
g73
(dp4241
g81
I1
ssg82
g4235
sg75
(lp4242
I00
asbasbasbag68
(g84
g70
NtRp4243
(dp4244
g73
(dp4245
sg82
g4214
sg75
(lp4246
g68
(g89
g70
NtRp4247
(dp4248
g73
(dp4249
sg82
g4243
sg75
(lp4250
g68
(g69
g70
NtRp4251
(dp4252
g73
(dp4253
g81
I1
ssg82
g4247
sg75
(lp4254
S'http://www.web2py.com/book'
p4255
asbasbasbag68
(g84
g70
NtRp4256
(dp4257
g73
(dp4258
sg82
g4214
sg75
(lp4259
g68
(g89
g70
NtRp4260
(dp4261
g73
(dp4262
sg82
g4256
sg75
(lp4263
g68
(g69
g70
NtRp4264
(dp4265
g73
(dp4266
g81
I1
ssg82
g4260
sg75
(lp4267
(lp4268
(g3533
(S's\x07\x00\x00\x00Preface'
tRp4269
I00
S'http://www.web2py.com/book/default/chapter/00'
tp4270
a(g3533
(S's\x0c\x00\x00\x00Introduction'
tRp4271
I00
S'http://www.web2py.com/book/default/chapter/01'
tp4272
a(g3533
(S's\x06\x00\x00\x00Python'
tRp4273
I00
S'http://www.web2py.com/book/default/chapter/02'
tp4274
a(g3533
(S's\x08\x00\x00\x00Overview'
tRp4275
I00
S'http://www.web2py.com/book/default/chapter/03'
tp4276
a(g3533
(S's\x08\x00\x00\x00The Core'
tRp4277
I00
S'http://www.web2py.com/book/default/chapter/04'
tp4278
a(g3533
(S's\t\x00\x00\x00The Views'
tRp4279
I00
S'http://www.web2py.com/book/default/chapter/05'
tp4280
a(g3533
(S's\x08\x00\x00\x00Database'
tRp4281
I00
S'http://www.web2py.com/book/default/chapter/06'
tp4282
a(g3533
(S's\x14\x00\x00\x00Forms and Validators'
tRp4283
I00
S'http://www.web2py.com/book/default/chapter/07'
tp4284
a(g3533
(S's\x0e\x00\x00\x00Access Control'
tRp4285
I00
S'http://www.web2py.com/book/default/chapter/08'
tp4286
a(g3533
(S's\x08\x00\x00\x00Services'
tRp4287
I00
S'http://www.web2py.com/book/default/chapter/09'
tp4288
a(g3533
(S's\x0c\x00\x00\x00Ajax Recipes'
tRp4289
I00
S'http://www.web2py.com/book/default/chapter/10'
tp4290
a(g3533
(S's\x12\x00\x00\x00Deployment Recipes'
tRp4291
I00
S'http://www.web2py.com/book/default/chapter/11'
tp4292
a(g3533
(S's\r\x00\x00\x00Other Recipes'
tRp4293
I00
S'http://www.web2py.com/book/default/chapter/12'
tp4294
a(g3533
(S's\r\x00\x00\x00Buy this book'
tRp4295
I00
S'http://stores.lulu.com/web2py'
tp4296
aasbasbasbasbasbasbasbag68
(g84
g70
NtRp4297
(dp4298
g73
(dp4299
sg82
g4198
sg75
(lp4300
g68
(g89
g70
NtRp4301
(dp4302
g73
(dp4303
sg82
g4297
sg75
(lp4304
g68
(g69
g70
NtRp4305
(dp4306
g73
(dp4307
g81
I2
ssg82
g4301
sg75
(lp4308
g68
(g77
g70
NtRp4309
(dp4310
g73
(dp4311
g81
I1
ssg82
Nsg75
(lp4312
g68
(g84
g70
NtRp4313
(dp4314
g73
(dp4315
sg82
g4309
sg75
(lp4316
g68
(g89
g70
NtRp4317
(dp4318
g73
(dp4319
sg82
g4313
sg75
(lp4320
g68
(g69
g70
NtRp4321
(dp4322
g73
(dp4323
g81
I1
ssg82
g4317
sg75
(lp4324
g3533
(S's\t\x00\x00\x00Community'
tRp4325
asbasbasbag68
(g84
g70
NtRp4326
(dp4327
g73
(dp4328
sg82
g4309
sg75
(lp4329
g68
(g89
g70
NtRp4330
(dp4331
g73
(dp4332
sg82
g4326
sg75
(lp4333
g68
(g69
g70
NtRp4334
(dp4335
g73
(dp4336
g81
I1
ssg82
g4330
sg75
(lp4337
I00
asbasbasbag68
(g84
g70
NtRp4338
(dp4339
g73
(dp4340
sg82
g4309
sg75
(lp4341
g68
(g89
g70
NtRp4342
(dp4343
g73
(dp4344
sg82
g4338
sg75
(lp4345
g68
(g69
g70
NtRp4346
(dp4347
g73
(dp4348
g81
I1
ssg82
g4342
sg75
(lp4349
Nasbasbasbag68
(g84
g70
NtRp4350
(dp4351
g73
(dp4352
sg82
g4309
sg75
(lp4353
g68
(g89
g70
NtRp4354
(dp4355
g73
(dp4356
sg82
g4350
sg75
(lp4357
g68
(g69
g70
NtRp4358
(dp4359
g73
(dp4360
g81
I1
ssg82
g4354
sg75
(lp4361
(lp4362
(g3533
(S's\x06\x00\x00\x00Groups'
tRp4363
I00
S'http://www.web2py.com/examples/default/usergroups'
tp4364
a(g3533
(S's\x07\x00\x00\x00Twitter'
tRp4365
I00
S'http://twitter.com/web2py'
tp4366
a(g3533
(S's\t\x00\x00\x00Live chat'
tRp4367
I00
S'http://mibbit.com/?channel=%23web2py&server=irc.mibbit.net'
tp4368
a(g3533
(S's\n\x00\x00\x00User Voice'
tRp4369
I00
S'http://web2py.uservoice.com/'
tp4370
aasbasbasbasbasbasbasbag68
(g84
g70
NtRp4371
(dp4372
g73
(dp4373
sg82
g4198
sg75
(lp4374
g68
(g89
g70
NtRp4375
(dp4376
g73
(dp4377
sg82
g4371
sg75
(lp4378
g68
(g69
g70
NtRp4379
(dp4380
g73
(dp4381
g81
I2
ssg82
g4375
sg75
(lp4382
g68
(g77
g70
NtRp4383
(dp4384
g73
(dp4385
g81
I1
ssg82
Nsg75
(lp4386
g68
(g84
g70
NtRp4387
(dp4388
g73
(dp4389
sg82
g4383
sg75
(lp4390
g68
(g89
g70
NtRp4391
(dp4392
g73
(dp4393
sg82
g4387
sg75
(lp4394
g68
(g69
g70
NtRp4395
(dp4396
g73
(dp4397
g81
I1
ssg82
g4391
sg75
(lp4398
g3533
(S's\x06\x00\x00\x00Web2py'
tRp4399
asbasbasbag68
(g84
g70
NtRp4400
(dp4401
g73
(dp4402
sg82
g4383
sg75
(lp4403
g68
(g89
g70
NtRp4404
(dp4405
g73
(dp4406
sg82
g4400
sg75
(lp4407
g68
(g69
g70
NtRp4408
(dp4409
g73
(dp4410
g81
I1
ssg82
g4404
sg75
(lp4411
I00
asbasbasbag68
(g84
g70
NtRp4412
(dp4413
g73
(dp4414
sg82
g4383
sg75
(lp4415
g68
(g89
g70
NtRp4416
(dp4417
g73
(dp4418
sg82
g4412
sg75
(lp4419
g68
(g69
g70
NtRp4420
(dp4421
g73
(dp4422
g81
I1
ssg82
g4416
sg75
(lp4423
S'http://www.web2py.com'
p4424
asbasbasbag68
(g84
g70
NtRp4425
(dp4426
g73
(dp4427
sg82
g4383
sg75
(lp4428
g68
(g89
g70
NtRp4429
(dp4430
g73
(dp4431
sg82
g4425
sg75
(lp4432
g68
(g69
g70
NtRp4433
(dp4434
g73
(dp4435
g81
I1
ssg82
g4429
sg75
(lp4436
(lp4437
(g3533
(S's\x08\x00\x00\x00Download'
tRp4438
I00
S'http://www.web2py.com/examples/default/download'
tp4439
a(g3533
(S's\x07\x00\x00\x00Support'
tRp4440
I00
S'http://www.web2py.com/examples/default/support'
tp4441
a(g3533
(S's\x0e\x00\x00\x00Quick Examples'
tRp4442
I00
S'http://web2py.com/examples/default/examples'
tp4443
a(g3533
(S's\x03\x00\x00\x00FAQ'
tRp4444
I00
S'http://web2py.com/AlterEgo'
tp4445
a(g3533
(S's\x11\x00\x00\x00Free Applications'
tRp4446
I00
S'http://web2py.com/appliances'
tp4447
a(g3533
(S's\x07\x00\x00\x00Plugins'
tRp4448
I00
S'http://web2py.com/plugins'
tp4449
a(g3533
(S's\x07\x00\x00\x00Recipes'
tRp4450
I00
S'http://web2pyslices.com/'
tp4451
a(g3533
(S's\x04\x00\x00\x00Demo'
tRp4452
I00
S'http://web2py.com/demo_admin'
tp4453
a(g3533
(S's\x08\x00\x00\x00Semantic'
tRp4454
I00
S'http://web2py.com/semantic'
tp4455
a(g3533
(S's\x07\x00\x00\x00Layouts'
tRp4456
I00
S'http://web2py.com/layouts'
tp4457
a(g3533
(S's\x06\x00\x00\x00Videos'
tRp4458
I00
S'http://www.web2py.com/examples/default/videos/'
tp4459
aasbasbasbasbasbasbasbasbasbasbasbasbasbasbasbasbasbasbasbag68
(g84
g70
NtRp4460
(dp4461
g73
(dp4462
sg82
g3065
sg75
(lp4463
g68
(g89
g70
NtRp4464
(dp4465
g73
(dp4466
g93
g94
ssg82
g4460
sg75
(lp4467
S'meta'
p4468
asbag68
(g89
g70
NtRp4469
(dp4470
g73
(dp4471
g100
g101
ssg82
g4460
sg75
(lp4472
S':'
asbag68
(g89
g70
NtRp4473
(dp4474
g73
(dp4475
sg82
g4460
sg75
(lp4476
g68
(g69
g70
NtRp4477
(dp4478
g73
(dp4479
g81
I5
ssg82
g4473
sg75
(lp4480
g68
(g77
g70
NtRp4481
(dp4482
g73
(dp4483
g81
I4
ssg82
Nsg75
(lp4484
g68
(g84
g70
NtRp4485
(dp4486
g73
(dp4487
sg82
g4481
sg75
(lp4488
g68
(g89
g70
NtRp4489
(dp4490
g73
(dp4491
g93
g94
ssg82
g4485
sg75
(lp4492
S'author'
p4493
asbag68
(g89
g70
NtRp4494
(dp4495
g73
(dp4496
g100
g101
ssg82
g4485
sg75
(lp4497
S':'
asbag68
(g89
g70
NtRp4498
(dp4499
g73
(dp4500
sg82
g4485
sg75
(lp4501
g68
(g69
g70
NtRp4502
(dp4503
g73
(dp4504
g81
I4
ssg82
g4498
sg75
(lp4505
S'you'
p4506
asbasbasbag68
(g84
g70
NtRp4507
(dp4508
g73
(dp4509
sg82
g4481
sg75
(lp4510
g68
(g89
g70
NtRp4511
(dp4512
g73
(dp4513
g93
g94
ssg82
g4507
sg75
(lp4514
S'copyright'
p4515
asbag68
(g89
g70
NtRp4516
(dp4517
g73
(dp4518
g100
g101
ssg82
g4507
sg75
(lp4519
S':'
asbag68
(g89
g70
NtRp4520
(dp4521
g73
(dp4522
sg82
g4507
sg75
(lp4523
g68
(g69
g70
NtRp4524
(dp4525
g73
(dp4526
g81
I4
ssg82
g4520
sg75
(lp4527
S'Copyright 2007-2010'
p4528
asbasbasbag68
(g84
g70
NtRp4529
(dp4530
g73
(dp4531
sg82
g4481
sg75
(lp4532
g68
(g89
g70
NtRp4533
(dp4534
g73
(dp4535
g93
g94
ssg82
g4529
sg75
(lp4536
S'description'
p4537
asbag68
(g89
g70
NtRp4538
(dp4539
g73
(dp4540
g100
g101
ssg82
g4529
sg75
(lp4541
S':'
asbag68
(g89
g70
NtRp4542
(dp4543
g73
(dp4544
sg82
g4529
sg75
(lp4545
g68
(g69
g70
NtRp4546
(dp4547
g73
(dp4548
g81
I4
ssg82
g4542
sg75
(lp4549
S'Free and open source full-stack enterprise framework for agile development of fast, scalable, secure and portable database-driven web-based applications. Written and programmable in Python'
p4550
asbasbasbag68
(g84
g70
NtRp4551
(dp4552
g73
(dp4553
sg82
g4481
sg75
(lp4554
g68
(g89
g70
NtRp4555
(dp4556
g73
(dp4557
g93
g94
ssg82
g4551
sg75
(lp4558
S'generator'
p4559
asbag68
(g89
g70
NtRp4560
(dp4561
g73
(dp4562
g100
g101
ssg82
g4551
sg75
(lp4563
S':'
asbag68
(g89
g70
NtRp4564
(dp4565
g73
(dp4566
sg82
g4551
sg75
(lp4567
g68
(g69
g70
NtRp4568
(dp4569
g73
(dp4570
g81
I4
ssg82
g4564
sg75
(lp4571
S'Web2py Enterprise Framework'
p4572
asbasbasbag68
(g84
g70
NtRp4573
(dp4574
g73
(dp4575
sg82
g4481
sg75
(lp4576
g68
(g89
g70
NtRp4577
(dp4578
g73
(dp4579
g93
g94
ssg82
g4573
sg75
(lp4580
S'keywords'
p4581
asbag68
(g89
g70
NtRp4582
(dp4583
g73
(dp4584
g100
g101
ssg82
g4573
sg75
(lp4585
S':'
asbag68
(g89
g70
NtRp4586
(dp4587
g73
(dp4588
sg82
g4573
sg75
(lp4589
g68
(g69
g70
NtRp4590
(dp4591
g73
(dp4592
g81
I4
ssg82
g4586
sg75
(lp4593
S'web2py, python, framework'
p4594
asbasbasbasbasbasbasbag68
(g84
g70
NtRp4595
(dp4596
g73
(dp4597
sg82
g3065
sg75
(lp4598
g68
(g89
g70
NtRp4599
(dp4600
g73
(dp4601
g93
g94
ssg82
g4595
sg75
(lp4602
S'postprocessing'
p4603
asbag68
(g89
g70
NtRp4604
(dp4605
g73
(dp4606
g100
g101
ssg82
g4595
sg75
(lp4607
S':'
asbag68
(g89
g70
NtRp4608
(dp4609
g73
(dp4610
sg82
g4595
sg75
(lp4611
g68
(g69
g70
NtRp4612
(dp4613
g73
(dp4614
g81
I5
ssg82
g4608
sg75
(lp4615
g68
(g77
g70
NtRp4616
(dp4617
g73
(dp4618
g81
I4
ssg82
Nsg75
(lp4619
sbasbasbasbag68
(g84
g70
NtRp4620
(dp4621
g73
(dp4622
sg82
g3065
sg75
(lp4623
g68
(g89
g70
NtRp4624
(dp4625
g73
(dp4626
g93
g94
ssg82
g4620
sg75
(lp4627
S'session_file'
p4628
asbag68
(g89
g70
NtRp4629
(dp4630
g73
(dp4631
g100
g101
ssg82
g4620
sg75
(lp4632
S':'
asbag68
(g89
g70
NtRp4633
(dp4634
g73
(dp4635
sg82
g4620
sg75
(lp4636
g68
(g69
g70
NtRp4637
(dp4638
g73
(dp4639
g81
I5
ssg82
g4633
sg75
(lp4640
S"<open file '/home/alumno/web2py/applications/datos/sessions/127.0.0.1-46d2cb62-581d-41be-b0c5-47ee0f5ac400', mode 'rb+' at 0xa26e5f8>"
p4641
asbasbasbag68
(g84
g70
NtRp4642
(dp4643
g73
(dp4644
sg82
g3065
sg75
(lp4645
g68
(g89
g70
NtRp4646
(dp4647
g73
(dp4648
g93
g94
ssg82
g4642
sg75
(lp4649
S'session_filename'
p4650
asbag68
(g89
g70
NtRp4651
(dp4652
g73
(dp4653
g100
g101
ssg82
g4642
sg75
(lp4654
S':'
asbag68
(g89
g70
NtRp4655
(dp4656
g73
(dp4657
sg82
g4642
sg75
(lp4658
g68
(g69
g70
NtRp4659
(dp4660
g73
(dp4661
g81
I5
ssg82
g4655
sg75
(lp4662
S'/home/alumno/web2py/applications/datos/sessions/127.0.0.1-46d2cb62-581d-41be-b0c5-47ee0f5ac400'
p4663
asbasbasbag68
(g84
g70
NtRp4664
(dp4665
g73
(dp4666
sg82
g3065
sg75
(lp4667
g68
(g89
g70
NtRp4668
(dp4669
g73
(dp4670
g93
g94
ssg82
g4664
sg75
(lp4671
S'session_id'
p4672
asbag68
(g89
g70
NtRp4673
(dp4674
g73
(dp4675
g100
g101
ssg82
g4664
sg75
(lp4676
S':'
asbag68
(g89
g70
NtRp4677
(dp4678
g73
(dp4679
sg82
g4664
sg75
(lp4680
g68
(g69
g70
NtRp4681
(dp4682
g73
(dp4683
g81
I5
ssg82
g4677
sg75
(lp4684
S'127.0.0.1-46d2cb62-581d-41be-b0c5-47ee0f5ac400'
p4685
asbasbasbag68
(g84
g70
NtRp4686
(dp4687
g73
(dp4688
sg82
g3065
sg75
(lp4689
g68
(g89
g70
NtRp4690
(dp4691
g73
(dp4692
g93
g94
ssg82
g4686
sg75
(lp4693
S'session_id_name'
p4694
asbag68
(g89
g70
NtRp4695
(dp4696
g73
(dp4697
g100
g101
ssg82
g4686
sg75
(lp4698
S':'
asbag68
(g89
g70
NtRp4699
(dp4700
g73
(dp4701
sg82
g4686
sg75
(lp4702
g68
(g69
g70
NtRp4703
(dp4704
g73
(dp4705
g81
I5
ssg82
g4699
sg75
(lp4706
g3122
asbasbasbag68
(g84
g70
NtRp4707
(dp4708
g73
(dp4709
sg82
g3065
sg75
(lp4710
g68
(g89
g70
NtRp4711
(dp4712
g73
(dp4713
g93
g94
ssg82
g4707
sg75
(lp4714
S'session_locked'
p4715
asbag68
(g89
g70
NtRp4716
(dp4717
g73
(dp4718
g100
g101
ssg82
g4707
sg75
(lp4719
S':'
asbag68
(g89
g70
NtRp4720
(dp4721
g73
(dp4722
sg82
g4707
sg75
(lp4723
g68
(g69
g70
NtRp4724
(dp4725
g73
(dp4726
g81
I5
ssg82
g4720
sg75
(lp4727
g1964
asbasbasbag68
(g84
g70
NtRp4728
(dp4729
g73
(dp4730
sg82
g3065
sg75
(lp4731
g68
(g89
g70
NtRp4732
(dp4733
g73
(dp4734
g93
g94
ssg82
g4728
sg75
(lp4735
S'session_new'
p4736
asbag68
(g89
g70
NtRp4737
(dp4738
g73
(dp4739
g100
g101
ssg82
g4728
sg75
(lp4740
S':'
asbag68
(g89
g70
NtRp4741
(dp4742
g73
(dp4743
sg82
g4728
sg75
(lp4744
g68
(g69
g70
NtRp4745
(dp4746
g73
(dp4747
g81
I5
ssg82
g4741
sg75
(lp4748
g111
asbasbasbag68
(g84
g70
NtRp4749
(dp4750
g73
(dp4751
sg82
g3065
sg75
(lp4752
g68
(g89
g70
NtRp4753
(dp4754
g73
(dp4755
g93
g94
ssg82
g4749
sg75
(lp4756
S'status'
p4757
asbag68
(g89
g70
NtRp4758
(dp4759
g73
(dp4760
g100
g101
ssg82
g4749
sg75
(lp4761
S':'
asbag68
(g89
g70
NtRp4762
(dp4763
g73
(dp4764
sg82
g4749
sg75
(lp4765
g68
(g69
g70
NtRp4766
(dp4767
g73
(dp4768
g81
I5
ssg82
g4762
sg75
(lp4769
S'200'
p4770
asbasbasbag68
(g84
g70
NtRp4771
(dp4772
g73
(dp4773
sg82
g3065
sg75
(lp4774
g68
(g89
g70
NtRp4775
(dp4776
g73
(dp4777
g93
g94
ssg82
g4771
sg75
(lp4778
S'subtitle'
p4779
asbag68
(g89
g70
NtRp4780
(dp4781
g73
(dp4782
g100
g101
ssg82
g4771
sg75
(lp4783
S':'
asbag68
(g89
g70
NtRp4784
(dp4785
g73
(dp4786
sg82
g4771
sg75
(lp4787
g68
(g69
g70
NtRp4788
(dp4789
g73
(dp4790
g81
I5
ssg82
g4784
sg75
(lp4791
g3533
(S's\r\x00\x00\x00customize me!'
tRp4792
asbasbasbag68
(g84
g70
NtRp4793
(dp4794
g73
(dp4795
sg82
g3065
sg75
(lp4796
g68
(g89
g70
NtRp4797
(dp4798
g73
(dp4799
g93
g94
ssg82
g4793
sg75
(lp4800
S'title'
p4801
asbag68
(g89
g70
NtRp4802
(dp4803
g73
(dp4804
g100
g101
ssg82
g4793
sg75
(lp4805
S':'
asbag68
(g89
g70
NtRp4806
(dp4807
g73
(dp4808
sg82
g4793
sg75
(lp4809
g68
(g69
g70
NtRp4810
(dp4811
g73
(dp4812
g81
I5
ssg82
g4806
sg75
(lp4813
g133
asbasbasbag68
(g84
g70
NtRp4814
(dp4815
g73
(dp4816
sg82
g3065
sg75
(lp4817
g68
(g89
g70
NtRp4818
(dp4819
g73
(dp4820
g93
g94
ssg82
g4814
sg75
(lp4821
g2309
asbag68
(g89
g70
NtRp4822
(dp4823
g73
(dp4824
g100
g101
ssg82
g4814
sg75
(lp4825
S':'
asbag68
(g89
g70
NtRp4826
(dp4827
g73
(dp4828
sg82
g4814
sg75
(lp4829
g68
(g69
g70
NtRp4830
(dp4831
g73
(dp4832
g81
I5
ssg82
g4826
sg75
(lp4833
g2322
asbasbasbag68
(g84
g70
NtRp4834
(dp4835
g73
(dp4836
sg82
g3065
sg75
(lp4837
g68
(g89
g70
NtRp4838
(dp4839
g73
(dp4840
g93
g94
ssg82
g4834
sg75
(lp4841
S'view'
p4842
asbag68
(g89
g70
NtRp4843
(dp4844
g73
(dp4845
g100
g101
ssg82
g4834
sg75
(lp4846
S':'
asbag68
(g89
g70
NtRp4847
(dp4848
g73
(dp4849
sg82
g4834
sg75
(lp4850
g68
(g69
g70
NtRp4851
(dp4852
g73
(dp4853
g81
I5
ssg82
g4847
sg75
(lp4854
S'default/detalle.html'
p4855
asbasbasbasbasbsS'locals'
p4856
(dp4857
g3
S"'/home/alumno/web2py/applications/datos/views/default/detalle.html'"
p4858
sg5
S'\'response.write(\\\'<!DOCTYPE html>\\\\n<html lang="\\\', ...t   -->    \\\\n  </body>\\\\n</html>\\\\n\\\', escape=False)\''
p4859
sssS'traceback'
p4860
S'Traceback (most recent call last):\n  File "/home/alumno/web2py/gluon/restricted.py", line 191, in restricted\n    ccode = compile2(code,layer)\n  File "/home/alumno/web2py/gluon/restricted.py", line 178, in compile2\n    return compile(code.rstrip().replace(\'\\r\\n\',\'\\n\')+\'\\n\', layer, \'exec\')\n  File "/home/alumno/web2py/applications/datos/views/default/detalle.html", line 133\n    for datos in curso\n                     ^\nSyntaxError: invalid syntax\n'
p4861
s.