(dp1
S'output'
p2
S''
sS'layer'
p3
S'/home/alumno/web2py/applications/datos/views/default/index.html'
p4
sS'code'
p5
S'response.write(\'<!DOCTYPE html>\\n<html lang="\', escape=False)\nresponse.write(T.accepted_language or \'en\')\nresponse.write(\'" class="no-js"><!-- no-js need it for modernzr -->\\n  <head>\\n    \\n    <meta charset="utf-8" />\\t  \\t\\n    <!-- www.phpied.com/conditional-comments-block-downloads/ -->\\n    <!--[if IE]><![endif]-->    \\n    <!-- Always force latest IE rendering engine \\n\\t (even in intranet) & Chrome Frame \\n\\t Remove this if you use the .htaccess -->\\n    <meta http-equiv="X-UA-Compatible" content="IE=edge,chrome=1">\\n    \\n    <title>\', escape=False)\nresponse.write(response.title or request.application)\nresponse.write(\'</title>\\n    \\n    <!-- http://dev.w3.org/html5/markup/meta.name.html -->\\n    <meta name="application-name" content="\', escape=False)\nresponse.write(request.application)\nresponse.write(\'" />\\t\\n    \\n    <!-- Speaking of Google, don\\\'t forget to set your site up: \\n\\t http://google.com/webmasters -->\\n    <meta name="google-site-verification" content="" />\\n    \\n    <!--  Mobile Viewport Fix\\n\\t  j.mp/mobileviewport & davidbcalhoun.com/2010/viewport-metatag \\n\\t  device-width: Occupy full width of the screen in its current orientation\\n\\t  initial-scale = 1.0 retains dimensions instead of zooming out if page height > device height\\n\\t  maximum-scale = 1.0 retains dimensions instead of zooming in if page width < device width\\n      -->\\n    <meta name="viewport" content="width=device-width; initial-scale=1.0; maximum-scale=1.0">\\n    \\n    <!-- Place favicon.ico and apple-touch-icon.png in the root of your domain and delete these references -->\\n    <link rel="shortcut icon" href="\', escape=False)\nresponse.write(URL(\'static\',\'favicon.ico\'))\nresponse.write(\'" type="image/x-icon">\\n    <link rel="apple-touch-icon" href="\', escape=False)\nresponse.write(URL(\'static\',\'favicon.png\'))\nresponse.write(\'">\\n\\n    <!-- For the less-enabled mobile browsers like Opera Mini -->\\n    <link rel="stylesheet" media="handheld" href="\', escape=False)\nresponse.write(URL(\'static\',\'css/handheld.css\'))\nresponse.write(\'">\\n    \\n    <!-- All JavaScript at the bottom, except for Modernizr which enables HTML5 elements & feature detects -->\\n    <script src="\', escape=False)\nresponse.write(URL(\'static\',\'js/modernizr-1.7.min.js\'))\nresponse.write(\'"></script>\\n    \\n    \', escape=False)\n#------  require CSS and JS files for this page (read info in base.css) ------\nresponse.write(\'\\n    \', escape=False)\nresponse.files.append(URL(\'static\',\'css/base.css\'))\nresponse.write(\'\\n    \', escape=False)\nresponse.files.append(URL(\'static\',\'css/superfish.css\'))\nresponse.write(\'\\n    \', escape=False)\nresponse.files.append(URL(\'static\',\'js/superfish.js\'))\nresponse.write(\'\\n    \', escape=False)\n#------ include web2py specific js code (jquery, calendar, form stuff) ------\nresponse.write(\'\\n    \', escape=False)\nresponse.files.insert(0,URL(\'static\',\'js/jquery.js\'))\nresponse.files.insert(1,URL(\'static\',\'css/calendar.css\'))\nresponse.files.insert(2,URL(\'static\',\'js/calendar.js\'))\nfor _item in response.meta or []:\n    response.write(\'\\n     <meta name="\', escape=False)\n    response.write(_item)\n    response.write(\'" content="\', escape=False)\n    response.write(response.meta[_item])\n    response.write(\'" />\', escape=False)\n    pass\nfor _k,_file in enumerate(response.files or []):\n    if _file in response.files[:_k]:\n        continue\n    _file0=_file.lower().split(\'?\')[0]\n    if _file0.endswith(\'.css\'):\n        response.write(\'\\n     <link href="\', escape=False)\n        response.write(_file)\n        response.write(\'" rel="stylesheet" type="text/css" />\', escape=False)\n    elif _file0.endswith(\'.js\'):\n        response.write(\'\\n     <script src="\', escape=False)\n        response.write(_file)\n        response.write(\'" type="text/javascript"></script>\', escape=False)\n        pass\n    pass\nresponse.write(\'\\n    <script type="text/javascript"><!--\\n    // These variables are used by the web2py_ajax_init function in web2py_ajax.js (which is loaded below).\\n    var w2p_ajax_confirm_message = "\', escape=False)\nresponse.write(T(\'Are you sure you want to delete this object?\'))\nresponse.write(\'";\\n    var w2p_ajax_date_format = "\', escape=False)\nresponse.write(T(\'%Y-%m-%d\'))\nresponse.write(\'";\\n    var w2p_ajax_datetime_format = "\', escape=False)\nresponse.write(T(\'%Y-%m-%d %H:%M:%S\'))\nresponse.write(\'";\\n    //--></script>\\n    <script src="\', escape=False)\nresponse.write(URL(\'static\',\'js/web2py_ajax.js\'))\nresponse.write(\'" type="text/javascript"></script>\\n\', escape=False)\nresponse.write(\'\\n\\n    \', escape=False)\n#using sidebars need to know what sidebar you want to use\n#prior of using it, because of static width size of content, you can use\n#left_sidebar, right_sidebar, both or none (False left and right)\nleft_sidebar_enabled = globals().get(\'left_sidebar_enabled\',False)\nright_sidebar_enabled = globals().get(\'right_sidebar_enabled\',False)\nif left_sidebar_enabled and right_sidebar_enabled: width_content=\'63%\'\nelif left_sidebar_enabled != right_sidebar_enabled: width_content=\'740px\'\nelse: width_content=\'100%\'\nif left_sidebar_enabled: left_sidebar_style = \'style="display: block;"\'\nelse: left_sidebar_style = \'style="display: none;"\'\nif right_sidebar_enabled: right_sidebar_style = \'style="display: block;"\'\nelse: right_sidebar_style = \'style="display: none;"\'\nstyle_content = \'style="width: %s"\' % width_content\nresponse.write(\'\\n  </head>\\n  \\n  <!-- paulirish.com/2008/conditional-stylesheets-vs-css-hacks-answer-neither/ -->\\t\\n  <!--[if lt IE 7 ]> <body class="ie6"> <![endif]-->\\n  <!--[if IE 7 ]>    <body class="ie7"> <![endif]-->\\n  <!--[if IE 8 ]>    <body class="ie8"> <![endif]-->\\n  <!--[if IE 9 ]>    <body class="ie9"> <![endif]-->\\n  <!--[if (gt IE 9)|!(IE)]><!--> <body> <!--<![endif]-->\\n    \\n    <div class="flash">\', escape=False)\nresponse.write(response.flash or \'\')\nresponse.write(\'</div> <!-- notification div -->\\n    \\n    <div id="container">\\t      \\t\\t      \\t\\n      \\n      <div id="wrapper">\\t\\t\\n\\t\\n\\t<div id="header"> <!-- header and login nav -->\\n\\t  \', escape=False)\nresponse.write(\' <!-- this is default header -->\\n\\t  \', escape=False)\ntry:\n    response.write(auth.navbar(action=URL(\'default\',\'user\')))\nexcept:pass\nresponse.write(\'\\t\\t          \\n\\t  <h1><span id="appname">\', escape=False)\nresponse.write(request.application.capitalize())\nresponse.write(\'</span>App</h1>\\n\\t  <div style="clear: both;"></div><!-- Clear the divs -->\\n\\t  \', escape=False)\nresponse.write(\'\\t\\t\\t\\t  \\t\\t\\t\\t\\t  \\n\\t</div><!-- header  -->\\n\\t\\n\\t<div id="statusbar"><!-- statusbar is menu zone -->\\n\\t  \', escape=False)\nresponse.write(\' <!-- this is default statusbar -->\\n\\t  \', escape=False)\n#------ superfish menu ------\nresponse.write(\'\\n\\t  \', escape=False)\nresponse.write(MENU(response.menu,_class=\'sf-menu\'))\nresponse.write(\'\\n\\t  <script type="text/javascript">\\n\\t    jQuery(document).ready(function(){\\n\\t    jQuery(\\\'ul.sf-menu\\\').superfish();});\\n\\t  </script>\\n\\t  <div style="clear: both;"></div><!-- Clear the divs -->\\t\\n\\t  \', escape=False)\nresponse.write(\'\\t\\t\\t\\t\\n\\t</div><!-- statusbar -->\\n\\t\\n\\t<div id="page"> <!-- Here my central body -->\\t  \\n\\n\\t  \', escape=False)\nif left_sidebar_enabled:\n    response.write(\'\\n          <div id="left_sidebar" \', escape=False)\n    response.write(XML(left_sidebar_style))\n    response.write(\' >\\n            <div style="padding: 4px;">\\n\\t      \', escape=False)\n    response.write(\'Content Left Sidebar\', escape=False)\n    response.write(\'\\t\\t  \\n            </div>\\n          </div><!-- left_sidebar -->\\n\\t  \', escape=False)\n    pass\nresponse.write(\'\\n\\n\\t  <!-- content -->\\n\\t  <div id="content" \', escape=False)\nresponse.write(XML(style_content))\nresponse.write(\' >\\n\\t    \', escape=False)\nresponse.write(\'\\n<h1>Alumnos</h1>\\n<p>este es el registro de alumnos en el sistema\\n\\n\', escape=False)\nfor alumno in alumnos:\n    response.write("\\n    <ul>\\n    <li><a href=\'detalle/", escape=False)\n    response.write(alumno.codigo)\n    response.write("\'>", escape=False)\n    response.write(alumno.nombre)\n    response.write(\' \', escape=False)\n    response.write(alumno.apellidos)\n    response.write(\'</a></li>\\n    <hr>\\n    </ul>    \\n\', escape=False)\n    pass\nresponse.write(\'\\n</p>\\n<h1>Profesores</h1>\\n\\n<p>este es el registro de profesores en el sistema\\n\\n\', escape=False)\nfor profesor in profesores:\n    response.write("\\n    <ul>\\n    <li><a href=\'detalle/", escape=False)\n    response.write(profesor.codigo)\n    response.write("\'>", escape=False)\n    response.write(profesor.nombre_completo)\n    response.write(\' \', escape=False)\n    response.write(profesor.especialidad)\n    response.write(\'</a></li>\\n    <hr>\\n    </ul>\\n\', escape=False)\n    pass\nresponse.write(\'    \\n\\n</p>\\n\', escape=False)\nresponse.write(\'\\t\\n\\t  </div>\\n\\t  <!-- content -->\\n\\n\\t  \', escape=False)\nif right_sidebar_enabled:\n    response.write(\'\\n          <div id="right_sidebar" \', escape=False)\n    response.write(XML(right_sidebar_style))\n    response.write(\' >\\n            <div style="padding: 4px;">\\n              \', escape=False)\n    response.write(\'Content Right Sidebar\', escape=False)\n    response.write(\'\\n            </div>\\n\\t  </div><!-- right_sidebar -->\\n          \', escape=False)\n    pass\nresponse.write(\'\\n\\n\\n\\t  <div style="clear: both;"></div><!-- Clear the divs -->\\n\\t  \\n\\t</div><!-- page -->\\t\\t\\t\\t\\t\\t\\t\\n\\t\\n\\t<div id="footer">\\n\\t  \', escape=False)\nresponse.write(\' <!-- this is default footer -->\\n\\t  <a href="http://www.web2py.com/" style="float: left; padding-right: 6px;">\\n\\t    <img src="\', escape=False)\nresponse.write(URL(\'static\',\'images/poweredby.png\'))\nresponse.write(\'"/>\\n\\t  </a>\\n\\t  \', escape=False)\nresponse.write(T(\'Copyright\'))\nresponse.write(\' &#169; 2010\\t\\t\\t\\t\\n\\t  <div style="clear: both;"></div><!-- Clear the divs -->\\n\\t  \', escape=False)\nresponse.write(\'\\n\\n\\t</div><!-- footer -->\\t\\t\\t\\n      </div><!-- wrapper -->\\n    </div><!-- container -->\\t\\t\\n    \\n    <!--[if lt IE 7 ]>\\n\\t<script src="\', escape=False)\nresponse.write(URL(\'static\',\'js/dd_belatedpng.js\'))\nresponse.write(\'"></script>\\n\\t<script> DD_belatedPNG.fix(\\\'img, .png_bg\\\'); //fix any <img> or .png_bg background-images </script>\\n\\t<![endif]-->\\n    \\n    <!-- asynchronous google analytics: mathiasbynens.be/notes/async-analytics-snippet \\n\\t change the UA-XXXXX-X to be your site\\\'s ID -->\\n    <!--   \\n\\t   <script>\\n\\t     var _gaq = [[\\\'_setAccount\\\', \\\'UA-XXXXX-X\\\'], [\\\'_trackPageview\\\']];\\n\\t     (function(d, t) {\\n\\t     var g = d.createElement(t),\\n\\t     s = d.getElementsByTagName(t)[0];\\n\\t     g.async = true;\\n\\t     g.src = \\\'//www.google-analytics.com/ga.js\\\';\\n\\t     s.parentNode.insertBefore(g, s);\\n\\t     })(document, \\\'script\\\');\\n\\t   </script>\\n\\t   -->    \\n  </body>\\n</html>\\n\', escape=False)'
p6
sS'snapshot'
p7
(dp8
S'exception'
p9
(dp10
S'__hash__'
p11
S"<method-wrapper '__hash__' of exceptions.NameError object>"
p12
sS'__setattr__'
p13
S"<method-wrapper '__setattr__' of exceptions.NameError object>"
p14
sS'__reduce_ex__'
p15
S'<built-in method __reduce_ex__ of exceptions.NameError object>'
p16
sS'__getslice__'
p17
S"<method-wrapper '__getslice__' of exceptions.NameError object>"
p18
sS'__getitem__'
p19
S"<method-wrapper '__getitem__' of exceptions.NameError object>"
p20
sS'__setstate__'
p21
S'<built-in method __setstate__ of exceptions.NameError object>'
p22
sS'__reduce__'
p23
S'<built-in method __reduce__ of exceptions.NameError object>'
p24
sS'__str__'
p25
S"<method-wrapper '__str__' of exceptions.NameError object>"
p26
sS'__format__'
p27
S'<built-in method __format__ of exceptions.NameError object>'
p28
sS'__getattribute__'
p29
S"<method-wrapper '__getattribute__' of exceptions.NameError object>"
p30
sS'__class__'
p31
S"<type 'exceptions.NameError'>"
p32
sS'__unicode__'
p33
S'<built-in method __unicode__ of exceptions.NameError object>'
p34
sS'__delattr__'
p35
S"<method-wrapper '__delattr__' of exceptions.NameError object>"
p36
sS'__subclasshook__'
p37
S'<built-in method __subclasshook__ of type object>'
p38
sS'__repr__'
p39
S"<method-wrapper '__repr__' of exceptions.NameError object>"
p40
sS'args'
p41
S'("name \'profesores\' is not defined",)'
p42
sS'__dict__'
p43
S'{}'
p44
sS'__sizeof__'
p45
S'<built-in method __sizeof__ of exceptions.NameError object>'
p46
sS'__doc__'
p47
S"'Name not found globally.'"
p48
sS'__init__'
p49
S"<method-wrapper '__init__' of exceptions.NameError object>"
p50
sS'__new__'
p51
S'<built-in method __new__ of type object>'
p52
ssS'evalue'
p53
S"name 'profesores' is not defined"
p54
sS'request'
p55
ccopy_reg
_reconstructor
p56
(cgluon.html
BEAUTIFY
p57
c__builtin__
object
p58
NtRp59
(dp60
S'attributes'
p61
(dp62
sS'components'
p63
(lp64
g56
(cgluon.html
TABLE
p65
g58
NtRp66
(dp67
g61
(dp68
S'level'
p69
I5
ssS'parent'
p70
Nsg63
(lp71
g56
(cgluon.html
TR
p72
g58
NtRp73
(dp74
g61
(dp75
sg70
g66
sg63
(lp76
g56
(cgluon.html
TD
p77
g58
NtRp78
(dp79
g61
(dp80
S'_style'
p81
S'font-weight:bold;'
p82
ssg70
g73
sg63
(lp83
S'ajax'
p84
asbag56
(g77
g58
NtRp85
(dp86
g61
(dp87
S'_valign'
p88
S'top'
p89
ssg70
g73
sg63
(lp90
S':'
asbag56
(g77
g58
NtRp91
(dp92
g61
(dp93
sg70
g73
sg63
(lp94
g56
(g57
g58
NtRp95
(dp96
g61
(dp97
g69
I5
ssg70
g91
sg63
(lp98
S'False'
p99
asbasbasbag56
(g72
g58
NtRp100
(dp101
g61
(dp102
sg70
g66
sg63
(lp103
g56
(g77
g58
NtRp104
(dp105
g61
(dp106
g81
g82
ssg70
g100
sg63
(lp107
S'application'
p108
asbag56
(g77
g58
NtRp109
(dp110
g61
(dp111
g88
g89
ssg70
g100
sg63
(lp112
S':'
asbag56
(g77
g58
NtRp113
(dp114
g61
(dp115
sg70
g100
sg63
(lp116
g56
(g57
g58
NtRp117
(dp118
g61
(dp119
g69
I5
ssg70
g113
sg63
(lp120
S'datos'
p121
asbasbasbag56
(g72
g58
NtRp122
(dp123
g61
(dp124
sg70
g66
sg63
(lp125
g56
(g77
g58
NtRp126
(dp127
g61
(dp128
g81
g82
ssg70
g122
sg63
(lp129
g41
asbag56
(g77
g58
NtRp130
(dp131
g61
(dp132
g88
g89
ssg70
g122
sg63
(lp133
S':'
asbag56
(g77
g58
NtRp134
(dp135
g61
(dp136
sg70
g122
sg63
(lp137
g56
(g57
g58
NtRp138
(dp139
g61
(dp140
g69
I5
ssg70
g134
sg63
(lp141
g56
(g65
g58
NtRp142
(dp143
g61
(dp144
g69
I4
ssg70
Nsg63
(lp145
sbasbasbasbag56
(g72
g58
NtRp146
(dp147
g61
(dp148
sg70
g66
sg63
(lp149
g56
(g77
g58
NtRp150
(dp151
g61
(dp152
g81
g82
ssg70
g146
sg63
(lp153
S'body'
p154
asbag56
(g77
g58
NtRp155
(dp156
g61
(dp157
g88
g89
ssg70
g146
sg63
(lp158
S':'
asbag56
(g77
g58
NtRp159
(dp160
g61
(dp161
sg70
g146
sg63
(lp162
g56
(g57
g58
NtRp163
(dp164
g61
(dp165
g69
I5
ssg70
g159
sg63
(lp166
S'<cStringIO.StringO object at 0x9190d00>'
p167
asbasbasbag56
(g72
g58
NtRp168
(dp169
g61
(dp170
sg70
g66
sg63
(lp171
g56
(g77
g58
NtRp172
(dp173
g61
(dp174
g81
g82
ssg70
g168
sg63
(lp175
S'client'
p176
asbag56
(g77
g58
NtRp177
(dp178
g61
(dp179
g88
g89
ssg70
g168
sg63
(lp180
S':'
asbag56
(g77
g58
NtRp181
(dp182
g61
(dp183
sg70
g168
sg63
(lp184
g56
(g57
g58
NtRp185
(dp186
g61
(dp187
g69
I5
ssg70
g181
sg63
(lp188
S'127.0.0.1'
p189
asbasbasbag56
(g72
g58
NtRp190
(dp191
g61
(dp192
sg70
g66
sg63
(lp193
g56
(g77
g58
NtRp194
(dp195
g61
(dp196
g81
g82
ssg70
g190
sg63
(lp197
S'controller'
p198
asbag56
(g77
g58
NtRp199
(dp200
g61
(dp201
g88
g89
ssg70
g190
sg63
(lp202
S':'
asbag56
(g77
g58
NtRp203
(dp204
g61
(dp205
sg70
g190
sg63
(lp206
g56
(g57
g58
NtRp207
(dp208
g61
(dp209
g69
I5
ssg70
g203
sg63
(lp210
S'default'
p211
asbasbasbag56
(g72
g58
NtRp212
(dp213
g61
(dp214
sg70
g66
sg63
(lp215
g56
(g77
g58
NtRp216
(dp217
g61
(dp218
g81
g82
ssg70
g212
sg63
(lp219
S'cookies'
p220
asbag56
(g77
g58
NtRp221
(dp222
g61
(dp223
g88
g89
ssg70
g212
sg63
(lp224
S':'
asbag56
(g77
g58
NtRp225
(dp226
g61
(dp227
sg70
g212
sg63
(lp228
g56
(g57
g58
NtRp229
(dp230
g61
(dp231
g69
I5
ssg70
g225
sg63
(lp232
g56
(g65
g58
NtRp233
(dp234
g61
(dp235
g69
I4
ssg70
Nsg63
(lp236
g56
(g72
g58
NtRp237
(dp238
g61
(dp239
sg70
g233
sg63
(lp240
g56
(g77
g58
NtRp241
(dp242
g61
(dp243
g81
g82
ssg70
g237
sg63
(lp244
S'adminLanguage'
p245
asbag56
(g77
g58
NtRp246
(dp247
g61
(dp248
g88
g89
ssg70
g237
sg63
(lp249
S':'
asbag56
(g77
g58
NtRp250
(dp251
g61
(dp252
sg70
g237
sg63
(lp253
g56
(g57
g58
NtRp254
(dp255
g61
(dp256
g69
I4
ssg70
g250
sg63
(lp257
g56
(g65
g58
NtRp258
(dp259
g61
(dp260
g69
I3
ssg70
Nsg63
(lp261
g56
(g72
g58
NtRp262
(dp263
g61
(dp264
sg70
g258
sg63
(lp265
g56
(g77
g58
NtRp266
(dp267
g61
(dp268
g81
g82
ssg70
g262
sg63
(lp269
S'comment'
p270
asbag56
(g77
g58
NtRp271
(dp272
g61
(dp273
g88
g89
ssg70
g262
sg63
(lp274
S':'
asbag56
(g77
g58
NtRp275
(dp276
g61
(dp277
sg70
g262
sg63
(lp278
g56
(g57
g58
NtRp279
(dp280
g61
(dp281
g69
I3
ssg70
g275
sg63
(lp282
S''
asbasbasbag56
(g72
g58
NtRp283
(dp284
g61
(dp285
sg70
g258
sg63
(lp286
g56
(g77
g58
NtRp287
(dp288
g61
(dp289
g81
g82
ssg70
g283
sg63
(lp290
S'domain'
p291
asbag56
(g77
g58
NtRp292
(dp293
g61
(dp294
g88
g89
ssg70
g283
sg63
(lp295
S':'
asbag56
(g77
g58
NtRp296
(dp297
g61
(dp298
sg70
g283
sg63
(lp299
g56
(g57
g58
NtRp300
(dp301
g61
(dp302
g69
I3
ssg70
g296
sg63
(lp303
S''
asbasbasbag56
(g72
g58
NtRp304
(dp305
g61
(dp306
sg70
g258
sg63
(lp307
g56
(g77
g58
NtRp308
(dp309
g61
(dp310
g81
g82
ssg70
g304
sg63
(lp311
S'expires'
p312
asbag56
(g77
g58
NtRp313
(dp314
g61
(dp315
g88
g89
ssg70
g304
sg63
(lp316
S':'
asbag56
(g77
g58
NtRp317
(dp318
g61
(dp319
sg70
g304
sg63
(lp320
g56
(g57
g58
NtRp321
(dp322
g61
(dp323
g69
I3
ssg70
g317
sg63
(lp324
S''
asbasbasbag56
(g72
g58
NtRp325
(dp326
g61
(dp327
sg70
g258
sg63
(lp328
g56
(g77
g58
NtRp329
(dp330
g61
(dp331
g81
g82
ssg70
g325
sg63
(lp332
S'httponly'
p333
asbag56
(g77
g58
NtRp334
(dp335
g61
(dp336
g88
g89
ssg70
g325
sg63
(lp337
S':'
asbag56
(g77
g58
NtRp338
(dp339
g61
(dp340
sg70
g325
sg63
(lp341
g56
(g57
g58
NtRp342
(dp343
g61
(dp344
g69
I3
ssg70
g338
sg63
(lp345
S''
asbasbasbag56
(g72
g58
NtRp346
(dp347
g61
(dp348
sg70
g258
sg63
(lp349
g56
(g77
g58
NtRp350
(dp351
g61
(dp352
g81
g82
ssg70
g346
sg63
(lp353
S'max-age'
p354
asbag56
(g77
g58
NtRp355
(dp356
g61
(dp357
g88
g89
ssg70
g346
sg63
(lp358
S':'
asbag56
(g77
g58
NtRp359
(dp360
g61
(dp361
sg70
g346
sg63
(lp362
g56
(g57
g58
NtRp363
(dp364
g61
(dp365
g69
I3
ssg70
g359
sg63
(lp366
S''
asbasbasbag56
(g72
g58
NtRp367
(dp368
g61
(dp369
sg70
g258
sg63
(lp370
g56
(g77
g58
NtRp371
(dp372
g61
(dp373
g81
g82
ssg70
g367
sg63
(lp374
S'path'
p375
asbag56
(g77
g58
NtRp376
(dp377
g61
(dp378
g88
g89
ssg70
g367
sg63
(lp379
S':'
asbag56
(g77
g58
NtRp380
(dp381
g61
(dp382
sg70
g367
sg63
(lp383
g56
(g57
g58
NtRp384
(dp385
g61
(dp386
g69
I3
ssg70
g380
sg63
(lp387
S''
asbasbasbag56
(g72
g58
NtRp388
(dp389
g61
(dp390
sg70
g258
sg63
(lp391
g56
(g77
g58
NtRp392
(dp393
g61
(dp394
g81
g82
ssg70
g388
sg63
(lp395
S'secure'
p396
asbag56
(g77
g58
NtRp397
(dp398
g61
(dp399
g88
g89
ssg70
g388
sg63
(lp400
S':'
asbag56
(g77
g58
NtRp401
(dp402
g61
(dp403
sg70
g388
sg63
(lp404
g56
(g57
g58
NtRp405
(dp406
g61
(dp407
g69
I3
ssg70
g401
sg63
(lp408
S''
asbasbasbag56
(g72
g58
NtRp409
(dp410
g61
(dp411
sg70
g258
sg63
(lp412
g56
(g77
g58
NtRp413
(dp414
g61
(dp415
g81
g82
ssg70
g409
sg63
(lp416
S'version'
p417
asbag56
(g77
g58
NtRp418
(dp419
g61
(dp420
g88
g89
ssg70
g409
sg63
(lp421
S':'
asbag56
(g77
g58
NtRp422
(dp423
g61
(dp424
sg70
g409
sg63
(lp425
g56
(g57
g58
NtRp426
(dp427
g61
(dp428
g69
I3
ssg70
g422
sg63
(lp429
S''
asbasbasbasbasbasbasbag56
(g72
g58
NtRp430
(dp431
g61
(dp432
sg70
g233
sg63
(lp433
g56
(g77
g58
NtRp434
(dp435
g61
(dp436
g81
g82
ssg70
g430
sg63
(lp437
S'session_id_admin'
p438
asbag56
(g77
g58
NtRp439
(dp440
g61
(dp441
g88
g89
ssg70
g430
sg63
(lp442
S':'
asbag56
(g77
g58
NtRp443
(dp444
g61
(dp445
sg70
g430
sg63
(lp446
g56
(g57
g58
NtRp447
(dp448
g61
(dp449
g69
I4
ssg70
g443
sg63
(lp450
g56
(g65
g58
NtRp451
(dp452
g61
(dp453
g69
I3
ssg70
Nsg63
(lp454
g56
(g72
g58
NtRp455
(dp456
g61
(dp457
sg70
g451
sg63
(lp458
g56
(g77
g58
NtRp459
(dp460
g61
(dp461
g81
g82
ssg70
g455
sg63
(lp462
g270
asbag56
(g77
g58
NtRp463
(dp464
g61
(dp465
g88
g89
ssg70
g455
sg63
(lp466
S':'
asbag56
(g77
g58
NtRp467
(dp468
g61
(dp469
sg70
g455
sg63
(lp470
g56
(g57
g58
NtRp471
(dp472
g61
(dp473
g69
I3
ssg70
g467
sg63
(lp474
S''
asbasbasbag56
(g72
g58
NtRp475
(dp476
g61
(dp477
sg70
g451
sg63
(lp478
g56
(g77
g58
NtRp479
(dp480
g61
(dp481
g81
g82
ssg70
g475
sg63
(lp482
g291
asbag56
(g77
g58
NtRp483
(dp484
g61
(dp485
g88
g89
ssg70
g475
sg63
(lp486
S':'
asbag56
(g77
g58
NtRp487
(dp488
g61
(dp489
sg70
g475
sg63
(lp490
g56
(g57
g58
NtRp491
(dp492
g61
(dp493
g69
I3
ssg70
g487
sg63
(lp494
S''
asbasbasbag56
(g72
g58
NtRp495
(dp496
g61
(dp497
sg70
g451
sg63
(lp498
g56
(g77
g58
NtRp499
(dp500
g61
(dp501
g81
g82
ssg70
g495
sg63
(lp502
g312
asbag56
(g77
g58
NtRp503
(dp504
g61
(dp505
g88
g89
ssg70
g495
sg63
(lp506
S':'
asbag56
(g77
g58
NtRp507
(dp508
g61
(dp509
sg70
g495
sg63
(lp510
g56
(g57
g58
NtRp511
(dp512
g61
(dp513
g69
I3
ssg70
g507
sg63
(lp514
S''
asbasbasbag56
(g72
g58
NtRp515
(dp516
g61
(dp517
sg70
g451
sg63
(lp518
g56
(g77
g58
NtRp519
(dp520
g61
(dp521
g81
g82
ssg70
g515
sg63
(lp522
g333
asbag56
(g77
g58
NtRp523
(dp524
g61
(dp525
g88
g89
ssg70
g515
sg63
(lp526
S':'
asbag56
(g77
g58
NtRp527
(dp528
g61
(dp529
sg70
g515
sg63
(lp530
g56
(g57
g58
NtRp531
(dp532
g61
(dp533
g69
I3
ssg70
g527
sg63
(lp534
S''
asbasbasbag56
(g72
g58
NtRp535
(dp536
g61
(dp537
sg70
g451
sg63
(lp538
g56
(g77
g58
NtRp539
(dp540
g61
(dp541
g81
g82
ssg70
g535
sg63
(lp542
g354
asbag56
(g77
g58
NtRp543
(dp544
g61
(dp545
g88
g89
ssg70
g535
sg63
(lp546
S':'
asbag56
(g77
g58
NtRp547
(dp548
g61
(dp549
sg70
g535
sg63
(lp550
g56
(g57
g58
NtRp551
(dp552
g61
(dp553
g69
I3
ssg70
g547
sg63
(lp554
S''
asbasbasbag56
(g72
g58
NtRp555
(dp556
g61
(dp557
sg70
g451
sg63
(lp558
g56
(g77
g58
NtRp559
(dp560
g61
(dp561
g81
g82
ssg70
g555
sg63
(lp562
g375
asbag56
(g77
g58
NtRp563
(dp564
g61
(dp565
g88
g89
ssg70
g555
sg63
(lp566
S':'
asbag56
(g77
g58
NtRp567
(dp568
g61
(dp569
sg70
g555
sg63
(lp570
g56
(g57
g58
NtRp571
(dp572
g61
(dp573
g69
I3
ssg70
g567
sg63
(lp574
S''
asbasbasbag56
(g72
g58
NtRp575
(dp576
g61
(dp577
sg70
g451
sg63
(lp578
g56
(g77
g58
NtRp579
(dp580
g61
(dp581
g81
g82
ssg70
g575
sg63
(lp582
g396
asbag56
(g77
g58
NtRp583
(dp584
g61
(dp585
g88
g89
ssg70
g575
sg63
(lp586
S':'
asbag56
(g77
g58
NtRp587
(dp588
g61
(dp589
sg70
g575
sg63
(lp590
g56
(g57
g58
NtRp591
(dp592
g61
(dp593
g69
I3
ssg70
g587
sg63
(lp594
S''
asbasbasbag56
(g72
g58
NtRp595
(dp596
g61
(dp597
sg70
g451
sg63
(lp598
g56
(g77
g58
NtRp599
(dp600
g61
(dp601
g81
g82
ssg70
g595
sg63
(lp602
g417
asbag56
(g77
g58
NtRp603
(dp604
g61
(dp605
g88
g89
ssg70
g595
sg63
(lp606
S':'
asbag56
(g77
g58
NtRp607
(dp608
g61
(dp609
sg70
g595
sg63
(lp610
g56
(g57
g58
NtRp611
(dp612
g61
(dp613
g69
I3
ssg70
g607
sg63
(lp614
S''
asbasbasbasbasbasbasbag56
(g72
g58
NtRp615
(dp616
g61
(dp617
sg70
g233
sg63
(lp618
g56
(g77
g58
NtRp619
(dp620
g61
(dp621
g81
g82
ssg70
g615
sg63
(lp622
S'session_id_datos'
p623
asbag56
(g77
g58
NtRp624
(dp625
g61
(dp626
g88
g89
ssg70
g615
sg63
(lp627
S':'
asbag56
(g77
g58
NtRp628
(dp629
g61
(dp630
sg70
g615
sg63
(lp631
g56
(g57
g58
NtRp632
(dp633
g61
(dp634
g69
I4
ssg70
g628
sg63
(lp635
g56
(g65
g58
NtRp636
(dp637
g61
(dp638
g69
I3
ssg70
Nsg63
(lp639
g56
(g72
g58
NtRp640
(dp641
g61
(dp642
sg70
g636
sg63
(lp643
g56
(g77
g58
NtRp644
(dp645
g61
(dp646
g81
g82
ssg70
g640
sg63
(lp647
g270
asbag56
(g77
g58
NtRp648
(dp649
g61
(dp650
g88
g89
ssg70
g640
sg63
(lp651
S':'
asbag56
(g77
g58
NtRp652
(dp653
g61
(dp654
sg70
g640
sg63
(lp655
g56
(g57
g58
NtRp656
(dp657
g61
(dp658
g69
I3
ssg70
g652
sg63
(lp659
S''
asbasbasbag56
(g72
g58
NtRp660
(dp661
g61
(dp662
sg70
g636
sg63
(lp663
g56
(g77
g58
NtRp664
(dp665
g61
(dp666
g81
g82
ssg70
g660
sg63
(lp667
g291
asbag56
(g77
g58
NtRp668
(dp669
g61
(dp670
g88
g89
ssg70
g660
sg63
(lp671
S':'
asbag56
(g77
g58
NtRp672
(dp673
g61
(dp674
sg70
g660
sg63
(lp675
g56
(g57
g58
NtRp676
(dp677
g61
(dp678
g69
I3
ssg70
g672
sg63
(lp679
S''
asbasbasbag56
(g72
g58
NtRp680
(dp681
g61
(dp682
sg70
g636
sg63
(lp683
g56
(g77
g58
NtRp684
(dp685
g61
(dp686
g81
g82
ssg70
g680
sg63
(lp687
g312
asbag56
(g77
g58
NtRp688
(dp689
g61
(dp690
g88
g89
ssg70
g680
sg63
(lp691
S':'
asbag56
(g77
g58
NtRp692
(dp693
g61
(dp694
sg70
g680
sg63
(lp695
g56
(g57
g58
NtRp696
(dp697
g61
(dp698
g69
I3
ssg70
g692
sg63
(lp699
S''
asbasbasbag56
(g72
g58
NtRp700
(dp701
g61
(dp702
sg70
g636
sg63
(lp703
g56
(g77
g58
NtRp704
(dp705
g61
(dp706
g81
g82
ssg70
g700
sg63
(lp707
g333
asbag56
(g77
g58
NtRp708
(dp709
g61
(dp710
g88
g89
ssg70
g700
sg63
(lp711
S':'
asbag56
(g77
g58
NtRp712
(dp713
g61
(dp714
sg70
g700
sg63
(lp715
g56
(g57
g58
NtRp716
(dp717
g61
(dp718
g69
I3
ssg70
g712
sg63
(lp719
S''
asbasbasbag56
(g72
g58
NtRp720
(dp721
g61
(dp722
sg70
g636
sg63
(lp723
g56
(g77
g58
NtRp724
(dp725
g61
(dp726
g81
g82
ssg70
g720
sg63
(lp727
g354
asbag56
(g77
g58
NtRp728
(dp729
g61
(dp730
g88
g89
ssg70
g720
sg63
(lp731
S':'
asbag56
(g77
g58
NtRp732
(dp733
g61
(dp734
sg70
g720
sg63
(lp735
g56
(g57
g58
NtRp736
(dp737
g61
(dp738
g69
I3
ssg70
g732
sg63
(lp739
S''
asbasbasbag56
(g72
g58
NtRp740
(dp741
g61
(dp742
sg70
g636
sg63
(lp743
g56
(g77
g58
NtRp744
(dp745
g61
(dp746
g81
g82
ssg70
g740
sg63
(lp747
g375
asbag56
(g77
g58
NtRp748
(dp749
g61
(dp750
g88
g89
ssg70
g740
sg63
(lp751
S':'
asbag56
(g77
g58
NtRp752
(dp753
g61
(dp754
sg70
g740
sg63
(lp755
g56
(g57
g58
NtRp756
(dp757
g61
(dp758
g69
I3
ssg70
g752
sg63
(lp759
S''
asbasbasbag56
(g72
g58
NtRp760
(dp761
g61
(dp762
sg70
g636
sg63
(lp763
g56
(g77
g58
NtRp764
(dp765
g61
(dp766
g81
g82
ssg70
g760
sg63
(lp767
g396
asbag56
(g77
g58
NtRp768
(dp769
g61
(dp770
g88
g89
ssg70
g760
sg63
(lp771
S':'
asbag56
(g77
g58
NtRp772
(dp773
g61
(dp774
sg70
g760
sg63
(lp775
g56
(g57
g58
NtRp776
(dp777
g61
(dp778
g69
I3
ssg70
g772
sg63
(lp779
S''
asbasbasbag56
(g72
g58
NtRp780
(dp781
g61
(dp782
sg70
g636
sg63
(lp783
g56
(g77
g58
NtRp784
(dp785
g61
(dp786
g81
g82
ssg70
g780
sg63
(lp787
g417
asbag56
(g77
g58
NtRp788
(dp789
g61
(dp790
g88
g89
ssg70
g780
sg63
(lp791
S':'
asbag56
(g77
g58
NtRp792
(dp793
g61
(dp794
sg70
g780
sg63
(lp795
g56
(g57
g58
NtRp796
(dp797
g61
(dp798
g69
I3
ssg70
g792
sg63
(lp799
S''
asbasbasbasbasbasbasbag56
(g72
g58
NtRp800
(dp801
g61
(dp802
sg70
g233
sg63
(lp803
g56
(g77
g58
NtRp804
(dp805
g61
(dp806
g81
g82
ssg70
g800
sg63
(lp807
S'session_id_welcome'
p808
asbag56
(g77
g58
NtRp809
(dp810
g61
(dp811
g88
g89
ssg70
g800
sg63
(lp812
S':'
asbag56
(g77
g58
NtRp813
(dp814
g61
(dp815
sg70
g800
sg63
(lp816
g56
(g57
g58
NtRp817
(dp818
g61
(dp819
g69
I4
ssg70
g813
sg63
(lp820
g56
(g65
g58
NtRp821
(dp822
g61
(dp823
g69
I3
ssg70
Nsg63
(lp824
g56
(g72
g58
NtRp825
(dp826
g61
(dp827
sg70
g821
sg63
(lp828
g56
(g77
g58
NtRp829
(dp830
g61
(dp831
g81
g82
ssg70
g825
sg63
(lp832
g270
asbag56
(g77
g58
NtRp833
(dp834
g61
(dp835
g88
g89
ssg70
g825
sg63
(lp836
S':'
asbag56
(g77
g58
NtRp837
(dp838
g61
(dp839
sg70
g825
sg63
(lp840
g56
(g57
g58
NtRp841
(dp842
g61
(dp843
g69
I3
ssg70
g837
sg63
(lp844
S''
asbasbasbag56
(g72
g58
NtRp845
(dp846
g61
(dp847
sg70
g821
sg63
(lp848
g56
(g77
g58
NtRp849
(dp850
g61
(dp851
g81
g82
ssg70
g845
sg63
(lp852
g291
asbag56
(g77
g58
NtRp853
(dp854
g61
(dp855
g88
g89
ssg70
g845
sg63
(lp856
S':'
asbag56
(g77
g58
NtRp857
(dp858
g61
(dp859
sg70
g845
sg63
(lp860
g56
(g57
g58
NtRp861
(dp862
g61
(dp863
g69
I3
ssg70
g857
sg63
(lp864
S''
asbasbasbag56
(g72
g58
NtRp865
(dp866
g61
(dp867
sg70
g821
sg63
(lp868
g56
(g77
g58
NtRp869
(dp870
g61
(dp871
g81
g82
ssg70
g865
sg63
(lp872
g312
asbag56
(g77
g58
NtRp873
(dp874
g61
(dp875
g88
g89
ssg70
g865
sg63
(lp876
S':'
asbag56
(g77
g58
NtRp877
(dp878
g61
(dp879
sg70
g865
sg63
(lp880
g56
(g57
g58
NtRp881
(dp882
g61
(dp883
g69
I3
ssg70
g877
sg63
(lp884
S''
asbasbasbag56
(g72
g58
NtRp885
(dp886
g61
(dp887
sg70
g821
sg63
(lp888
g56
(g77
g58
NtRp889
(dp890
g61
(dp891
g81
g82
ssg70
g885
sg63
(lp892
g333
asbag56
(g77
g58
NtRp893
(dp894
g61
(dp895
g88
g89
ssg70
g885
sg63
(lp896
S':'
asbag56
(g77
g58
NtRp897
(dp898
g61
(dp899
sg70
g885
sg63
(lp900
g56
(g57
g58
NtRp901
(dp902
g61
(dp903
g69
I3
ssg70
g897
sg63
(lp904
S''
asbasbasbag56
(g72
g58
NtRp905
(dp906
g61
(dp907
sg70
g821
sg63
(lp908
g56
(g77
g58
NtRp909
(dp910
g61
(dp911
g81
g82
ssg70
g905
sg63
(lp912
g354
asbag56
(g77
g58
NtRp913
(dp914
g61
(dp915
g88
g89
ssg70
g905
sg63
(lp916
S':'
asbag56
(g77
g58
NtRp917
(dp918
g61
(dp919
sg70
g905
sg63
(lp920
g56
(g57
g58
NtRp921
(dp922
g61
(dp923
g69
I3
ssg70
g917
sg63
(lp924
S''
asbasbasbag56
(g72
g58
NtRp925
(dp926
g61
(dp927
sg70
g821
sg63
(lp928
g56
(g77
g58
NtRp929
(dp930
g61
(dp931
g81
g82
ssg70
g925
sg63
(lp932
g375
asbag56
(g77
g58
NtRp933
(dp934
g61
(dp935
g88
g89
ssg70
g925
sg63
(lp936
S':'
asbag56
(g77
g58
NtRp937
(dp938
g61
(dp939
sg70
g925
sg63
(lp940
g56
(g57
g58
NtRp941
(dp942
g61
(dp943
g69
I3
ssg70
g937
sg63
(lp944
S''
asbasbasbag56
(g72
g58
NtRp945
(dp946
g61
(dp947
sg70
g821
sg63
(lp948
g56
(g77
g58
NtRp949
(dp950
g61
(dp951
g81
g82
ssg70
g945
sg63
(lp952
g396
asbag56
(g77
g58
NtRp953
(dp954
g61
(dp955
g88
g89
ssg70
g945
sg63
(lp956
S':'
asbag56
(g77
g58
NtRp957
(dp958
g61
(dp959
sg70
g945
sg63
(lp960
g56
(g57
g58
NtRp961
(dp962
g61
(dp963
g69
I3
ssg70
g957
sg63
(lp964
S''
asbasbasbag56
(g72
g58
NtRp965
(dp966
g61
(dp967
sg70
g821
sg63
(lp968
g56
(g77
g58
NtRp969
(dp970
g61
(dp971
g81
g82
ssg70
g965
sg63
(lp972
g417
asbag56
(g77
g58
NtRp973
(dp974
g61
(dp975
g88
g89
ssg70
g965
sg63
(lp976
S':'
asbag56
(g77
g58
NtRp977
(dp978
g61
(dp979
sg70
g965
sg63
(lp980
g56
(g57
g58
NtRp981
(dp982
g61
(dp983
g69
I3
ssg70
g977
sg63
(lp984
S''
asbasbasbasbasbasbasbasbasbasbasbag56
(g72
g58
NtRp985
(dp986
g61
(dp987
sg70
g66
sg63
(lp988
g56
(g77
g58
NtRp989
(dp990
g61
(dp991
g81
g82
ssg70
g985
sg63
(lp992
S'env'
p993
asbag56
(g77
g58
NtRp994
(dp995
g61
(dp996
g88
g89
ssg70
g985
sg63
(lp997
S':'
asbag56
(g77
g58
NtRp998
(dp999
g61
(dp1000
sg70
g985
sg63
(lp1001
g56
(g57
g58
NtRp1002
(dp1003
g61
(dp1004
g69
I5
ssg70
g998
sg63
(lp1005
g56
(g65
g58
NtRp1006
(dp1007
g61
(dp1008
g69
I4
ssg70
Nsg63
(lp1009
g56
(g72
g58
NtRp1010
(dp1011
g61
(dp1012
sg70
g1006
sg63
(lp1013
g56
(g77
g58
NtRp1014
(dp1015
g61
(dp1016
g81
g82
ssg70
g1010
sg63
(lp1017
S'app_folders'
p1018
asbag56
(g77
g58
NtRp1019
(dp1020
g61
(dp1021
g88
g89
ssg70
g1010
sg63
(lp1022
S':'
asbag56
(g77
g58
NtRp1023
(dp1024
g61
(dp1025
sg70
g1010
sg63
(lp1026
g56
(g57
g58
NtRp1027
(dp1028
g61
(dp1029
g69
I4
ssg70
g1023
sg63
(lp1030
S"set(['/home/alumno/web2py/applications/admin/', '/home/alumno/web2py/applications/welcome/', '/home/alumno/web2py/applications/datos/'])"
p1031
asbasbasbag56
(g72
g58
NtRp1032
(dp1033
g61
(dp1034
sg70
g1006
sg63
(lp1035
g56
(g77
g58
NtRp1036
(dp1037
g61
(dp1038
g81
g82
ssg70
g1032
sg63
(lp1039
S'applications_parent'
p1040
asbag56
(g77
g58
NtRp1041
(dp1042
g61
(dp1043
g88
g89
ssg70
g1032
sg63
(lp1044
S':'
asbag56
(g77
g58
NtRp1045
(dp1046
g61
(dp1047
sg70
g1032
sg63
(lp1048
g56
(g57
g58
NtRp1049
(dp1050
g61
(dp1051
g69
I4
ssg70
g1045
sg63
(lp1052
S'/home/alumno/web2py'
p1053
asbasbasbag56
(g72
g58
NtRp1054
(dp1055
g61
(dp1056
sg70
g1006
sg63
(lp1057
g56
(g77
g58
NtRp1058
(dp1059
g61
(dp1060
g81
g82
ssg70
g1054
sg63
(lp1061
S'cmd_args'
p1062
asbag56
(g77
g58
NtRp1063
(dp1064
g61
(dp1065
g88
g89
ssg70
g1054
sg63
(lp1066
S':'
asbag56
(g77
g58
NtRp1067
(dp1068
g61
(dp1069
sg70
g1054
sg63
(lp1070
g56
(g57
g58
NtRp1071
(dp1072
g61
(dp1073
g69
I4
ssg70
g1067
sg63
(lp1074
g56
(g65
g58
NtRp1075
(dp1076
g61
(dp1077
g69
I3
ssg70
Nsg63
(lp1078
sbasbasbasbag56
(g72
g58
NtRp1079
(dp1080
g61
(dp1081
sg70
g1006
sg63
(lp1082
g56
(g77
g58
NtRp1083
(dp1084
g61
(dp1085
g81
g82
ssg70
g1079
sg63
(lp1086
S'cmd_options'
p1087
asbag56
(g77
g58
NtRp1088
(dp1089
g61
(dp1090
g88
g89
ssg70
g1079
sg63
(lp1091
S':'
asbag56
(g77
g58
NtRp1092
(dp1093
g61
(dp1094
sg70
g1079
sg63
(lp1095
g56
(g57
g58
NtRp1096
(dp1097
g61
(dp1098
g69
I4
ssg70
g1092
sg63
(lp1099
S"<Values at 0x9087cec: {'verbose': False, 'ip': '127.0.0.1', 'shutdown_timeout': 5, 'taskbar': False, 'port': 8000, 'maxthreads': None, 'softcron': False, 'server_name': 'ubuntu-dev', 'bpython': False, 'nogui': False, 'nocron': False, 'extcron': False, 'debuglevel': 30, 'test': None, 'folder': '/home/alumno/web2py', 'config': '', 'import_models': False, 'winservice': '', 'shell': None, 'run': '', 'log_filename': 'httpserver.log', 'args': [''], 'profiler_filename': None, 'ssl_private_key': '', 'password': 'toor', 'request_queue_size': 5, 'ssl_certificate': '', 'cronjob': False, 'plain': False, 'quiet': False, 'interfaces': None, 'minthreads': None, 'timeout': 10, 'numthreads': None, 'nobanner': False, 'pid_filename': 'httpserver.pid'}>"
p1100
asbasbasbag56
(g72
g58
NtRp1101
(dp1102
g61
(dp1103
sg70
g1006
sg63
(lp1104
g56
(g77
g58
NtRp1105
(dp1106
g61
(dp1107
g81
g82
ssg70
g1101
sg63
(lp1108
S'db_sessions'
p1109
asbag56
(g77
g58
NtRp1110
(dp1111
g61
(dp1112
g88
g89
ssg70
g1101
sg63
(lp1113
S':'
asbag56
(g77
g58
NtRp1114
(dp1115
g61
(dp1116
sg70
g1101
sg63
(lp1117
g56
(g57
g58
NtRp1118
(dp1119
g61
(dp1120
g69
I4
ssg70
g1114
sg63
(lp1121
S'set([])'
p1122
asbasbasbag56
(g72
g58
NtRp1123
(dp1124
g61
(dp1125
sg70
g1006
sg63
(lp1126
g56
(g77
g58
NtRp1127
(dp1128
g61
(dp1129
g81
g82
ssg70
g1123
sg63
(lp1130
S'debugging'
p1131
asbag56
(g77
g58
NtRp1132
(dp1133
g61
(dp1134
g88
g89
ssg70
g1123
sg63
(lp1135
S':'
asbag56
(g77
g58
NtRp1136
(dp1137
g61
(dp1138
sg70
g1123
sg63
(lp1139
g56
(g57
g58
NtRp1140
(dp1141
g61
(dp1142
g69
I4
ssg70
g1136
sg63
(lp1143
g99
asbasbasbag56
(g72
g58
NtRp1144
(dp1145
g61
(dp1146
sg70
g1006
sg63
(lp1147
g56
(g77
g58
NtRp1148
(dp1149
g61
(dp1150
g81
g82
ssg70
g1144
sg63
(lp1151
S'gluon_parent'
p1152
asbag56
(g77
g58
NtRp1153
(dp1154
g61
(dp1155
g88
g89
ssg70
g1144
sg63
(lp1156
S':'
asbag56
(g77
g58
NtRp1157
(dp1158
g61
(dp1159
sg70
g1144
sg63
(lp1160
g56
(g57
g58
NtRp1161
(dp1162
g61
(dp1163
g69
I4
ssg70
g1157
sg63
(lp1164
S'/home/alumno/web2py'
p1165
asbasbasbag56
(g72
g58
NtRp1166
(dp1167
g61
(dp1168
sg70
g1006
sg63
(lp1169
g56
(g77
g58
NtRp1170
(dp1171
g61
(dp1172
g81
g82
ssg70
g1166
sg63
(lp1173
S'http_accept'
p1174
asbag56
(g77
g58
NtRp1175
(dp1176
g61
(dp1177
g88
g89
ssg70
g1166
sg63
(lp1178
S':'
asbag56
(g77
g58
NtRp1179
(dp1180
g61
(dp1181
sg70
g1166
sg63
(lp1182
g56
(g57
g58
NtRp1183
(dp1184
g61
(dp1185
g69
I4
ssg70
g1179
sg63
(lp1186
S'text/html,application/xhtml+xml,application/xml;q=0.9,*/*;q=0.8'
p1187
asbasbasbag56
(g72
g58
NtRp1188
(dp1189
g61
(dp1190
sg70
g1006
sg63
(lp1191
g56
(g77
g58
NtRp1192
(dp1193
g61
(dp1194
g81
g82
ssg70
g1188
sg63
(lp1195
S'http_accept_charset'
p1196
asbag56
(g77
g58
NtRp1197
(dp1198
g61
(dp1199
g88
g89
ssg70
g1188
sg63
(lp1200
S':'
asbag56
(g77
g58
NtRp1201
(dp1202
g61
(dp1203
sg70
g1188
sg63
(lp1204
g56
(g57
g58
NtRp1205
(dp1206
g61
(dp1207
g69
I4
ssg70
g1201
sg63
(lp1208
S'ISO-8859-1,utf-8;q=0.7,*;q=0.7'
p1209
asbasbasbag56
(g72
g58
NtRp1210
(dp1211
g61
(dp1212
sg70
g1006
sg63
(lp1213
g56
(g77
g58
NtRp1214
(dp1215
g61
(dp1216
g81
g82
ssg70
g1210
sg63
(lp1217
S'http_accept_encoding'
p1218
asbag56
(g77
g58
NtRp1219
(dp1220
g61
(dp1221
g88
g89
ssg70
g1210
sg63
(lp1222
S':'
asbag56
(g77
g58
NtRp1223
(dp1224
g61
(dp1225
sg70
g1210
sg63
(lp1226
g56
(g57
g58
NtRp1227
(dp1228
g61
(dp1229
g69
I4
ssg70
g1223
sg63
(lp1230
S'gzip, deflate'
p1231
asbasbasbag56
(g72
g58
NtRp1232
(dp1233
g61
(dp1234
sg70
g1006
sg63
(lp1235
g56
(g77
g58
NtRp1236
(dp1237
g61
(dp1238
g81
g82
ssg70
g1232
sg63
(lp1239
S'http_accept_language'
p1240
asbag56
(g77
g58
NtRp1241
(dp1242
g61
(dp1243
g88
g89
ssg70
g1232
sg63
(lp1244
S':'
asbag56
(g77
g58
NtRp1245
(dp1246
g61
(dp1247
sg70
g1232
sg63
(lp1248
g56
(g57
g58
NtRp1249
(dp1250
g61
(dp1251
g69
I4
ssg70
g1245
sg63
(lp1252
S'es-ar,es;q=0.8,en-us;q=0.5,en;q=0.3'
p1253
asbasbasbag56
(g72
g58
NtRp1254
(dp1255
g61
(dp1256
sg70
g1006
sg63
(lp1257
g56
(g77
g58
NtRp1258
(dp1259
g61
(dp1260
g81
g82
ssg70
g1254
sg63
(lp1261
S'http_cache_control'
p1262
asbag56
(g77
g58
NtRp1263
(dp1264
g61
(dp1265
g88
g89
ssg70
g1254
sg63
(lp1266
S':'
asbag56
(g77
g58
NtRp1267
(dp1268
g61
(dp1269
sg70
g1254
sg63
(lp1270
g56
(g57
g58
NtRp1271
(dp1272
g61
(dp1273
g69
I4
ssg70
g1267
sg63
(lp1274
S'max-age=0'
p1275
asbasbasbag56
(g72
g58
NtRp1276
(dp1277
g61
(dp1278
sg70
g1006
sg63
(lp1279
g56
(g77
g58
NtRp1280
(dp1281
g61
(dp1282
g81
g82
ssg70
g1276
sg63
(lp1283
S'http_connection'
p1284
asbag56
(g77
g58
NtRp1285
(dp1286
g61
(dp1287
g88
g89
ssg70
g1276
sg63
(lp1288
S':'
asbag56
(g77
g58
NtRp1289
(dp1290
g61
(dp1291
sg70
g1276
sg63
(lp1292
g56
(g57
g58
NtRp1293
(dp1294
g61
(dp1295
g69
I4
ssg70
g1289
sg63
(lp1296
S'keep-alive'
p1297
asbasbasbag56
(g72
g58
NtRp1298
(dp1299
g61
(dp1300
sg70
g1006
sg63
(lp1301
g56
(g77
g58
NtRp1302
(dp1303
g61
(dp1304
g81
g82
ssg70
g1298
sg63
(lp1305
S'http_cookie'
p1306
asbag56
(g77
g58
NtRp1307
(dp1308
g61
(dp1309
g88
g89
ssg70
g1298
sg63
(lp1310
S':'
asbag56
(g77
g58
NtRp1311
(dp1312
g61
(dp1313
sg70
g1298
sg63
(lp1314
g56
(g57
g58
NtRp1315
(dp1316
g61
(dp1317
g69
I4
ssg70
g1311
sg63
(lp1318
S'session_id_welcome=127.0.0.1-1d154504-bb28-412e-93ff-53b685663ec2; session_id_admin=127.0.0.1-2a24ba51-970a-4d02-b8db-815ef71053d7; adminLanguage=es-es; session_id_datos=127.0.0.1-20b3f36e-d2c0-4701-9b60-b90dd393abcb'
p1319
asbasbasbag56
(g72
g58
NtRp1320
(dp1321
g61
(dp1322
sg70
g1006
sg63
(lp1323
g56
(g77
g58
NtRp1324
(dp1325
g61
(dp1326
g81
g82
ssg70
g1320
sg63
(lp1327
S'http_host'
p1328
asbag56
(g77
g58
NtRp1329
(dp1330
g61
(dp1331
g88
g89
ssg70
g1320
sg63
(lp1332
S':'
asbag56
(g77
g58
NtRp1333
(dp1334
g61
(dp1335
sg70
g1320
sg63
(lp1336
g56
(g57
g58
NtRp1337
(dp1338
g61
(dp1339
g69
I4
ssg70
g1333
sg63
(lp1340
S'127.0.0.1:8000'
p1341
asbasbasbag56
(g72
g58
NtRp1342
(dp1343
g61
(dp1344
sg70
g1006
sg63
(lp1345
g56
(g77
g58
NtRp1346
(dp1347
g61
(dp1348
g81
g82
ssg70
g1342
sg63
(lp1349
S'http_referer'
p1350
asbag56
(g77
g58
NtRp1351
(dp1352
g61
(dp1353
g88
g89
ssg70
g1342
sg63
(lp1354
S':'
asbag56
(g77
g58
NtRp1355
(dp1356
g61
(dp1357
sg70
g1342
sg63
(lp1358
g56
(g57
g58
NtRp1359
(dp1360
g61
(dp1361
g69
I4
ssg70
g1355
sg63
(lp1362
S'http://127.0.0.1:8000/admin/default/design/datos'
p1363
asbasbasbag56
(g72
g58
NtRp1364
(dp1365
g61
(dp1366
sg70
g1006
sg63
(lp1367
g56
(g77
g58
NtRp1368
(dp1369
g61
(dp1370
g81
g82
ssg70
g1364
sg63
(lp1371
S'http_user_agent'
p1372
asbag56
(g77
g58
NtRp1373
(dp1374
g61
(dp1375
g88
g89
ssg70
g1364
sg63
(lp1376
S':'
asbag56
(g77
g58
NtRp1377
(dp1378
g61
(dp1379
sg70
g1364
sg63
(lp1380
g56
(g57
g58
NtRp1381
(dp1382
g61
(dp1383
g69
I4
ssg70
g1377
sg63
(lp1384
S'Mozilla/5.0 (X11; Linux i686; rv:6.0) Gecko/20100101 Firefox/6.0'
p1385
asbasbasbag56
(g72
g58
NtRp1386
(dp1387
g61
(dp1388
sg70
g1006
sg63
(lp1389
g56
(g77
g58
NtRp1390
(dp1391
g61
(dp1392
g81
g82
ssg70
g1386
sg63
(lp1393
S'path_info'
p1394
asbag56
(g77
g58
NtRp1395
(dp1396
g61
(dp1397
g88
g89
ssg70
g1386
sg63
(lp1398
S':'
asbag56
(g77
g58
NtRp1399
(dp1400
g61
(dp1401
sg70
g1386
sg63
(lp1402
g56
(g57
g58
NtRp1403
(dp1404
g61
(dp1405
g69
I4
ssg70
g1399
sg63
(lp1406
S'/datos/default/index'
p1407
asbasbasbag56
(g72
g58
NtRp1408
(dp1409
g61
(dp1410
sg70
g1006
sg63
(lp1411
g56
(g77
g58
NtRp1412
(dp1413
g61
(dp1414
g81
g82
ssg70
g1408
sg63
(lp1415
S'query_string'
p1416
asbag56
(g77
g58
NtRp1417
(dp1418
g61
(dp1419
g88
g89
ssg70
g1408
sg63
(lp1420
S':'
asbag56
(g77
g58
NtRp1421
(dp1422
g61
(dp1423
sg70
g1408
sg63
(lp1424
g56
(g57
g58
NtRp1425
(dp1426
g61
(dp1427
g69
I4
ssg70
g1421
sg63
(lp1428
S''
asbasbasbag56
(g72
g58
NtRp1429
(dp1430
g61
(dp1431
sg70
g1006
sg63
(lp1432
g56
(g77
g58
NtRp1433
(dp1434
g61
(dp1435
g81
g82
ssg70
g1429
sg63
(lp1436
S'remote_addr'
p1437
asbag56
(g77
g58
NtRp1438
(dp1439
g61
(dp1440
g88
g89
ssg70
g1429
sg63
(lp1441
S':'
asbag56
(g77
g58
NtRp1442
(dp1443
g61
(dp1444
sg70
g1429
sg63
(lp1445
g56
(g57
g58
NtRp1446
(dp1447
g61
(dp1448
g69
I4
ssg70
g1442
sg63
(lp1449
g189
asbasbasbag56
(g72
g58
NtRp1450
(dp1451
g61
(dp1452
sg70
g1006
sg63
(lp1453
g56
(g77
g58
NtRp1454
(dp1455
g61
(dp1456
g81
g82
ssg70
g1450
sg63
(lp1457
S'remote_port'
p1458
asbag56
(g77
g58
NtRp1459
(dp1460
g61
(dp1461
g88
g89
ssg70
g1450
sg63
(lp1462
S':'
asbag56
(g77
g58
NtRp1463
(dp1464
g61
(dp1465
sg70
g1450
sg63
(lp1466
g56
(g57
g58
NtRp1467
(dp1468
g61
(dp1469
g69
I4
ssg70
g1463
sg63
(lp1470
S'38384'
p1471
asbasbasbag56
(g72
g58
NtRp1472
(dp1473
g61
(dp1474
sg70
g1006
sg63
(lp1475
g56
(g77
g58
NtRp1476
(dp1477
g61
(dp1478
g81
g82
ssg70
g1472
sg63
(lp1479
S'request_method'
p1480
asbag56
(g77
g58
NtRp1481
(dp1482
g61
(dp1483
g88
g89
ssg70
g1472
sg63
(lp1484
S':'
asbag56
(g77
g58
NtRp1485
(dp1486
g61
(dp1487
sg70
g1472
sg63
(lp1488
g56
(g57
g58
NtRp1489
(dp1490
g61
(dp1491
g69
I4
ssg70
g1485
sg63
(lp1492
S'GET'
p1493
asbasbasbag56
(g72
g58
NtRp1494
(dp1495
g61
(dp1496
sg70
g1006
sg63
(lp1497
g56
(g77
g58
NtRp1498
(dp1499
g61
(dp1500
g81
g82
ssg70
g1494
sg63
(lp1501
S'script_name'
p1502
asbag56
(g77
g58
NtRp1503
(dp1504
g61
(dp1505
g88
g89
ssg70
g1494
sg63
(lp1506
S':'
asbag56
(g77
g58
NtRp1507
(dp1508
g61
(dp1509
sg70
g1494
sg63
(lp1510
g56
(g57
g58
NtRp1511
(dp1512
g61
(dp1513
g69
I4
ssg70
g1507
sg63
(lp1514
S''
asbasbasbag56
(g72
g58
NtRp1515
(dp1516
g61
(dp1517
sg70
g1006
sg63
(lp1518
g56
(g77
g58
NtRp1519
(dp1520
g61
(dp1521
g81
g82
ssg70
g1515
sg63
(lp1522
S'server_name'
p1523
asbag56
(g77
g58
NtRp1524
(dp1525
g61
(dp1526
g88
g89
ssg70
g1515
sg63
(lp1527
S':'
asbag56
(g77
g58
NtRp1528
(dp1529
g61
(dp1530
sg70
g1515
sg63
(lp1531
g56
(g57
g58
NtRp1532
(dp1533
g61
(dp1534
g69
I4
ssg70
g1528
sg63
(lp1535
S'ubuntu-dev'
p1536
asbasbasbag56
(g72
g58
NtRp1537
(dp1538
g61
(dp1539
sg70
g1006
sg63
(lp1540
g56
(g77
g58
NtRp1541
(dp1542
g61
(dp1543
g81
g82
ssg70
g1537
sg63
(lp1544
S'server_port'
p1545
asbag56
(g77
g58
NtRp1546
(dp1547
g61
(dp1548
g88
g89
ssg70
g1537
sg63
(lp1549
S':'
asbag56
(g77
g58
NtRp1550
(dp1551
g61
(dp1552
sg70
g1537
sg63
(lp1553
g56
(g57
g58
NtRp1554
(dp1555
g61
(dp1556
g69
I4
ssg70
g1550
sg63
(lp1557
S'8000'
p1558
asbasbasbag56
(g72
g58
NtRp1559
(dp1560
g61
(dp1561
sg70
g1006
sg63
(lp1562
g56
(g77
g58
NtRp1563
(dp1564
g61
(dp1565
g81
g82
ssg70
g1559
sg63
(lp1566
S'server_protocol'
p1567
asbag56
(g77
g58
NtRp1568
(dp1569
g61
(dp1570
g88
g89
ssg70
g1559
sg63
(lp1571
S':'
asbag56
(g77
g58
NtRp1572
(dp1573
g61
(dp1574
sg70
g1559
sg63
(lp1575
g56
(g57
g58
NtRp1576
(dp1577
g61
(dp1578
g69
I4
ssg70
g1572
sg63
(lp1579
S'HTTP/1.1'
p1580
asbasbasbag56
(g72
g58
NtRp1581
(dp1582
g61
(dp1583
sg70
g1006
sg63
(lp1584
g56
(g77
g58
NtRp1585
(dp1586
g61
(dp1587
g81
g82
ssg70
g1581
sg63
(lp1588
S'server_software'
p1589
asbag56
(g77
g58
NtRp1590
(dp1591
g61
(dp1592
g88
g89
ssg70
g1581
sg63
(lp1593
S':'
asbag56
(g77
g58
NtRp1594
(dp1595
g61
(dp1596
sg70
g1581
sg63
(lp1597
g56
(g57
g58
NtRp1598
(dp1599
g61
(dp1600
g69
I4
ssg70
g1594
sg63
(lp1601
S'Rocket 1.2.2'
p1602
asbasbasbag56
(g72
g58
NtRp1603
(dp1604
g61
(dp1605
sg70
g1006
sg63
(lp1606
g56
(g77
g58
NtRp1607
(dp1608
g61
(dp1609
g81
g82
ssg70
g1603
sg63
(lp1610
S'web2py_crontype'
p1611
asbag56
(g77
g58
NtRp1612
(dp1613
g61
(dp1614
g88
g89
ssg70
g1603
sg63
(lp1615
S':'
asbag56
(g77
g58
NtRp1616
(dp1617
g61
(dp1618
sg70
g1603
sg63
(lp1619
g56
(g57
g58
NtRp1620
(dp1621
g61
(dp1622
g69
I4
ssg70
g1616
sg63
(lp1623
S'hard'
p1624
asbasbasbag56
(g72
g58
NtRp1625
(dp1626
g61
(dp1627
sg70
g1006
sg63
(lp1628
g56
(g77
g58
NtRp1629
(dp1630
g61
(dp1631
g81
g82
ssg70
g1625
sg63
(lp1632
S'web2py_path'
p1633
asbag56
(g77
g58
NtRp1634
(dp1635
g61
(dp1636
g88
g89
ssg70
g1625
sg63
(lp1637
S':'
asbag56
(g77
g58
NtRp1638
(dp1639
g61
(dp1640
sg70
g1625
sg63
(lp1641
g56
(g57
g58
NtRp1642
(dp1643
g61
(dp1644
g69
I4
ssg70
g1638
sg63
(lp1645
g1053
asbasbasbag56
(g72
g58
NtRp1646
(dp1647
g61
(dp1648
sg70
g1006
sg63
(lp1649
g56
(g77
g58
NtRp1650
(dp1651
g61
(dp1652
g81
g82
ssg70
g1646
sg63
(lp1653
S'web2py_version'
p1654
asbag56
(g77
g58
NtRp1655
(dp1656
g61
(dp1657
g88
g89
ssg70
g1646
sg63
(lp1658
S':'
asbag56
(g77
g58
NtRp1659
(dp1660
g61
(dp1661
sg70
g1646
sg63
(lp1662
g56
(g57
g58
NtRp1663
(dp1664
g61
(dp1665
g69
I4
ssg70
g1659
sg63
(lp1666
S'Version 1.96.4 (2011-06-18 21:34:53)\n'
p1667
asbasbasbag56
(g72
g58
NtRp1668
(dp1669
g61
(dp1670
sg70
g1006
sg63
(lp1671
g56
(g77
g58
NtRp1672
(dp1673
g61
(dp1674
g81
g82
ssg70
g1668
sg63
(lp1675
S'wsgi_errors'
p1676
asbag56
(g77
g58
NtRp1677
(dp1678
g61
(dp1679
g88
g89
ssg70
g1668
sg63
(lp1680
S':'
asbag56
(g77
g58
NtRp1681
(dp1682
g61
(dp1683
sg70
g1668
sg63
(lp1684
g56
(g57
g58
NtRp1685
(dp1686
g61
(dp1687
g69
I4
ssg70
g1681
sg63
(lp1688
S"<open file '<stderr>', mode 'w' at 0xb77f60d0>"
p1689
asbasbasbag56
(g72
g58
NtRp1690
(dp1691
g61
(dp1692
sg70
g1006
sg63
(lp1693
g56
(g77
g58
NtRp1694
(dp1695
g61
(dp1696
g81
g82
ssg70
g1690
sg63
(lp1697
S'wsgi_file_wrapper'
p1698
asbag56
(g77
g58
NtRp1699
(dp1700
g61
(dp1701
g88
g89
ssg70
g1690
sg63
(lp1702
S':'
asbag56
(g77
g58
NtRp1703
(dp1704
g61
(dp1705
sg70
g1690
sg63
(lp1706
g56
(g57
g58
NtRp1707
(dp1708
g61
(dp1709
g69
I4
ssg70
g1703
sg63
(lp1710
S'<class gluon.rocket.FileWrapper at 0x8ea1e3c>'
p1711
asbasbasbag56
(g72
g58
NtRp1712
(dp1713
g61
(dp1714
sg70
g1006
sg63
(lp1715
g56
(g77
g58
NtRp1716
(dp1717
g61
(dp1718
g81
g82
ssg70
g1712
sg63
(lp1719
S'wsgi_input'
p1720
asbag56
(g77
g58
NtRp1721
(dp1722
g61
(dp1723
g88
g89
ssg70
g1712
sg63
(lp1724
S':'
asbag56
(g77
g58
NtRp1725
(dp1726
g61
(dp1727
sg70
g1712
sg63
(lp1728
g56
(g57
g58
NtRp1729
(dp1730
g61
(dp1731
g69
I4
ssg70
g1725
sg63
(lp1732
S'<socket._fileobject object at 0x9673eac>'
p1733
asbasbasbag56
(g72
g58
NtRp1734
(dp1735
g61
(dp1736
sg70
g1006
sg63
(lp1737
g56
(g77
g58
NtRp1738
(dp1739
g61
(dp1740
g81
g82
ssg70
g1734
sg63
(lp1741
S'wsgi_multiprocess'
p1742
asbag56
(g77
g58
NtRp1743
(dp1744
g61
(dp1745
g88
g89
ssg70
g1734
sg63
(lp1746
S':'
asbag56
(g77
g58
NtRp1747
(dp1748
g61
(dp1749
sg70
g1734
sg63
(lp1750
g56
(g57
g58
NtRp1751
(dp1752
g61
(dp1753
g69
I4
ssg70
g1747
sg63
(lp1754
g99
asbasbasbag56
(g72
g58
NtRp1755
(dp1756
g61
(dp1757
sg70
g1006
sg63
(lp1758
g56
(g77
g58
NtRp1759
(dp1760
g61
(dp1761
g81
g82
ssg70
g1755
sg63
(lp1762
S'wsgi_multithread'
p1763
asbag56
(g77
g58
NtRp1764
(dp1765
g61
(dp1766
g88
g89
ssg70
g1755
sg63
(lp1767
S':'
asbag56
(g77
g58
NtRp1768
(dp1769
g61
(dp1770
sg70
g1755
sg63
(lp1771
g56
(g57
g58
NtRp1772
(dp1773
g61
(dp1774
g69
I4
ssg70
g1768
sg63
(lp1775
S'True'
p1776
asbasbasbag56
(g72
g58
NtRp1777
(dp1778
g61
(dp1779
sg70
g1006
sg63
(lp1780
g56
(g77
g58
NtRp1781
(dp1782
g61
(dp1783
g81
g82
ssg70
g1777
sg63
(lp1784
S'wsgi_run_once'
p1785
asbag56
(g77
g58
NtRp1786
(dp1787
g61
(dp1788
g88
g89
ssg70
g1777
sg63
(lp1789
S':'
asbag56
(g77
g58
NtRp1790
(dp1791
g61
(dp1792
sg70
g1777
sg63
(lp1793
g56
(g57
g58
NtRp1794
(dp1795
g61
(dp1796
g69
I4
ssg70
g1790
sg63
(lp1797
g99
asbasbasbag56
(g72
g58
NtRp1798
(dp1799
g61
(dp1800
sg70
g1006
sg63
(lp1801
g56
(g77
g58
NtRp1802
(dp1803
g61
(dp1804
g81
g82
ssg70
g1798
sg63
(lp1805
S'wsgi_url_scheme'
p1806
asbag56
(g77
g58
NtRp1807
(dp1808
g61
(dp1809
g88
g89
ssg70
g1798
sg63
(lp1810
S':'
asbag56
(g77
g58
NtRp1811
(dp1812
g61
(dp1813
sg70
g1798
sg63
(lp1814
g56
(g57
g58
NtRp1815
(dp1816
g61
(dp1817
g69
I4
ssg70
g1811
sg63
(lp1818
S'http'
p1819
asbasbasbag56
(g72
g58
NtRp1820
(dp1821
g61
(dp1822
sg70
g1006
sg63
(lp1823
g56
(g77
g58
NtRp1824
(dp1825
g61
(dp1826
g81
g82
ssg70
g1820
sg63
(lp1827
S'wsgi_version'
p1828
asbag56
(g77
g58
NtRp1829
(dp1830
g61
(dp1831
g88
g89
ssg70
g1820
sg63
(lp1832
S':'
asbag56
(g77
g58
NtRp1833
(dp1834
g61
(dp1835
sg70
g1820
sg63
(lp1836
g56
(g57
g58
NtRp1837
(dp1838
g61
(dp1839
g69
I4
ssg70
g1833
sg63
(lp1840
g56
(g65
g58
NtRp1841
(dp1842
g61
(dp1843
g69
I3
ssg70
Nsg63
(lp1844
g56
(g72
g58
NtRp1845
(dp1846
g61
(dp1847
sg70
g1841
sg63
(lp1848
g56
(g77
g58
NtRp1849
(dp1850
g61
(dp1851
sg70
g1845
sg63
(lp1852
g56
(g57
g58
NtRp1853
(dp1854
g61
(dp1855
g69
I3
ssg70
g1849
sg63
(lp1856
S'1'
asbasbasbag56
(g72
g58
NtRp1857
(dp1858
g61
(dp1859
sg70
g1841
sg63
(lp1860
g56
(g77
g58
NtRp1861
(dp1862
g61
(dp1863
sg70
g1857
sg63
(lp1864
g56
(g57
g58
NtRp1865
(dp1866
g61
(dp1867
g69
I3
ssg70
g1861
sg63
(lp1868
S'0'
asbasbasbasbasbasbasbasbasbasbasbag56
(g72
g58
NtRp1869
(dp1870
g61
(dp1871
sg70
g66
sg63
(lp1872
g56
(g77
g58
NtRp1873
(dp1874
g61
(dp1875
g81
g82
ssg70
g1869
sg63
(lp1876
S'extension'
p1877
asbag56
(g77
g58
NtRp1878
(dp1879
g61
(dp1880
g88
g89
ssg70
g1869
sg63
(lp1881
S':'
asbag56
(g77
g58
NtRp1882
(dp1883
g61
(dp1884
sg70
g1869
sg63
(lp1885
g56
(g57
g58
NtRp1886
(dp1887
g61
(dp1888
g69
I5
ssg70
g1882
sg63
(lp1889
S'html'
p1890
asbasbasbag56
(g72
g58
NtRp1891
(dp1892
g61
(dp1893
sg70
g66
sg63
(lp1894
g56
(g77
g58
NtRp1895
(dp1896
g61
(dp1897
g81
g82
ssg70
g1891
sg63
(lp1898
S'folder'
p1899
asbag56
(g77
g58
NtRp1900
(dp1901
g61
(dp1902
g88
g89
ssg70
g1891
sg63
(lp1903
S':'
asbag56
(g77
g58
NtRp1904
(dp1905
g61
(dp1906
sg70
g1891
sg63
(lp1907
g56
(g57
g58
NtRp1908
(dp1909
g61
(dp1910
g69
I5
ssg70
g1904
sg63
(lp1911
S'/home/alumno/web2py/applications/datos/'
p1912
asbasbasbag56
(g72
g58
NtRp1913
(dp1914
g61
(dp1915
sg70
g66
sg63
(lp1916
g56
(g77
g58
NtRp1917
(dp1918
g61
(dp1919
g81
g82
ssg70
g1913
sg63
(lp1920
S'function'
p1921
asbag56
(g77
g58
NtRp1922
(dp1923
g61
(dp1924
g88
g89
ssg70
g1913
sg63
(lp1925
S':'
asbag56
(g77
g58
NtRp1926
(dp1927
g61
(dp1928
sg70
g1913
sg63
(lp1929
g56
(g57
g58
NtRp1930
(dp1931
g61
(dp1932
g69
I5
ssg70
g1926
sg63
(lp1933
S'index'
p1934
asbasbasbag56
(g72
g58
NtRp1935
(dp1936
g61
(dp1937
sg70
g66
sg63
(lp1938
g56
(g77
g58
NtRp1939
(dp1940
g61
(dp1941
g81
g82
ssg70
g1935
sg63
(lp1942
S'get_vars'
p1943
asbag56
(g77
g58
NtRp1944
(dp1945
g61
(dp1946
g88
g89
ssg70
g1935
sg63
(lp1947
S':'
asbag56
(g77
g58
NtRp1948
(dp1949
g61
(dp1950
sg70
g1935
sg63
(lp1951
g56
(g57
g58
NtRp1952
(dp1953
g61
(dp1954
g69
I5
ssg70
g1948
sg63
(lp1955
g56
(g65
g58
NtRp1956
(dp1957
g61
(dp1958
g69
I4
ssg70
Nsg63
(lp1959
sbasbasbasbag56
(g72
g58
NtRp1960
(dp1961
g61
(dp1962
sg70
g66
sg63
(lp1963
g56
(g77
g58
NtRp1964
(dp1965
g61
(dp1966
g81
g82
ssg70
g1960
sg63
(lp1967
S'is_https'
p1968
asbag56
(g77
g58
NtRp1969
(dp1970
g61
(dp1971
g88
g89
ssg70
g1960
sg63
(lp1972
S':'
asbag56
(g77
g58
NtRp1973
(dp1974
g61
(dp1975
sg70
g1960
sg63
(lp1976
g56
(g57
g58
NtRp1977
(dp1978
g61
(dp1979
g69
I5
ssg70
g1973
sg63
(lp1980
g99
asbasbasbag56
(g72
g58
NtRp1981
(dp1982
g61
(dp1983
sg70
g66
sg63
(lp1984
g56
(g77
g58
NtRp1985
(dp1986
g61
(dp1987
g81
g82
ssg70
g1981
sg63
(lp1988
S'is_local'
p1989
asbag56
(g77
g58
NtRp1990
(dp1991
g61
(dp1992
g88
g89
ssg70
g1981
sg63
(lp1993
S':'
asbag56
(g77
g58
NtRp1994
(dp1995
g61
(dp1996
sg70
g1981
sg63
(lp1997
g56
(g57
g58
NtRp1998
(dp1999
g61
(dp2000
g69
I5
ssg70
g1994
sg63
(lp2001
g1776
asbasbasbag56
(g72
g58
NtRp2002
(dp2003
g61
(dp2004
sg70
g66
sg63
(lp2005
g56
(g77
g58
NtRp2006
(dp2007
g61
(dp2008
g81
g82
ssg70
g2002
sg63
(lp2009
S'is_restful'
p2010
asbag56
(g77
g58
NtRp2011
(dp2012
g61
(dp2013
g88
g89
ssg70
g2002
sg63
(lp2014
S':'
asbag56
(g77
g58
NtRp2015
(dp2016
g61
(dp2017
sg70
g2002
sg63
(lp2018
g56
(g57
g58
NtRp2019
(dp2020
g61
(dp2021
g69
I5
ssg70
g2015
sg63
(lp2022
g99
asbasbasbag56
(g72
g58
NtRp2023
(dp2024
g61
(dp2025
sg70
g66
sg63
(lp2026
g56
(g77
g58
NtRp2027
(dp2028
g61
(dp2029
g81
g82
ssg70
g2023
sg63
(lp2030
S'now'
p2031
asbag56
(g77
g58
NtRp2032
(dp2033
g61
(dp2034
g88
g89
ssg70
g2023
sg63
(lp2035
S':'
asbag56
(g77
g58
NtRp2036
(dp2037
g61
(dp2038
sg70
g2023
sg63
(lp2039
g56
(g57
g58
NtRp2040
(dp2041
g61
(dp2042
g69
I5
ssg70
g2036
sg63
(lp2043
S'datetime.datetime(2011, 9, 10, 14, 54, 15, 347866)'
p2044
asbasbasbag56
(g72
g58
NtRp2045
(dp2046
g61
(dp2047
sg70
g66
sg63
(lp2048
g56
(g77
g58
NtRp2049
(dp2050
g61
(dp2051
g81
g82
ssg70
g2045
sg63
(lp2052
S'post_vars'
p2053
asbag56
(g77
g58
NtRp2054
(dp2055
g61
(dp2056
g88
g89
ssg70
g2045
sg63
(lp2057
S':'
asbag56
(g77
g58
NtRp2058
(dp2059
g61
(dp2060
sg70
g2045
sg63
(lp2061
g56
(g57
g58
NtRp2062
(dp2063
g61
(dp2064
g69
I5
ssg70
g2058
sg63
(lp2065
g56
(g65
g58
NtRp2066
(dp2067
g61
(dp2068
g69
I4
ssg70
Nsg63
(lp2069
sbasbasbasbag56
(g72
g58
NtRp2070
(dp2071
g61
(dp2072
sg70
g66
sg63
(lp2073
g56
(g77
g58
NtRp2074
(dp2075
g61
(dp2076
g81
g82
ssg70
g2070
sg63
(lp2077
S'url'
p2078
asbag56
(g77
g58
NtRp2079
(dp2080
g61
(dp2081
g88
g89
ssg70
g2070
sg63
(lp2082
S':'
asbag56
(g77
g58
NtRp2083
(dp2084
g61
(dp2085
sg70
g2070
sg63
(lp2086
g56
(g57
g58
NtRp2087
(dp2088
g61
(dp2089
g69
I5
ssg70
g2083
sg63
(lp2090
S'/datos/default/index'
p2091
asbasbasbag56
(g72
g58
NtRp2092
(dp2093
g61
(dp2094
sg70
g66
sg63
(lp2095
g56
(g77
g58
NtRp2096
(dp2097
g61
(dp2098
g81
g82
ssg70
g2092
sg63
(lp2099
S'uuid'
p2100
asbag56
(g77
g58
NtRp2101
(dp2102
g61
(dp2103
g88
g89
ssg70
g2092
sg63
(lp2104
S':'
asbag56
(g77
g58
NtRp2105
(dp2106
g61
(dp2107
sg70
g2092
sg63
(lp2108
g56
(g57
g58
NtRp2109
(dp2110
g61
(dp2111
g69
I5
ssg70
g2105
sg63
(lp2112
S'datos/127.0.0.1.2011-09-10.14-54-15.52ac725f-9747-4d32-ad04-dfe3ede141ba'
p2113
asbasbasbag56
(g72
g58
NtRp2114
(dp2115
g61
(dp2116
sg70
g66
sg63
(lp2117
g56
(g77
g58
NtRp2118
(dp2119
g61
(dp2120
g81
g82
ssg70
g2114
sg63
(lp2121
S'vars'
p2122
asbag56
(g77
g58
NtRp2123
(dp2124
g61
(dp2125
g88
g89
ssg70
g2114
sg63
(lp2126
S':'
asbag56
(g77
g58
NtRp2127
(dp2128
g61
(dp2129
sg70
g2114
sg63
(lp2130
g56
(g57
g58
NtRp2131
(dp2132
g61
(dp2133
g69
I5
ssg70
g2127
sg63
(lp2134
g56
(g65
g58
NtRp2135
(dp2136
g61
(dp2137
g69
I4
ssg70
Nsg63
(lp2138
sbasbasbasbag56
(g72
g58
NtRp2139
(dp2140
g61
(dp2141
sg70
g66
sg63
(lp2142
g56
(g77
g58
NtRp2143
(dp2144
g61
(dp2145
g81
g82
ssg70
g2139
sg63
(lp2146
S'wsgi'
p2147
asbag56
(g77
g58
NtRp2148
(dp2149
g61
(dp2150
g88
g89
ssg70
g2139
sg63
(lp2151
S':'
asbag56
(g77
g58
NtRp2152
(dp2153
g61
(dp2154
sg70
g2139
sg63
(lp2155
g56
(g57
g58
NtRp2156
(dp2157
g61
(dp2158
g69
I5
ssg70
g2152
sg63
(lp2159
g56
(g65
g58
NtRp2160
(dp2161
g61
(dp2162
g69
I4
ssg70
Nsg63
(lp2163
g56
(g72
g58
NtRp2164
(dp2165
g61
(dp2166
sg70
g2160
sg63
(lp2167
g56
(g77
g58
NtRp2168
(dp2169
g61
(dp2170
g81
g82
ssg70
g2164
sg63
(lp2171
S'environ'
p2172
asbag56
(g77
g58
NtRp2173
(dp2174
g61
(dp2175
g88
g89
ssg70
g2164
sg63
(lp2176
S':'
asbag56
(g77
g58
NtRp2177
(dp2178
g61
(dp2179
sg70
g2164
sg63
(lp2180
g56
(g57
g58
NtRp2181
(dp2182
g61
(dp2183
g69
I4
ssg70
g2177
sg63
(lp2184
g56
(g65
g58
NtRp2185
(dp2186
g61
(dp2187
g69
I3
ssg70
Nsg63
(lp2188
g56
(g72
g58
NtRp2189
(dp2190
g61
(dp2191
sg70
g2185
sg63
(lp2192
g56
(g77
g58
NtRp2193
(dp2194
g61
(dp2195
g81
g82
ssg70
g2189
sg63
(lp2196
S'HTTP_ACCEPT'
p2197
asbag56
(g77
g58
NtRp2198
(dp2199
g61
(dp2200
g88
g89
ssg70
g2189
sg63
(lp2201
S':'
asbag56
(g77
g58
NtRp2202
(dp2203
g61
(dp2204
sg70
g2189
sg63
(lp2205
g56
(g57
g58
NtRp2206
(dp2207
g61
(dp2208
g69
I3
ssg70
g2202
sg63
(lp2209
g1187
asbasbasbag56
(g72
g58
NtRp2210
(dp2211
g61
(dp2212
sg70
g2185
sg63
(lp2213
g56
(g77
g58
NtRp2214
(dp2215
g61
(dp2216
g81
g82
ssg70
g2210
sg63
(lp2217
S'HTTP_ACCEPT_CHARSET'
p2218
asbag56
(g77
g58
NtRp2219
(dp2220
g61
(dp2221
g88
g89
ssg70
g2210
sg63
(lp2222
S':'
asbag56
(g77
g58
NtRp2223
(dp2224
g61
(dp2225
sg70
g2210
sg63
(lp2226
g56
(g57
g58
NtRp2227
(dp2228
g61
(dp2229
g69
I3
ssg70
g2223
sg63
(lp2230
g1209
asbasbasbag56
(g72
g58
NtRp2231
(dp2232
g61
(dp2233
sg70
g2185
sg63
(lp2234
g56
(g77
g58
NtRp2235
(dp2236
g61
(dp2237
g81
g82
ssg70
g2231
sg63
(lp2238
S'HTTP_ACCEPT_ENCODING'
p2239
asbag56
(g77
g58
NtRp2240
(dp2241
g61
(dp2242
g88
g89
ssg70
g2231
sg63
(lp2243
S':'
asbag56
(g77
g58
NtRp2244
(dp2245
g61
(dp2246
sg70
g2231
sg63
(lp2247
g56
(g57
g58
NtRp2248
(dp2249
g61
(dp2250
g69
I3
ssg70
g2244
sg63
(lp2251
g1231
asbasbasbag56
(g72
g58
NtRp2252
(dp2253
g61
(dp2254
sg70
g2185
sg63
(lp2255
g56
(g77
g58
NtRp2256
(dp2257
g61
(dp2258
g81
g82
ssg70
g2252
sg63
(lp2259
S'HTTP_ACCEPT_LANGUAGE'
p2260
asbag56
(g77
g58
NtRp2261
(dp2262
g61
(dp2263
g88
g89
ssg70
g2252
sg63
(lp2264
S':'
asbag56
(g77
g58
NtRp2265
(dp2266
g61
(dp2267
sg70
g2252
sg63
(lp2268
g56
(g57
g58
NtRp2269
(dp2270
g61
(dp2271
g69
I3
ssg70
g2265
sg63
(lp2272
g1253
asbasbasbag56
(g72
g58
NtRp2273
(dp2274
g61
(dp2275
sg70
g2185
sg63
(lp2276
g56
(g77
g58
NtRp2277
(dp2278
g61
(dp2279
g81
g82
ssg70
g2273
sg63
(lp2280
S'HTTP_CACHE_CONTROL'
p2281
asbag56
(g77
g58
NtRp2282
(dp2283
g61
(dp2284
g88
g89
ssg70
g2273
sg63
(lp2285
S':'
asbag56
(g77
g58
NtRp2286
(dp2287
g61
(dp2288
sg70
g2273
sg63
(lp2289
g56
(g57
g58
NtRp2290
(dp2291
g61
(dp2292
g69
I3
ssg70
g2286
sg63
(lp2293
g1275
asbasbasbag56
(g72
g58
NtRp2294
(dp2295
g61
(dp2296
sg70
g2185
sg63
(lp2297
g56
(g77
g58
NtRp2298
(dp2299
g61
(dp2300
g81
g82
ssg70
g2294
sg63
(lp2301
S'HTTP_CONNECTION'
p2302
asbag56
(g77
g58
NtRp2303
(dp2304
g61
(dp2305
g88
g89
ssg70
g2294
sg63
(lp2306
S':'
asbag56
(g77
g58
NtRp2307
(dp2308
g61
(dp2309
sg70
g2294
sg63
(lp2310
g56
(g57
g58
NtRp2311
(dp2312
g61
(dp2313
g69
I3
ssg70
g2307
sg63
(lp2314
g1297
asbasbasbag56
(g72
g58
NtRp2315
(dp2316
g61
(dp2317
sg70
g2185
sg63
(lp2318
g56
(g77
g58
NtRp2319
(dp2320
g61
(dp2321
g81
g82
ssg70
g2315
sg63
(lp2322
S'HTTP_COOKIE'
p2323
asbag56
(g77
g58
NtRp2324
(dp2325
g61
(dp2326
g88
g89
ssg70
g2315
sg63
(lp2327
S':'
asbag56
(g77
g58
NtRp2328
(dp2329
g61
(dp2330
sg70
g2315
sg63
(lp2331
g56
(g57
g58
NtRp2332
(dp2333
g61
(dp2334
g69
I3
ssg70
g2328
sg63
(lp2335
g1319
asbasbasbag56
(g72
g58
NtRp2336
(dp2337
g61
(dp2338
sg70
g2185
sg63
(lp2339
g56
(g77
g58
NtRp2340
(dp2341
g61
(dp2342
g81
g82
ssg70
g2336
sg63
(lp2343
S'HTTP_HOST'
p2344
asbag56
(g77
g58
NtRp2345
(dp2346
g61
(dp2347
g88
g89
ssg70
g2336
sg63
(lp2348
S':'
asbag56
(g77
g58
NtRp2349
(dp2350
g61
(dp2351
sg70
g2336
sg63
(lp2352
g56
(g57
g58
NtRp2353
(dp2354
g61
(dp2355
g69
I3
ssg70
g2349
sg63
(lp2356
g1341
asbasbasbag56
(g72
g58
NtRp2357
(dp2358
g61
(dp2359
sg70
g2185
sg63
(lp2360
g56
(g77
g58
NtRp2361
(dp2362
g61
(dp2363
g81
g82
ssg70
g2357
sg63
(lp2364
S'HTTP_REFERER'
p2365
asbag56
(g77
g58
NtRp2366
(dp2367
g61
(dp2368
g88
g89
ssg70
g2357
sg63
(lp2369
S':'
asbag56
(g77
g58
NtRp2370
(dp2371
g61
(dp2372
sg70
g2357
sg63
(lp2373
g56
(g57
g58
NtRp2374
(dp2375
g61
(dp2376
g69
I3
ssg70
g2370
sg63
(lp2377
g1363
asbasbasbag56
(g72
g58
NtRp2378
(dp2379
g61
(dp2380
sg70
g2185
sg63
(lp2381
g56
(g77
g58
NtRp2382
(dp2383
g61
(dp2384
g81
g82
ssg70
g2378
sg63
(lp2385
S'HTTP_USER_AGENT'
p2386
asbag56
(g77
g58
NtRp2387
(dp2388
g61
(dp2389
g88
g89
ssg70
g2378
sg63
(lp2390
S':'
asbag56
(g77
g58
NtRp2391
(dp2392
g61
(dp2393
sg70
g2378
sg63
(lp2394
g56
(g57
g58
NtRp2395
(dp2396
g61
(dp2397
g69
I3
ssg70
g2391
sg63
(lp2398
g1385
asbasbasbag56
(g72
g58
NtRp2399
(dp2400
g61
(dp2401
sg70
g2185
sg63
(lp2402
g56
(g77
g58
NtRp2403
(dp2404
g61
(dp2405
g81
g82
ssg70
g2399
sg63
(lp2406
S'PATH_INFO'
p2407
asbag56
(g77
g58
NtRp2408
(dp2409
g61
(dp2410
g88
g89
ssg70
g2399
sg63
(lp2411
S':'
asbag56
(g77
g58
NtRp2412
(dp2413
g61
(dp2414
sg70
g2399
sg63
(lp2415
g56
(g57
g58
NtRp2416
(dp2417
g61
(dp2418
g69
I3
ssg70
g2412
sg63
(lp2419
g1407
asbasbasbag56
(g72
g58
NtRp2420
(dp2421
g61
(dp2422
sg70
g2185
sg63
(lp2423
g56
(g77
g58
NtRp2424
(dp2425
g61
(dp2426
g81
g82
ssg70
g2420
sg63
(lp2427
S'QUERY_STRING'
p2428
asbag56
(g77
g58
NtRp2429
(dp2430
g61
(dp2431
g88
g89
ssg70
g2420
sg63
(lp2432
S':'
asbag56
(g77
g58
NtRp2433
(dp2434
g61
(dp2435
sg70
g2420
sg63
(lp2436
g56
(g57
g58
NtRp2437
(dp2438
g61
(dp2439
g69
I3
ssg70
g2433
sg63
(lp2440
S''
asbasbasbag56
(g72
g58
NtRp2441
(dp2442
g61
(dp2443
sg70
g2185
sg63
(lp2444
g56
(g77
g58
NtRp2445
(dp2446
g61
(dp2447
g81
g82
ssg70
g2441
sg63
(lp2448
S'REMOTE_ADDR'
p2449
asbag56
(g77
g58
NtRp2450
(dp2451
g61
(dp2452
g88
g89
ssg70
g2441
sg63
(lp2453
S':'
asbag56
(g77
g58
NtRp2454
(dp2455
g61
(dp2456
sg70
g2441
sg63
(lp2457
g56
(g57
g58
NtRp2458
(dp2459
g61
(dp2460
g69
I3
ssg70
g2454
sg63
(lp2461
g189
asbasbasbag56
(g72
g58
NtRp2462
(dp2463
g61
(dp2464
sg70
g2185
sg63
(lp2465
g56
(g77
g58
NtRp2466
(dp2467
g61
(dp2468
g81
g82
ssg70
g2462
sg63
(lp2469
S'REMOTE_PORT'
p2470
asbag56
(g77
g58
NtRp2471
(dp2472
g61
(dp2473
g88
g89
ssg70
g2462
sg63
(lp2474
S':'
asbag56
(g77
g58
NtRp2475
(dp2476
g61
(dp2477
sg70
g2462
sg63
(lp2478
g56
(g57
g58
NtRp2479
(dp2480
g61
(dp2481
g69
I3
ssg70
g2475
sg63
(lp2482
g1471
asbasbasbag56
(g72
g58
NtRp2483
(dp2484
g61
(dp2485
sg70
g2185
sg63
(lp2486
g56
(g77
g58
NtRp2487
(dp2488
g61
(dp2489
g81
g82
ssg70
g2483
sg63
(lp2490
S'REQUEST_METHOD'
p2491
asbag56
(g77
g58
NtRp2492
(dp2493
g61
(dp2494
g88
g89
ssg70
g2483
sg63
(lp2495
S':'
asbag56
(g77
g58
NtRp2496
(dp2497
g61
(dp2498
sg70
g2483
sg63
(lp2499
g56
(g57
g58
NtRp2500
(dp2501
g61
(dp2502
g69
I3
ssg70
g2496
sg63
(lp2503
g1493
asbasbasbag56
(g72
g58
NtRp2504
(dp2505
g61
(dp2506
sg70
g2185
sg63
(lp2507
g56
(g77
g58
NtRp2508
(dp2509
g61
(dp2510
g81
g82
ssg70
g2504
sg63
(lp2511
S'SCRIPT_NAME'
p2512
asbag56
(g77
g58
NtRp2513
(dp2514
g61
(dp2515
g88
g89
ssg70
g2504
sg63
(lp2516
S':'
asbag56
(g77
g58
NtRp2517
(dp2518
g61
(dp2519
sg70
g2504
sg63
(lp2520
g56
(g57
g58
NtRp2521
(dp2522
g61
(dp2523
g69
I3
ssg70
g2517
sg63
(lp2524
S''
asbasbasbag56
(g72
g58
NtRp2525
(dp2526
g61
(dp2527
sg70
g2185
sg63
(lp2528
g56
(g77
g58
NtRp2529
(dp2530
g61
(dp2531
g81
g82
ssg70
g2525
sg63
(lp2532
S'SERVER_NAME'
p2533
asbag56
(g77
g58
NtRp2534
(dp2535
g61
(dp2536
g88
g89
ssg70
g2525
sg63
(lp2537
S':'
asbag56
(g77
g58
NtRp2538
(dp2539
g61
(dp2540
sg70
g2525
sg63
(lp2541
g56
(g57
g58
NtRp2542
(dp2543
g61
(dp2544
g69
I3
ssg70
g2538
sg63
(lp2545
g1536
asbasbasbag56
(g72
g58
NtRp2546
(dp2547
g61
(dp2548
sg70
g2185
sg63
(lp2549
g56
(g77
g58
NtRp2550
(dp2551
g61
(dp2552
g81
g82
ssg70
g2546
sg63
(lp2553
S'SERVER_PORT'
p2554
asbag56
(g77
g58
NtRp2555
(dp2556
g61
(dp2557
g88
g89
ssg70
g2546
sg63
(lp2558
S':'
asbag56
(g77
g58
NtRp2559
(dp2560
g61
(dp2561
sg70
g2546
sg63
(lp2562
g56
(g57
g58
NtRp2563
(dp2564
g61
(dp2565
g69
I3
ssg70
g2559
sg63
(lp2566
g1558
asbasbasbag56
(g72
g58
NtRp2567
(dp2568
g61
(dp2569
sg70
g2185
sg63
(lp2570
g56
(g77
g58
NtRp2571
(dp2572
g61
(dp2573
g81
g82
ssg70
g2567
sg63
(lp2574
S'SERVER_PROTOCOL'
p2575
asbag56
(g77
g58
NtRp2576
(dp2577
g61
(dp2578
g88
g89
ssg70
g2567
sg63
(lp2579
S':'
asbag56
(g77
g58
NtRp2580
(dp2581
g61
(dp2582
sg70
g2567
sg63
(lp2583
g56
(g57
g58
NtRp2584
(dp2585
g61
(dp2586
g69
I3
ssg70
g2580
sg63
(lp2587
g1580
asbasbasbag56
(g72
g58
NtRp2588
(dp2589
g61
(dp2590
sg70
g2185
sg63
(lp2591
g56
(g77
g58
NtRp2592
(dp2593
g61
(dp2594
g81
g82
ssg70
g2588
sg63
(lp2595
S'SERVER_SOFTWARE'
p2596
asbag56
(g77
g58
NtRp2597
(dp2598
g61
(dp2599
g88
g89
ssg70
g2588
sg63
(lp2600
S':'
asbag56
(g77
g58
NtRp2601
(dp2602
g61
(dp2603
sg70
g2588
sg63
(lp2604
g56
(g57
g58
NtRp2605
(dp2606
g61
(dp2607
g69
I3
ssg70
g2601
sg63
(lp2608
g1602
asbasbasbag56
(g72
g58
NtRp2609
(dp2610
g61
(dp2611
sg70
g2185
sg63
(lp2612
g56
(g77
g58
NtRp2613
(dp2614
g61
(dp2615
g81
g82
ssg70
g2609
sg63
(lp2616
S'wsgi.errors'
p2617
asbag56
(g77
g58
NtRp2618
(dp2619
g61
(dp2620
g88
g89
ssg70
g2609
sg63
(lp2621
S':'
asbag56
(g77
g58
NtRp2622
(dp2623
g61
(dp2624
sg70
g2609
sg63
(lp2625
g56
(g57
g58
NtRp2626
(dp2627
g61
(dp2628
g69
I3
ssg70
g2622
sg63
(lp2629
S"<open file '<stderr>', mode 'w' at 0xb77f60d0>"
p2630
asbasbasbag56
(g72
g58
NtRp2631
(dp2632
g61
(dp2633
sg70
g2185
sg63
(lp2634
g56
(g77
g58
NtRp2635
(dp2636
g61
(dp2637
g81
g82
ssg70
g2631
sg63
(lp2638
S'wsgi.file_wrapper'
p2639
asbag56
(g77
g58
NtRp2640
(dp2641
g61
(dp2642
g88
g89
ssg70
g2631
sg63
(lp2643
S':'
asbag56
(g77
g58
NtRp2644
(dp2645
g61
(dp2646
sg70
g2631
sg63
(lp2647
g56
(g57
g58
NtRp2648
(dp2649
g61
(dp2650
g69
I3
ssg70
g2644
sg63
(lp2651
S'<class gluon.rocket.FileWrapper at 0x8ea1e3c>'
p2652
asbasbasbag56
(g72
g58
NtRp2653
(dp2654
g61
(dp2655
sg70
g2185
sg63
(lp2656
g56
(g77
g58
NtRp2657
(dp2658
g61
(dp2659
g81
g82
ssg70
g2653
sg63
(lp2660
S'wsgi.input'
p2661
asbag56
(g77
g58
NtRp2662
(dp2663
g61
(dp2664
g88
g89
ssg70
g2653
sg63
(lp2665
S':'
asbag56
(g77
g58
NtRp2666
(dp2667
g61
(dp2668
sg70
g2653
sg63
(lp2669
g56
(g57
g58
NtRp2670
(dp2671
g61
(dp2672
g69
I3
ssg70
g2666
sg63
(lp2673
S'<cStringIO.StringO object at 0x9190d00>'
p2674
asbasbasbag56
(g72
g58
NtRp2675
(dp2676
g61
(dp2677
sg70
g2185
sg63
(lp2678
g56
(g77
g58
NtRp2679
(dp2680
g61
(dp2681
g81
g82
ssg70
g2675
sg63
(lp2682
S'wsgi.multiprocess'
p2683
asbag56
(g77
g58
NtRp2684
(dp2685
g61
(dp2686
g88
g89
ssg70
g2675
sg63
(lp2687
S':'
asbag56
(g77
g58
NtRp2688
(dp2689
g61
(dp2690
sg70
g2675
sg63
(lp2691
g56
(g57
g58
NtRp2692
(dp2693
g61
(dp2694
g69
I3
ssg70
g2688
sg63
(lp2695
g99
asbasbasbag56
(g72
g58
NtRp2696
(dp2697
g61
(dp2698
sg70
g2185
sg63
(lp2699
g56
(g77
g58
NtRp2700
(dp2701
g61
(dp2702
g81
g82
ssg70
g2696
sg63
(lp2703
S'wsgi.multithread'
p2704
asbag56
(g77
g58
NtRp2705
(dp2706
g61
(dp2707
g88
g89
ssg70
g2696
sg63
(lp2708
S':'
asbag56
(g77
g58
NtRp2709
(dp2710
g61
(dp2711
sg70
g2696
sg63
(lp2712
g56
(g57
g58
NtRp2713
(dp2714
g61
(dp2715
g69
I3
ssg70
g2709
sg63
(lp2716
g1776
asbasbasbag56
(g72
g58
NtRp2717
(dp2718
g61
(dp2719
sg70
g2185
sg63
(lp2720
g56
(g77
g58
NtRp2721
(dp2722
g61
(dp2723
g81
g82
ssg70
g2717
sg63
(lp2724
S'wsgi.run_once'
p2725
asbag56
(g77
g58
NtRp2726
(dp2727
g61
(dp2728
g88
g89
ssg70
g2717
sg63
(lp2729
S':'
asbag56
(g77
g58
NtRp2730
(dp2731
g61
(dp2732
sg70
g2717
sg63
(lp2733
g56
(g57
g58
NtRp2734
(dp2735
g61
(dp2736
g69
I3
ssg70
g2730
sg63
(lp2737
g99
asbasbasbag56
(g72
g58
NtRp2738
(dp2739
g61
(dp2740
sg70
g2185
sg63
(lp2741
g56
(g77
g58
NtRp2742
(dp2743
g61
(dp2744
g81
g82
ssg70
g2738
sg63
(lp2745
S'wsgi.url_scheme'
p2746
asbag56
(g77
g58
NtRp2747
(dp2748
g61
(dp2749
g88
g89
ssg70
g2738
sg63
(lp2750
S':'
asbag56
(g77
g58
NtRp2751
(dp2752
g61
(dp2753
sg70
g2738
sg63
(lp2754
g56
(g57
g58
NtRp2755
(dp2756
g61
(dp2757
g69
I3
ssg70
g2751
sg63
(lp2758
g1819
asbasbasbag56
(g72
g58
NtRp2759
(dp2760
g61
(dp2761
sg70
g2185
sg63
(lp2762
g56
(g77
g58
NtRp2763
(dp2764
g61
(dp2765
g81
g82
ssg70
g2759
sg63
(lp2766
S'wsgi.version'
p2767
asbag56
(g77
g58
NtRp2768
(dp2769
g61
(dp2770
g88
g89
ssg70
g2759
sg63
(lp2771
S':'
asbag56
(g77
g58
NtRp2772
(dp2773
g61
(dp2774
sg70
g2759
sg63
(lp2775
g56
(g57
g58
NtRp2776
(dp2777
g61
(dp2778
g69
I3
ssg70
g2772
sg63
(lp2779
S'1'
asbasbasbasbasbasbasbasbasbasbasbasbasbsS'frames'
p2780
(lp2781
(dp2782
S'file'
p2783
S'/home/alumno/web2py/gluon/restricted.py'
p2784
sS'dump'
p2785
(dp2786
S'environment'
p2787
S"{'A': <class 'gluon.html.A'>, 'B': <class 'gluon.html.B'>, 'BEAUTIFY': <class 'gluon.html.BEAUTIFY'>, 'BODY': <class 'gluon.html.BODY'>, 'BR': <class 'gluon.html.BR'>, 'CENTER': <class 'gluon.html.CENTER'>, 'CLEANUP': <class 'gluon.validators.CLEANUP'>, 'CODE': <class 'gluon.html.CODE'>, 'CRYPT': <class 'gluon.validators.CRYPT'>, 'DAL': <class 'gluon.dal.DAL'>, ...}"
p2788
sS'ccode'
p2789
S'<code object <module> at 0x96b3de8, file "/home/...ications/datos/views/default/index.html", line 1>'
p2790
ssS'lnum'
p2791
I192
sS'lines'
p2792
(dp2793
I192
S'        exec ccode in environment'
p2794
sI193
S'    except HTTP:'
p2795
sI194
S'        raise'
p2796
sI195
S'    except Exception:'
p2797
sI196
S'        # XXX Show exception in Wing IDE if running in debugger'
p2798
sI187
S'    try:'
p2799
sI188
S'        if type(code) == types.CodeType:'
p2800
sI189
S'            ccode = code'
p2801
sI190
S'        else:'
p2802
sI191
S'            ccode = compile2(code,layer)'
p2803
ssS'call'
p2804
S'(code=\'response.write(\\\'<!DOCTYPE html>\\\\n<html lang="\\\', ...t   -->    \\\\n  </body>\\\\n</html>\\\\n\\\', escape=False)\', environment={\'A\': <class \'gluon.html.A\'>, \'B\': <class \'gluon.html.B\'>, \'BEAUTIFY\': <class \'gluon.html.BEAUTIFY\'>, \'BODY\': <class \'gluon.html.BODY\'>, \'BR\': <class \'gluon.html.BR\'>, \'CENTER\': <class \'gluon.html.CENTER\'>, \'CLEANUP\': <class \'gluon.validators.CLEANUP\'>, \'CODE\': <class \'gluon.html.CODE\'>, \'CRYPT\': <class \'gluon.validators.CRYPT\'>, \'DAL\': <class \'gluon.dal.DAL\'>, ...}, layer=\'/home/alumno/web2py/applications/datos/views/default/index.html\')'
p2805
sS'func'
p2806
S'restricted'
p2807
sa(dp2808
g2783
S'/home/alumno/web2py/applications/datos/views/default/index.html'
p2809
sg2785
(dp2810
sg2791
I111
sg2792
(dp2811
I102
S'    response.write("\\n    <ul>\\n    <li><a href=\'detalle/", escape=False)'
p2812
sI103
S'    response.write(alumno.codigo)'
p2813
sI104
S'    response.write("\'>", escape=False)'
p2814
sI105
S'    response.write(alumno.nombre)'
p2815
sI106
S"    response.write(' ', escape=False)"
p2816
sI107
S'    response.write(alumno.apellidos)'
p2817
sI108
S"    response.write('</a></li>\\n    <hr>\\n    </ul>    \\n', escape=False)"
p2818
sI109
S'    pass'
p2819
sI110
S"response.write('\\n</p>\\n<h1>Profesores</h1>\\n\\n<p>este es el registro de profesores en el sistema\\n\\n', escape=False)"
p2820
sI111
S'for profesor in profesores:'
p2821
sI112
S'    response.write("\\n    <ul>\\n    <li><a href=\'detalle/", escape=False)'
p2822
sI113
S'    response.write(profesor.codigo)'
p2823
sI114
S'    response.write("\'>", escape=False)'
p2824
sI115
S'    response.write(profesor.nombre_completo)'
p2825
sI116
S"    response.write(' ', escape=False)"
p2826
sI117
S'    response.write(profesor.especialidad)'
p2827
sI118
S"    response.write('</a></li>\\n    <hr>\\n    </ul>\\n', escape=False)"
p2828
sI119
S'    pass'
p2829
sI120
S"response.write('    \\n\\n</p>\\n', escape=False)"
p2830
sI121
S"response.write('\\t\\n\\t  </div>\\n\\t  <!-- content -->\\n\\n\\t  ', escape=False)"
p2831
ssg2804
S'()'
p2832
sg2806
S'<module>'
p2833
sasS'pyver'
p2834
S'Python 2.6.6: /usr/bin/python'
p2835
sS'session'
p2836
g56
(g57
g58
NtRp2837
(dp2838
g61
(dp2839
sg63
(lp2840
g56
(g65
g58
NtRp2841
(dp2842
g61
(dp2843
g69
I5
ssg70
Nsg63
(lp2844
sbasbsS'etype'
p2845
S"<type 'exceptions.NameError'>"
p2846
sS'date'
p2847
S'Sat Sep 10 14:54:15 2011'
p2848
sS'response'
p2849
g56
(g57
g58
NtRp2850
(dp2851
g61
(dp2852
sg63
(lp2853
g56
(g65
g58
NtRp2854
(dp2855
g61
(dp2856
g69
I5
ssg70
Nsg63
(lp2857
g56
(g72
g58
NtRp2858
(dp2859
g61
(dp2860
sg70
g2854
sg63
(lp2861
g56
(g77
g58
NtRp2862
(dp2863
g61
(dp2864
g81
g82
ssg70
g2858
sg63
(lp2865
g154
asbag56
(g77
g58
NtRp2866
(dp2867
g61
(dp2868
g88
g89
ssg70
g2858
sg63
(lp2869
S':'
asbag56
(g77
g58
NtRp2870
(dp2871
g61
(dp2872
sg70
g2858
sg63
(lp2873
g56
(g57
g58
NtRp2874
(dp2875
g61
(dp2876
g69
I5
ssg70
g2870
sg63
(lp2877
S'<cStringIO.StringO object at 0x9190c80>'
p2878
asbasbasbag56
(g72
g58
NtRp2879
(dp2880
g61
(dp2881
sg70
g2854
sg63
(lp2882
g56
(g77
g58
NtRp2883
(dp2884
g61
(dp2885
g81
g82
ssg70
g2879
sg63
(lp2886
g220
asbag56
(g77
g58
NtRp2887
(dp2888
g61
(dp2889
g88
g89
ssg70
g2879
sg63
(lp2890
S':'
asbag56
(g77
g58
NtRp2891
(dp2892
g61
(dp2893
sg70
g2879
sg63
(lp2894
g56
(g57
g58
NtRp2895
(dp2896
g61
(dp2897
g69
I5
ssg70
g2891
sg63
(lp2898
g56
(g65
g58
NtRp2899
(dp2900
g61
(dp2901
g69
I4
ssg70
Nsg63
(lp2902
g56
(g72
g58
NtRp2903
(dp2904
g61
(dp2905
sg70
g2899
sg63
(lp2906
g56
(g77
g58
NtRp2907
(dp2908
g61
(dp2909
g81
g82
ssg70
g2903
sg63
(lp2910
S'session_id_datos'
p2911
asbag56
(g77
g58
NtRp2912
(dp2913
g61
(dp2914
g88
g89
ssg70
g2903
sg63
(lp2915
S':'
asbag56
(g77
g58
NtRp2916
(dp2917
g61
(dp2918
sg70
g2903
sg63
(lp2919
g56
(g57
g58
NtRp2920
(dp2921
g61
(dp2922
g69
I4
ssg70
g2916
sg63
(lp2923
g56
(g65
g58
NtRp2924
(dp2925
g61
(dp2926
g69
I3
ssg70
Nsg63
(lp2927
g56
(g72
g58
NtRp2928
(dp2929
g61
(dp2930
sg70
g2924
sg63
(lp2931
g56
(g77
g58
NtRp2932
(dp2933
g61
(dp2934
g81
g82
ssg70
g2928
sg63
(lp2935
g270
asbag56
(g77
g58
NtRp2936
(dp2937
g61
(dp2938
g88
g89
ssg70
g2928
sg63
(lp2939
S':'
asbag56
(g77
g58
NtRp2940
(dp2941
g61
(dp2942
sg70
g2928
sg63
(lp2943
g56
(g57
g58
NtRp2944
(dp2945
g61
(dp2946
g69
I3
ssg70
g2940
sg63
(lp2947
S''
asbasbasbag56
(g72
g58
NtRp2948
(dp2949
g61
(dp2950
sg70
g2924
sg63
(lp2951
g56
(g77
g58
NtRp2952
(dp2953
g61
(dp2954
g81
g82
ssg70
g2948
sg63
(lp2955
g291
asbag56
(g77
g58
NtRp2956
(dp2957
g61
(dp2958
g88
g89
ssg70
g2948
sg63
(lp2959
S':'
asbag56
(g77
g58
NtRp2960
(dp2961
g61
(dp2962
sg70
g2948
sg63
(lp2963
g56
(g57
g58
NtRp2964
(dp2965
g61
(dp2966
g69
I3
ssg70
g2960
sg63
(lp2967
S''
asbasbasbag56
(g72
g58
NtRp2968
(dp2969
g61
(dp2970
sg70
g2924
sg63
(lp2971
g56
(g77
g58
NtRp2972
(dp2973
g61
(dp2974
g81
g82
ssg70
g2968
sg63
(lp2975
g312
asbag56
(g77
g58
NtRp2976
(dp2977
g61
(dp2978
g88
g89
ssg70
g2968
sg63
(lp2979
S':'
asbag56
(g77
g58
NtRp2980
(dp2981
g61
(dp2982
sg70
g2968
sg63
(lp2983
g56
(g57
g58
NtRp2984
(dp2985
g61
(dp2986
g69
I3
ssg70
g2980
sg63
(lp2987
S''
asbasbasbag56
(g72
g58
NtRp2988
(dp2989
g61
(dp2990
sg70
g2924
sg63
(lp2991
g56
(g77
g58
NtRp2992
(dp2993
g61
(dp2994
g81
g82
ssg70
g2988
sg63
(lp2995
g333
asbag56
(g77
g58
NtRp2996
(dp2997
g61
(dp2998
g88
g89
ssg70
g2988
sg63
(lp2999
S':'
asbag56
(g77
g58
NtRp3000
(dp3001
g61
(dp3002
sg70
g2988
sg63
(lp3003
g56
(g57
g58
NtRp3004
(dp3005
g61
(dp3006
g69
I3
ssg70
g3000
sg63
(lp3007
S''
asbasbasbag56
(g72
g58
NtRp3008
(dp3009
g61
(dp3010
sg70
g2924
sg63
(lp3011
g56
(g77
g58
NtRp3012
(dp3013
g61
(dp3014
g81
g82
ssg70
g3008
sg63
(lp3015
g354
asbag56
(g77
g58
NtRp3016
(dp3017
g61
(dp3018
g88
g89
ssg70
g3008
sg63
(lp3019
S':'
asbag56
(g77
g58
NtRp3020
(dp3021
g61
(dp3022
sg70
g3008
sg63
(lp3023
g56
(g57
g58
NtRp3024
(dp3025
g61
(dp3026
g69
I3
ssg70
g3020
sg63
(lp3027
S''
asbasbasbag56
(g72
g58
NtRp3028
(dp3029
g61
(dp3030
sg70
g2924
sg63
(lp3031
g56
(g77
g58
NtRp3032
(dp3033
g61
(dp3034
g81
g82
ssg70
g3028
sg63
(lp3035
g375
asbag56
(g77
g58
NtRp3036
(dp3037
g61
(dp3038
g88
g89
ssg70
g3028
sg63
(lp3039
S':'
asbag56
(g77
g58
NtRp3040
(dp3041
g61
(dp3042
sg70
g3028
sg63
(lp3043
g56
(g57
g58
NtRp3044
(dp3045
g61
(dp3046
g69
I3
ssg70
g3040
sg63
(lp3047
S'/'
asbasbasbag56
(g72
g58
NtRp3048
(dp3049
g61
(dp3050
sg70
g2924
sg63
(lp3051
g56
(g77
g58
NtRp3052
(dp3053
g61
(dp3054
g81
g82
ssg70
g3048
sg63
(lp3055
g396
asbag56
(g77
g58
NtRp3056
(dp3057
g61
(dp3058
g88
g89
ssg70
g3048
sg63
(lp3059
S':'
asbag56
(g77
g58
NtRp3060
(dp3061
g61
(dp3062
sg70
g3048
sg63
(lp3063
g56
(g57
g58
NtRp3064
(dp3065
g61
(dp3066
g69
I3
ssg70
g3060
sg63
(lp3067
S''
asbasbasbag56
(g72
g58
NtRp3068
(dp3069
g61
(dp3070
sg70
g2924
sg63
(lp3071
g56
(g77
g58
NtRp3072
(dp3073
g61
(dp3074
g81
g82
ssg70
g3068
sg63
(lp3075
g417
asbag56
(g77
g58
NtRp3076
(dp3077
g61
(dp3078
g88
g89
ssg70
g3068
sg63
(lp3079
S':'
asbag56
(g77
g58
NtRp3080
(dp3081
g61
(dp3082
sg70
g3068
sg63
(lp3083
g56
(g57
g58
NtRp3084
(dp3085
g61
(dp3086
g69
I3
ssg70
g3080
sg63
(lp3087
S''
asbasbasbasbasbasbasbasbasbasbasbag56
(g72
g58
NtRp3088
(dp3089
g61
(dp3090
sg70
g2854
sg63
(lp3091
g56
(g77
g58
NtRp3092
(dp3093
g61
(dp3094
g81
g82
ssg70
g3088
sg63
(lp3095
S'files'
p3096
asbag56
(g77
g58
NtRp3097
(dp3098
g61
(dp3099
g88
g89
ssg70
g3088
sg63
(lp3100
S':'
asbag56
(g77
g58
NtRp3101
(dp3102
g61
(dp3103
sg70
g3088
sg63
(lp3104
g56
(g57
g58
NtRp3105
(dp3106
g61
(dp3107
g69
I5
ssg70
g3101
sg63
(lp3108
g56
(g65
g58
NtRp3109
(dp3110
g61
(dp3111
g69
I4
ssg70
Nsg63
(lp3112
g56
(g72
g58
NtRp3113
(dp3114
g61
(dp3115
sg70
g3109
sg63
(lp3116
g56
(g77
g58
NtRp3117
(dp3118
g61
(dp3119
sg70
g3113
sg63
(lp3120
g56
(g57
g58
NtRp3121
(dp3122
g61
(dp3123
g69
I4
ssg70
g3117
sg63
(lp3124
S'/datos/static/js/jquery.js'
p3125
asbasbasbag56
(g72
g58
NtRp3126
(dp3127
g61
(dp3128
sg70
g3109
sg63
(lp3129
g56
(g77
g58
NtRp3130
(dp3131
g61
(dp3132
sg70
g3126
sg63
(lp3133
g56
(g57
g58
NtRp3134
(dp3135
g61
(dp3136
g69
I4
ssg70
g3130
sg63
(lp3137
S'/datos/static/css/calendar.css'
p3138
asbasbasbag56
(g72
g58
NtRp3139
(dp3140
g61
(dp3141
sg70
g3109
sg63
(lp3142
g56
(g77
g58
NtRp3143
(dp3144
g61
(dp3145
sg70
g3139
sg63
(lp3146
g56
(g57
g58
NtRp3147
(dp3148
g61
(dp3149
g69
I4
ssg70
g3143
sg63
(lp3150
S'/datos/static/js/calendar.js'
p3151
asbasbasbag56
(g72
g58
NtRp3152
(dp3153
g61
(dp3154
sg70
g3109
sg63
(lp3155
g56
(g77
g58
NtRp3156
(dp3157
g61
(dp3158
sg70
g3152
sg63
(lp3159
g56
(g57
g58
NtRp3160
(dp3161
g61
(dp3162
g69
I4
ssg70
g3156
sg63
(lp3163
S'/datos/static/css/base.css'
p3164
asbasbasbag56
(g72
g58
NtRp3165
(dp3166
g61
(dp3167
sg70
g3109
sg63
(lp3168
g56
(g77
g58
NtRp3169
(dp3170
g61
(dp3171
sg70
g3165
sg63
(lp3172
g56
(g57
g58
NtRp3173
(dp3174
g61
(dp3175
g69
I4
ssg70
g3169
sg63
(lp3176
S'/datos/static/css/superfish.css'
p3177
asbasbasbag56
(g72
g58
NtRp3178
(dp3179
g61
(dp3180
sg70
g3109
sg63
(lp3181
g56
(g77
g58
NtRp3182
(dp3183
g61
(dp3184
sg70
g3178
sg63
(lp3185
g56
(g57
g58
NtRp3186
(dp3187
g61
(dp3188
g69
I4
ssg70
g3182
sg63
(lp3189
S'/datos/static/js/superfish.js'
p3190
asbasbasbasbasbasbasbag56
(g72
g58
NtRp3191
(dp3192
g61
(dp3193
sg70
g2854
sg63
(lp3194
g56
(g77
g58
NtRp3195
(dp3196
g61
(dp3197
g81
g82
ssg70
g3191
sg63
(lp3198
S'flash'
p3199
asbag56
(g77
g58
NtRp3200
(dp3201
g61
(dp3202
g88
g89
ssg70
g3191
sg63
(lp3203
S':'
asbag56
(g77
g58
NtRp3204
(dp3205
g61
(dp3206
sg70
g3191
sg63
(lp3207
g56
(g57
g58
NtRp3208
(dp3209
g61
(dp3210
g69
I5
ssg70
g3204
sg63
(lp3211
S''
asbasbasbag56
(g72
g58
NtRp3212
(dp3213
g61
(dp3214
sg70
g2854
sg63
(lp3215
g56
(g77
g58
NtRp3216
(dp3217
g61
(dp3218
g81
g82
ssg70
g3212
sg63
(lp3219
S'headers'
p3220
asbag56
(g77
g58
NtRp3221
(dp3222
g61
(dp3223
g88
g89
ssg70
g3212
sg63
(lp3224
S':'
asbag56
(g77
g58
NtRp3225
(dp3226
g61
(dp3227
sg70
g3212
sg63
(lp3228
g56
(g57
g58
NtRp3229
(dp3230
g61
(dp3231
g69
I5
ssg70
g3225
sg63
(lp3232
g56
(g65
g58
NtRp3233
(dp3234
g61
(dp3235
g69
I4
ssg70
Nsg63
(lp3236
g56
(g72
g58
NtRp3237
(dp3238
g61
(dp3239
sg70
g3233
sg63
(lp3240
g56
(g77
g58
NtRp3241
(dp3242
g61
(dp3243
g81
g82
ssg70
g3237
sg63
(lp3244
S'Cache-Control'
p3245
asbag56
(g77
g58
NtRp3246
(dp3247
g61
(dp3248
g88
g89
ssg70
g3237
sg63
(lp3249
S':'
asbag56
(g77
g58
NtRp3250
(dp3251
g61
(dp3252
sg70
g3237
sg63
(lp3253
g56
(g57
g58
NtRp3254
(dp3255
g61
(dp3256
g69
I4
ssg70
g3250
sg63
(lp3257
S'no-store, no-cache, must-revalidate, post-check=0, pre-check=0'
p3258
asbasbasbag56
(g72
g58
NtRp3259
(dp3260
g61
(dp3261
sg70
g3233
sg63
(lp3262
g56
(g77
g58
NtRp3263
(dp3264
g61
(dp3265
g81
g82
ssg70
g3259
sg63
(lp3266
S'Content-Type'
p3267
asbag56
(g77
g58
NtRp3268
(dp3269
g61
(dp3270
g88
g89
ssg70
g3259
sg63
(lp3271
S':'
asbag56
(g77
g58
NtRp3272
(dp3273
g61
(dp3274
sg70
g3259
sg63
(lp3275
g56
(g57
g58
NtRp3276
(dp3277
g61
(dp3278
g69
I4
ssg70
g3272
sg63
(lp3279
S'text/html; charset=utf-8'
p3280
asbasbasbag56
(g72
g58
NtRp3281
(dp3282
g61
(dp3283
sg70
g3233
sg63
(lp3284
g56
(g77
g58
NtRp3285
(dp3286
g61
(dp3287
g81
g82
ssg70
g3281
sg63
(lp3288
S'Expires'
p3289
asbag56
(g77
g58
NtRp3290
(dp3291
g61
(dp3292
g88
g89
ssg70
g3281
sg63
(lp3293
S':'
asbag56
(g77
g58
NtRp3294
(dp3295
g61
(dp3296
sg70
g3281
sg63
(lp3297
g56
(g57
g58
NtRp3298
(dp3299
g61
(dp3300
g69
I4
ssg70
g3294
sg63
(lp3301
S'Sat, 10 Sep 2011 19:54:15 GMT'
p3302
asbasbasbag56
(g72
g58
NtRp3303
(dp3304
g61
(dp3305
sg70
g3233
sg63
(lp3306
g56
(g77
g58
NtRp3307
(dp3308
g61
(dp3309
g81
g82
ssg70
g3303
sg63
(lp3310
S'Pragma'
p3311
asbag56
(g77
g58
NtRp3312
(dp3313
g61
(dp3314
g88
g89
ssg70
g3303
sg63
(lp3315
S':'
asbag56
(g77
g58
NtRp3316
(dp3317
g61
(dp3318
sg70
g3303
sg63
(lp3319
g56
(g57
g58
NtRp3320
(dp3321
g61
(dp3322
g69
I4
ssg70
g3316
sg63
(lp3323
S'no-cache'
p3324
asbasbasbag56
(g72
g58
NtRp3325
(dp3326
g61
(dp3327
sg70
g3233
sg63
(lp3328
g56
(g77
g58
NtRp3329
(dp3330
g61
(dp3331
g81
g82
ssg70
g3325
sg63
(lp3332
S'X-Powered-By'
p3333
asbag56
(g77
g58
NtRp3334
(dp3335
g61
(dp3336
g88
g89
ssg70
g3325
sg63
(lp3337
S':'
asbag56
(g77
g58
NtRp3338
(dp3339
g61
(dp3340
sg70
g3325
sg63
(lp3341
g56
(g57
g58
NtRp3342
(dp3343
g61
(dp3344
g69
I4
ssg70
g3338
sg63
(lp3345
S'web2py'
p3346
asbasbasbasbasbasbasbag56
(g72
g58
NtRp3347
(dp3348
g61
(dp3349
sg70
g2854
sg63
(lp3350
g56
(g77
g58
NtRp3351
(dp3352
g61
(dp3353
g81
g82
ssg70
g3347
sg63
(lp3354
S'menu'
p3355
asbag56
(g77
g58
NtRp3356
(dp3357
g61
(dp3358
g88
g89
ssg70
g3347
sg63
(lp3359
S':'
asbag56
(g77
g58
NtRp3360
(dp3361
g61
(dp3362
sg70
g3347
sg63
(lp3363
g56
(g57
g58
NtRp3364
(dp3365
g61
(dp3366
g69
I5
ssg70
g3360
sg63
(lp3367
g56
(g65
g58
NtRp3368
(dp3369
g61
(dp3370
g69
I4
ssg70
Nsg63
(lp3371
g56
(g72
g58
NtRp3372
(dp3373
g61
(dp3374
sg70
g3368
sg63
(lp3375
g56
(g77
g58
NtRp3376
(dp3377
g61
(dp3378
sg70
g3372
sg63
(lp3379
g56
(g57
g58
NtRp3380
(dp3381
g61
(dp3382
g69
I4
ssg70
g3376
sg63
(lp3383
g56
(g65
g58
NtRp3384
(dp3385
g61
(dp3386
g69
I3
ssg70
Nsg63
(lp3387
g56
(g72
g58
NtRp3388
(dp3389
g61
(dp3390
sg70
g3384
sg63
(lp3391
g56
(g77
g58
NtRp3392
(dp3393
g61
(dp3394
sg70
g3388
sg63
(lp3395
g56
(g57
g58
NtRp3396
(dp3397
g61
(dp3398
g69
I3
ssg70
g3392
sg63
(lp3399
cgluon.languages
lazyT_unpickle
p3400
(S's\x04\x00\x00\x00Home'
tRp3401
asbasbasbag56
(g72
g58
NtRp3402
(dp3403
g61
(dp3404
sg70
g3384
sg63
(lp3405
g56
(g77
g58
NtRp3406
(dp3407
g61
(dp3408
sg70
g3402
sg63
(lp3409
g56
(g57
g58
NtRp3410
(dp3411
g61
(dp3412
g69
I3
ssg70
g3406
sg63
(lp3413
g99
asbasbasbag56
(g72
g58
NtRp3414
(dp3415
g61
(dp3416
sg70
g3384
sg63
(lp3417
g56
(g77
g58
NtRp3418
(dp3419
g61
(dp3420
sg70
g3414
sg63
(lp3421
g56
(g57
g58
NtRp3422
(dp3423
g61
(dp3424
g69
I3
ssg70
g3418
sg63
(lp3425
S'/datos/default/index'
p3426
asbasbasbag56
(g72
g58
NtRp3427
(dp3428
g61
(dp3429
sg70
g3384
sg63
(lp3430
g56
(g77
g58
NtRp3431
(dp3432
g61
(dp3433
sg70
g3427
sg63
(lp3434
g56
(g57
g58
NtRp3435
(dp3436
g61
(dp3437
g69
I3
ssg70
g3431
sg63
(lp3438
g56
(g65
g58
NtRp3439
(dp3440
g61
(dp3441
g69
I2
ssg70
Nsg63
(lp3442
sbasbasbasbasbasbasbasbag56
(g72
g58
NtRp3443
(dp3444
g61
(dp3445
sg70
g3368
sg63
(lp3446
g56
(g77
g58
NtRp3447
(dp3448
g61
(dp3449
sg70
g3443
sg63
(lp3450
g56
(g57
g58
NtRp3451
(dp3452
g61
(dp3453
g69
I4
ssg70
g3447
sg63
(lp3454
g56
(g65
g58
NtRp3455
(dp3456
g61
(dp3457
g69
I3
ssg70
Nsg63
(lp3458
g56
(g72
g58
NtRp3459
(dp3460
g61
(dp3461
sg70
g3455
sg63
(lp3462
g56
(g77
g58
NtRp3463
(dp3464
g61
(dp3465
sg70
g3459
sg63
(lp3466
g56
(g57
g58
NtRp3467
(dp3468
g61
(dp3469
g69
I3
ssg70
g3463
sg63
(lp3470
g3400
(S's\x08\x00\x00\x00This App'
tRp3471
asbasbasbag56
(g72
g58
NtRp3472
(dp3473
g61
(dp3474
sg70
g3455
sg63
(lp3475
g56
(g77
g58
NtRp3476
(dp3477
g61
(dp3478
sg70
g3472
sg63
(lp3479
g56
(g57
g58
NtRp3480
(dp3481
g61
(dp3482
g69
I3
ssg70
g3476
sg63
(lp3483
g99
asbasbasbag56
(g72
g58
NtRp3484
(dp3485
g61
(dp3486
sg70
g3455
sg63
(lp3487
g56
(g77
g58
NtRp3488
(dp3489
g61
(dp3490
sg70
g3484
sg63
(lp3491
g56
(g57
g58
NtRp3492
(dp3493
g61
(dp3494
g69
I3
ssg70
g3488
sg63
(lp3495
S'/admin/default/design/datos'
p3496
asbasbasbag56
(g72
g58
NtRp3497
(dp3498
g61
(dp3499
sg70
g3455
sg63
(lp3500
g56
(g77
g58
NtRp3501
(dp3502
g61
(dp3503
sg70
g3497
sg63
(lp3504
g56
(g57
g58
NtRp3505
(dp3506
g61
(dp3507
g69
I3
ssg70
g3501
sg63
(lp3508
g56
(g65
g58
NtRp3509
(dp3510
g61
(dp3511
g69
I2
ssg70
Nsg63
(lp3512
g56
(g72
g58
NtRp3513
(dp3514
g61
(dp3515
sg70
g3509
sg63
(lp3516
g56
(g77
g58
NtRp3517
(dp3518
g61
(dp3519
sg70
g3513
sg63
(lp3520
g56
(g57
g58
NtRp3521
(dp3522
g61
(dp3523
g69
I2
ssg70
g3517
sg63
(lp3524
g56
(g65
g58
NtRp3525
(dp3526
g61
(dp3527
g69
I1
ssg70
Nsg63
(lp3528
g56
(g72
g58
NtRp3529
(dp3530
g61
(dp3531
sg70
g3525
sg63
(lp3532
g56
(g77
g58
NtRp3533
(dp3534
g61
(dp3535
sg70
g3529
sg63
(lp3536
g56
(g57
g58
NtRp3537
(dp3538
g61
(dp3539
g69
I1
ssg70
g3533
sg63
(lp3540
g3400
(S's\n\x00\x00\x00Controller'
tRp3541
asbasbasbag56
(g72
g58
NtRp3542
(dp3543
g61
(dp3544
sg70
g3525
sg63
(lp3545
g56
(g77
g58
NtRp3546
(dp3547
g61
(dp3548
sg70
g3542
sg63
(lp3549
g56
(g57
g58
NtRp3550
(dp3551
g61
(dp3552
g69
I1
ssg70
g3546
sg63
(lp3553
I00
asbasbasbag56
(g72
g58
NtRp3554
(dp3555
g61
(dp3556
sg70
g3525
sg63
(lp3557
g56
(g77
g58
NtRp3558
(dp3559
g61
(dp3560
sg70
g3554
sg63
(lp3561
g56
(g57
g58
NtRp3562
(dp3563
g61
(dp3564
g69
I1
ssg70
g3558
sg63
(lp3565
S'/admin/default/edit/datos/controllers/default.py'
p3566
asbasbasbasbasbasbasbag56
(g72
g58
NtRp3567
(dp3568
g61
(dp3569
sg70
g3509
sg63
(lp3570
g56
(g77
g58
NtRp3571
(dp3572
g61
(dp3573
sg70
g3567
sg63
(lp3574
g56
(g57
g58
NtRp3575
(dp3576
g61
(dp3577
g69
I2
ssg70
g3571
sg63
(lp3578
g56
(g65
g58
NtRp3579
(dp3580
g61
(dp3581
g69
I1
ssg70
Nsg63
(lp3582
g56
(g72
g58
NtRp3583
(dp3584
g61
(dp3585
sg70
g3579
sg63
(lp3586
g56
(g77
g58
NtRp3587
(dp3588
g61
(dp3589
sg70
g3583
sg63
(lp3590
g56
(g57
g58
NtRp3591
(dp3592
g61
(dp3593
g69
I1
ssg70
g3587
sg63
(lp3594
g3400
(S's\x04\x00\x00\x00View'
tRp3595
asbasbasbag56
(g72
g58
NtRp3596
(dp3597
g61
(dp3598
sg70
g3579
sg63
(lp3599
g56
(g77
g58
NtRp3600
(dp3601
g61
(dp3602
sg70
g3596
sg63
(lp3603
g56
(g57
g58
NtRp3604
(dp3605
g61
(dp3606
g69
I1
ssg70
g3600
sg63
(lp3607
I00
asbasbasbag56
(g72
g58
NtRp3608
(dp3609
g61
(dp3610
sg70
g3579
sg63
(lp3611
g56
(g77
g58
NtRp3612
(dp3613
g61
(dp3614
sg70
g3608
sg63
(lp3615
g56
(g57
g58
NtRp3616
(dp3617
g61
(dp3618
g69
I1
ssg70
g3612
sg63
(lp3619
S'/admin/default/edit/datos/views/default/index.html'
p3620
asbasbasbasbasbasbasbag56
(g72
g58
NtRp3621
(dp3622
g61
(dp3623
sg70
g3509
sg63
(lp3624
g56
(g77
g58
NtRp3625
(dp3626
g61
(dp3627
sg70
g3621
sg63
(lp3628
g56
(g57
g58
NtRp3629
(dp3630
g61
(dp3631
g69
I2
ssg70
g3625
sg63
(lp3632
g56
(g65
g58
NtRp3633
(dp3634
g61
(dp3635
g69
I1
ssg70
Nsg63
(lp3636
g56
(g72
g58
NtRp3637
(dp3638
g61
(dp3639
sg70
g3633
sg63
(lp3640
g56
(g77
g58
NtRp3641
(dp3642
g61
(dp3643
sg70
g3637
sg63
(lp3644
g56
(g57
g58
NtRp3645
(dp3646
g61
(dp3647
g69
I1
ssg70
g3641
sg63
(lp3648
g3400
(S's\x06\x00\x00\x00Layout'
tRp3649
asbasbasbag56
(g72
g58
NtRp3650
(dp3651
g61
(dp3652
sg70
g3633
sg63
(lp3653
g56
(g77
g58
NtRp3654
(dp3655
g61
(dp3656
sg70
g3650
sg63
(lp3657
g56
(g57
g58
NtRp3658
(dp3659
g61
(dp3660
g69
I1
ssg70
g3654
sg63
(lp3661
I00
asbasbasbag56
(g72
g58
NtRp3662
(dp3663
g61
(dp3664
sg70
g3633
sg63
(lp3665
g56
(g77
g58
NtRp3666
(dp3667
g61
(dp3668
sg70
g3662
sg63
(lp3669
g56
(g57
g58
NtRp3670
(dp3671
g61
(dp3672
g69
I1
ssg70
g3666
sg63
(lp3673
S'/admin/default/edit/datos/views/layout.html'
p3674
asbasbasbasbasbasbasbag56
(g72
g58
NtRp3675
(dp3676
g61
(dp3677
sg70
g3509
sg63
(lp3678
g56
(g77
g58
NtRp3679
(dp3680
g61
(dp3681
sg70
g3675
sg63
(lp3682
g56
(g57
g58
NtRp3683
(dp3684
g61
(dp3685
g69
I2
ssg70
g3679
sg63
(lp3686
g56
(g65
g58
NtRp3687
(dp3688
g61
(dp3689
g69
I1
ssg70
Nsg63
(lp3690
g56
(g72
g58
NtRp3691
(dp3692
g61
(dp3693
sg70
g3687
sg63
(lp3694
g56
(g77
g58
NtRp3695
(dp3696
g61
(dp3697
sg70
g3691
sg63
(lp3698
g56
(g57
g58
NtRp3699
(dp3700
g61
(dp3701
g69
I1
ssg70
g3695
sg63
(lp3702
g3400
(S's\n\x00\x00\x00Stylesheet'
tRp3703
asbasbasbag56
(g72
g58
NtRp3704
(dp3705
g61
(dp3706
sg70
g3687
sg63
(lp3707
g56
(g77
g58
NtRp3708
(dp3709
g61
(dp3710
sg70
g3704
sg63
(lp3711
g56
(g57
g58
NtRp3712
(dp3713
g61
(dp3714
g69
I1
ssg70
g3708
sg63
(lp3715
I00
asbasbasbag56
(g72
g58
NtRp3716
(dp3717
g61
(dp3718
sg70
g3687
sg63
(lp3719
g56
(g77
g58
NtRp3720
(dp3721
g61
(dp3722
sg70
g3716
sg63
(lp3723
g56
(g57
g58
NtRp3724
(dp3725
g61
(dp3726
g69
I1
ssg70
g3720
sg63
(lp3727
S'/admin/default/edit/datos/static/base.css'
p3728
asbasbasbasbasbasbasbag56
(g72
g58
NtRp3729
(dp3730
g61
(dp3731
sg70
g3509
sg63
(lp3732
g56
(g77
g58
NtRp3733
(dp3734
g61
(dp3735
sg70
g3729
sg63
(lp3736
g56
(g57
g58
NtRp3737
(dp3738
g61
(dp3739
g69
I2
ssg70
g3733
sg63
(lp3740
g56
(g65
g58
NtRp3741
(dp3742
g61
(dp3743
g69
I1
ssg70
Nsg63
(lp3744
g56
(g72
g58
NtRp3745
(dp3746
g61
(dp3747
sg70
g3741
sg63
(lp3748
g56
(g77
g58
NtRp3749
(dp3750
g61
(dp3751
sg70
g3745
sg63
(lp3752
g56
(g57
g58
NtRp3753
(dp3754
g61
(dp3755
g69
I1
ssg70
g3749
sg63
(lp3756
g3400
(S's\x08\x00\x00\x00DB Model'
tRp3757
asbasbasbag56
(g72
g58
NtRp3758
(dp3759
g61
(dp3760
sg70
g3741
sg63
(lp3761
g56
(g77
g58
NtRp3762
(dp3763
g61
(dp3764
sg70
g3758
sg63
(lp3765
g56
(g57
g58
NtRp3766
(dp3767
g61
(dp3768
g69
I1
ssg70
g3762
sg63
(lp3769
I00
asbasbasbag56
(g72
g58
NtRp3770
(dp3771
g61
(dp3772
sg70
g3741
sg63
(lp3773
g56
(g77
g58
NtRp3774
(dp3775
g61
(dp3776
sg70
g3770
sg63
(lp3777
g56
(g57
g58
NtRp3778
(dp3779
g61
(dp3780
g69
I1
ssg70
g3774
sg63
(lp3781
S'/admin/default/edit/datos/models/db.py'
p3782
asbasbasbasbasbasbasbag56
(g72
g58
NtRp3783
(dp3784
g61
(dp3785
sg70
g3509
sg63
(lp3786
g56
(g77
g58
NtRp3787
(dp3788
g61
(dp3789
sg70
g3783
sg63
(lp3790
g56
(g57
g58
NtRp3791
(dp3792
g61
(dp3793
g69
I2
ssg70
g3787
sg63
(lp3794
g56
(g65
g58
NtRp3795
(dp3796
g61
(dp3797
g69
I1
ssg70
Nsg63
(lp3798
g56
(g72
g58
NtRp3799
(dp3800
g61
(dp3801
sg70
g3795
sg63
(lp3802
g56
(g77
g58
NtRp3803
(dp3804
g61
(dp3805
sg70
g3799
sg63
(lp3806
g56
(g57
g58
NtRp3807
(dp3808
g61
(dp3809
g69
I1
ssg70
g3803
sg63
(lp3810
g3400
(S's\n\x00\x00\x00Menu Model'
tRp3811
asbasbasbag56
(g72
g58
NtRp3812
(dp3813
g61
(dp3814
sg70
g3795
sg63
(lp3815
g56
(g77
g58
NtRp3816
(dp3817
g61
(dp3818
sg70
g3812
sg63
(lp3819
g56
(g57
g58
NtRp3820
(dp3821
g61
(dp3822
g69
I1
ssg70
g3816
sg63
(lp3823
I00
asbasbasbag56
(g72
g58
NtRp3824
(dp3825
g61
(dp3826
sg70
g3795
sg63
(lp3827
g56
(g77
g58
NtRp3828
(dp3829
g61
(dp3830
sg70
g3824
sg63
(lp3831
g56
(g57
g58
NtRp3832
(dp3833
g61
(dp3834
g69
I1
ssg70
g3828
sg63
(lp3835
S'/admin/default/edit/datos/models/menu.py'
p3836
asbasbasbasbasbasbasbag56
(g72
g58
NtRp3837
(dp3838
g61
(dp3839
sg70
g3509
sg63
(lp3840
g56
(g77
g58
NtRp3841
(dp3842
g61
(dp3843
sg70
g3837
sg63
(lp3844
g56
(g57
g58
NtRp3845
(dp3846
g61
(dp3847
g69
I2
ssg70
g3841
sg63
(lp3848
g56
(g65
g58
NtRp3849
(dp3850
g61
(dp3851
g69
I1
ssg70
Nsg63
(lp3852
g56
(g72
g58
NtRp3853
(dp3854
g61
(dp3855
sg70
g3849
sg63
(lp3856
g56
(g77
g58
NtRp3857
(dp3858
g61
(dp3859
sg70
g3853
sg63
(lp3860
g56
(g57
g58
NtRp3861
(dp3862
g61
(dp3863
g69
I1
ssg70
g3857
sg63
(lp3864
g3400
(S's\x08\x00\x00\x00Database'
tRp3865
asbasbasbag56
(g72
g58
NtRp3866
(dp3867
g61
(dp3868
sg70
g3849
sg63
(lp3869
g56
(g77
g58
NtRp3870
(dp3871
g61
(dp3872
sg70
g3866
sg63
(lp3873
g56
(g57
g58
NtRp3874
(dp3875
g61
(dp3876
g69
I1
ssg70
g3870
sg63
(lp3877
I00
asbasbasbag56
(g72
g58
NtRp3878
(dp3879
g61
(dp3880
sg70
g3849
sg63
(lp3881
g56
(g77
g58
NtRp3882
(dp3883
g61
(dp3884
sg70
g3878
sg63
(lp3885
g56
(g57
g58
NtRp3886
(dp3887
g61
(dp3888
g69
I1
ssg70
g3882
sg63
(lp3889
S'/datos/appadmin/index'
p3890
asbasbasbasbasbasbasbag56
(g72
g58
NtRp3891
(dp3892
g61
(dp3893
sg70
g3509
sg63
(lp3894
g56
(g77
g58
NtRp3895
(dp3896
g61
(dp3897
sg70
g3891
sg63
(lp3898
g56
(g57
g58
NtRp3899
(dp3900
g61
(dp3901
g69
I2
ssg70
g3895
sg63
(lp3902
g56
(g65
g58
NtRp3903
(dp3904
g61
(dp3905
g69
I1
ssg70
Nsg63
(lp3906
g56
(g72
g58
NtRp3907
(dp3908
g61
(dp3909
sg70
g3903
sg63
(lp3910
g56
(g77
g58
NtRp3911
(dp3912
g61
(dp3913
sg70
g3907
sg63
(lp3914
g56
(g57
g58
NtRp3915
(dp3916
g61
(dp3917
g69
I1
ssg70
g3911
sg63
(lp3918
g3400
(S's\x06\x00\x00\x00Errors'
tRp3919
asbasbasbag56
(g72
g58
NtRp3920
(dp3921
g61
(dp3922
sg70
g3903
sg63
(lp3923
g56
(g77
g58
NtRp3924
(dp3925
g61
(dp3926
sg70
g3920
sg63
(lp3927
g56
(g57
g58
NtRp3928
(dp3929
g61
(dp3930
g69
I1
ssg70
g3924
sg63
(lp3931
I00
asbasbasbag56
(g72
g58
NtRp3932
(dp3933
g61
(dp3934
sg70
g3903
sg63
(lp3935
g56
(g77
g58
NtRp3936
(dp3937
g61
(dp3938
sg70
g3932
sg63
(lp3939
g56
(g57
g58
NtRp3940
(dp3941
g61
(dp3942
g69
I1
ssg70
g3936
sg63
(lp3943
S'/admin/default/errors/datos'
p3944
asbasbasbasbasbasbasbag56
(g72
g58
NtRp3945
(dp3946
g61
(dp3947
sg70
g3509
sg63
(lp3948
g56
(g77
g58
NtRp3949
(dp3950
g61
(dp3951
sg70
g3945
sg63
(lp3952
g56
(g57
g58
NtRp3953
(dp3954
g61
(dp3955
g69
I2
ssg70
g3949
sg63
(lp3956
g56
(g65
g58
NtRp3957
(dp3958
g61
(dp3959
g69
I1
ssg70
Nsg63
(lp3960
g56
(g72
g58
NtRp3961
(dp3962
g61
(dp3963
sg70
g3957
sg63
(lp3964
g56
(g77
g58
NtRp3965
(dp3966
g61
(dp3967
sg70
g3961
sg63
(lp3968
g56
(g57
g58
NtRp3969
(dp3970
g61
(dp3971
g69
I1
ssg70
g3965
sg63
(lp3972
g3400
(S's\x05\x00\x00\x00About'
tRp3973
asbasbasbag56
(g72
g58
NtRp3974
(dp3975
g61
(dp3976
sg70
g3957
sg63
(lp3977
g56
(g77
g58
NtRp3978
(dp3979
g61
(dp3980
sg70
g3974
sg63
(lp3981
g56
(g57
g58
NtRp3982
(dp3983
g61
(dp3984
g69
I1
ssg70
g3978
sg63
(lp3985
I00
asbasbasbag56
(g72
g58
NtRp3986
(dp3987
g61
(dp3988
sg70
g3957
sg63
(lp3989
g56
(g77
g58
NtRp3990
(dp3991
g61
(dp3992
sg70
g3986
sg63
(lp3993
g56
(g57
g58
NtRp3994
(dp3995
g61
(dp3996
g69
I1
ssg70
g3990
sg63
(lp3997
S'/admin/default/about/datos'
p3998
asbasbasbasbasbasbasbasbasbasbasbasbasbasbasbag56
(g72
g58
NtRp3999
(dp4000
g61
(dp4001
sg70
g3368
sg63
(lp4002
g56
(g77
g58
NtRp4003
(dp4004
g61
(dp4005
sg70
g3999
sg63
(lp4006
g56
(g57
g58
NtRp4007
(dp4008
g61
(dp4009
g69
I4
ssg70
g4003
sg63
(lp4010
g56
(g65
g58
NtRp4011
(dp4012
g61
(dp4013
g69
I3
ssg70
Nsg63
(lp4014
g56
(g72
g58
NtRp4015
(dp4016
g61
(dp4017
sg70
g4011
sg63
(lp4018
g56
(g77
g58
NtRp4019
(dp4020
g61
(dp4021
sg70
g4015
sg63
(lp4022
g56
(g57
g58
NtRp4023
(dp4024
g61
(dp4025
g69
I3
ssg70
g4019
sg63
(lp4026
g3400
(S's\t\x00\x00\x00Resources'
tRp4027
asbasbasbag56
(g72
g58
NtRp4028
(dp4029
g61
(dp4030
sg70
g4011
sg63
(lp4031
g56
(g77
g58
NtRp4032
(dp4033
g61
(dp4034
sg70
g4028
sg63
(lp4035
g56
(g57
g58
NtRp4036
(dp4037
g61
(dp4038
g69
I3
ssg70
g4032
sg63
(lp4039
g99
asbasbasbag56
(g72
g58
NtRp4040
(dp4041
g61
(dp4042
sg70
g4011
sg63
(lp4043
g56
(g77
g58
NtRp4044
(dp4045
g61
(dp4046
sg70
g4040
sg63
(lp4047
g56
(g57
g58
NtRp4048
(dp4049
g61
(dp4050
g69
I3
ssg70
g4044
sg63
(lp4051
S'None'
p4052
asbasbasbag56
(g72
g58
NtRp4053
(dp4054
g61
(dp4055
sg70
g4011
sg63
(lp4056
g56
(g77
g58
NtRp4057
(dp4058
g61
(dp4059
sg70
g4053
sg63
(lp4060
g56
(g57
g58
NtRp4061
(dp4062
g61
(dp4063
g69
I3
ssg70
g4057
sg63
(lp4064
g56
(g65
g58
NtRp4065
(dp4066
g61
(dp4067
g69
I2
ssg70
Nsg63
(lp4068
g56
(g72
g58
NtRp4069
(dp4070
g61
(dp4071
sg70
g4065
sg63
(lp4072
g56
(g77
g58
NtRp4073
(dp4074
g61
(dp4075
sg70
g4069
sg63
(lp4076
g56
(g57
g58
NtRp4077
(dp4078
g61
(dp4079
g69
I2
ssg70
g4073
sg63
(lp4080
g56
(g65
g58
NtRp4081
(dp4082
g61
(dp4083
g69
I1
ssg70
Nsg63
(lp4084
g56
(g72
g58
NtRp4085
(dp4086
g61
(dp4087
sg70
g4081
sg63
(lp4088
g56
(g77
g58
NtRp4089
(dp4090
g61
(dp4091
sg70
g4085
sg63
(lp4092
g56
(g57
g58
NtRp4093
(dp4094
g61
(dp4095
g69
I1
ssg70
g4089
sg63
(lp4096
g3400
(S's\r\x00\x00\x00Documentation'
tRp4097
asbasbasbag56
(g72
g58
NtRp4098
(dp4099
g61
(dp4100
sg70
g4081
sg63
(lp4101
g56
(g77
g58
NtRp4102
(dp4103
g61
(dp4104
sg70
g4098
sg63
(lp4105
g56
(g57
g58
NtRp4106
(dp4107
g61
(dp4108
g69
I1
ssg70
g4102
sg63
(lp4109
I00
asbasbasbag56
(g72
g58
NtRp4110
(dp4111
g61
(dp4112
sg70
g4081
sg63
(lp4113
g56
(g77
g58
NtRp4114
(dp4115
g61
(dp4116
sg70
g4110
sg63
(lp4117
g56
(g57
g58
NtRp4118
(dp4119
g61
(dp4120
g69
I1
ssg70
g4114
sg63
(lp4121
S'http://www.web2py.com/book'
p4122
asbasbasbag56
(g72
g58
NtRp4123
(dp4124
g61
(dp4125
sg70
g4081
sg63
(lp4126
g56
(g77
g58
NtRp4127
(dp4128
g61
(dp4129
sg70
g4123
sg63
(lp4130
g56
(g57
g58
NtRp4131
(dp4132
g61
(dp4133
g69
I1
ssg70
g4127
sg63
(lp4134
(lp4135
(g3400
(S's\x07\x00\x00\x00Preface'
tRp4136
I00
S'http://www.web2py.com/book/default/chapter/00'
tp4137
a(g3400
(S's\x0c\x00\x00\x00Introduction'
tRp4138
I00
S'http://www.web2py.com/book/default/chapter/01'
tp4139
a(g3400
(S's\x06\x00\x00\x00Python'
tRp4140
I00
S'http://www.web2py.com/book/default/chapter/02'
tp4141
a(g3400
(S's\x08\x00\x00\x00Overview'
tRp4142
I00
S'http://www.web2py.com/book/default/chapter/03'
tp4143
a(g3400
(S's\x08\x00\x00\x00The Core'
tRp4144
I00
S'http://www.web2py.com/book/default/chapter/04'
tp4145
a(g3400
(S's\t\x00\x00\x00The Views'
tRp4146
I00
S'http://www.web2py.com/book/default/chapter/05'
tp4147
a(g3400
(S's\x08\x00\x00\x00Database'
tRp4148
I00
S'http://www.web2py.com/book/default/chapter/06'
tp4149
a(g3400
(S's\x14\x00\x00\x00Forms and Validators'
tRp4150
I00
S'http://www.web2py.com/book/default/chapter/07'
tp4151
a(g3400
(S's\x0e\x00\x00\x00Access Control'
tRp4152
I00
S'http://www.web2py.com/book/default/chapter/08'
tp4153
a(g3400
(S's\x08\x00\x00\x00Services'
tRp4154
I00
S'http://www.web2py.com/book/default/chapter/09'
tp4155
a(g3400
(S's\x0c\x00\x00\x00Ajax Recipes'
tRp4156
I00
S'http://www.web2py.com/book/default/chapter/10'
tp4157
a(g3400
(S's\x12\x00\x00\x00Deployment Recipes'
tRp4158
I00
S'http://www.web2py.com/book/default/chapter/11'
tp4159
a(g3400
(S's\r\x00\x00\x00Other Recipes'
tRp4160
I00
S'http://www.web2py.com/book/default/chapter/12'
tp4161
a(g3400
(S's\r\x00\x00\x00Buy this book'
tRp4162
I00
S'http://stores.lulu.com/web2py'
tp4163
aasbasbasbasbasbasbasbag56
(g72
g58
NtRp4164
(dp4165
g61
(dp4166
sg70
g4065
sg63
(lp4167
g56
(g77
g58
NtRp4168
(dp4169
g61
(dp4170
sg70
g4164
sg63
(lp4171
g56
(g57
g58
NtRp4172
(dp4173
g61
(dp4174
g69
I2
ssg70
g4168
sg63
(lp4175
g56
(g65
g58
NtRp4176
(dp4177
g61
(dp4178
g69
I1
ssg70
Nsg63
(lp4179
g56
(g72
g58
NtRp4180
(dp4181
g61
(dp4182
sg70
g4176
sg63
(lp4183
g56
(g77
g58
NtRp4184
(dp4185
g61
(dp4186
sg70
g4180
sg63
(lp4187
g56
(g57
g58
NtRp4188
(dp4189
g61
(dp4190
g69
I1
ssg70
g4184
sg63
(lp4191
g3400
(S's\t\x00\x00\x00Community'
tRp4192
asbasbasbag56
(g72
g58
NtRp4193
(dp4194
g61
(dp4195
sg70
g4176
sg63
(lp4196
g56
(g77
g58
NtRp4197
(dp4198
g61
(dp4199
sg70
g4193
sg63
(lp4200
g56
(g57
g58
NtRp4201
(dp4202
g61
(dp4203
g69
I1
ssg70
g4197
sg63
(lp4204
I00
asbasbasbag56
(g72
g58
NtRp4205
(dp4206
g61
(dp4207
sg70
g4176
sg63
(lp4208
g56
(g77
g58
NtRp4209
(dp4210
g61
(dp4211
sg70
g4205
sg63
(lp4212
g56
(g57
g58
NtRp4213
(dp4214
g61
(dp4215
g69
I1
ssg70
g4209
sg63
(lp4216
Nasbasbasbag56
(g72
g58
NtRp4217
(dp4218
g61
(dp4219
sg70
g4176
sg63
(lp4220
g56
(g77
g58
NtRp4221
(dp4222
g61
(dp4223
sg70
g4217
sg63
(lp4224
g56
(g57
g58
NtRp4225
(dp4226
g61
(dp4227
g69
I1
ssg70
g4221
sg63
(lp4228
(lp4229
(g3400
(S's\x06\x00\x00\x00Groups'
tRp4230
I00
S'http://www.web2py.com/examples/default/usergroups'
tp4231
a(g3400
(S's\x07\x00\x00\x00Twitter'
tRp4232
I00
S'http://twitter.com/web2py'
tp4233
a(g3400
(S's\t\x00\x00\x00Live chat'
tRp4234
I00
S'http://mibbit.com/?channel=%23web2py&server=irc.mibbit.net'
tp4235
a(g3400
(S's\n\x00\x00\x00User Voice'
tRp4236
I00
S'http://web2py.uservoice.com/'
tp4237
aasbasbasbasbasbasbasbag56
(g72
g58
NtRp4238
(dp4239
g61
(dp4240
sg70
g4065
sg63
(lp4241
g56
(g77
g58
NtRp4242
(dp4243
g61
(dp4244
sg70
g4238
sg63
(lp4245
g56
(g57
g58
NtRp4246
(dp4247
g61
(dp4248
g69
I2
ssg70
g4242
sg63
(lp4249
g56
(g65
g58
NtRp4250
(dp4251
g61
(dp4252
g69
I1
ssg70
Nsg63
(lp4253
g56
(g72
g58
NtRp4254
(dp4255
g61
(dp4256
sg70
g4250
sg63
(lp4257
g56
(g77
g58
NtRp4258
(dp4259
g61
(dp4260
sg70
g4254
sg63
(lp4261
g56
(g57
g58
NtRp4262
(dp4263
g61
(dp4264
g69
I1
ssg70
g4258
sg63
(lp4265
g3400
(S's\x06\x00\x00\x00Web2py'
tRp4266
asbasbasbag56
(g72
g58
NtRp4267
(dp4268
g61
(dp4269
sg70
g4250
sg63
(lp4270
g56
(g77
g58
NtRp4271
(dp4272
g61
(dp4273
sg70
g4267
sg63
(lp4274
g56
(g57
g58
NtRp4275
(dp4276
g61
(dp4277
g69
I1
ssg70
g4271
sg63
(lp4278
I00
asbasbasbag56
(g72
g58
NtRp4279
(dp4280
g61
(dp4281
sg70
g4250
sg63
(lp4282
g56
(g77
g58
NtRp4283
(dp4284
g61
(dp4285
sg70
g4279
sg63
(lp4286
g56
(g57
g58
NtRp4287
(dp4288
g61
(dp4289
g69
I1
ssg70
g4283
sg63
(lp4290
S'http://www.web2py.com'
p4291
asbasbasbag56
(g72
g58
NtRp4292
(dp4293
g61
(dp4294
sg70
g4250
sg63
(lp4295
g56
(g77
g58
NtRp4296
(dp4297
g61
(dp4298
sg70
g4292
sg63
(lp4299
g56
(g57
g58
NtRp4300
(dp4301
g61
(dp4302
g69
I1
ssg70
g4296
sg63
(lp4303
(lp4304
(g3400
(S's\x08\x00\x00\x00Download'
tRp4305
I00
S'http://www.web2py.com/examples/default/download'
tp4306
a(g3400
(S's\x07\x00\x00\x00Support'
tRp4307
I00
S'http://www.web2py.com/examples/default/support'
tp4308
a(g3400
(S's\x0e\x00\x00\x00Quick Examples'
tRp4309
I00
S'http://web2py.com/examples/default/examples'
tp4310
a(g3400
(S's\x03\x00\x00\x00FAQ'
tRp4311
I00
S'http://web2py.com/AlterEgo'
tp4312
a(g3400
(S's\x11\x00\x00\x00Free Applications'
tRp4313
I00
S'http://web2py.com/appliances'
tp4314
a(g3400
(S's\x07\x00\x00\x00Plugins'
tRp4315
I00
S'http://web2py.com/plugins'
tp4316
a(g3400
(S's\x07\x00\x00\x00Recipes'
tRp4317
I00
S'http://web2pyslices.com/'
tp4318
a(g3400
(S's\x04\x00\x00\x00Demo'
tRp4319
I00
S'http://web2py.com/demo_admin'
tp4320
a(g3400
(S's\x08\x00\x00\x00Semantic'
tRp4321
I00
S'http://web2py.com/semantic'
tp4322
a(g3400
(S's\x07\x00\x00\x00Layouts'
tRp4323
I00
S'http://web2py.com/layouts'
tp4324
a(g3400
(S's\x06\x00\x00\x00Videos'
tRp4325
I00
S'http://www.web2py.com/examples/default/videos/'
tp4326
aasbasbasbasbasbasbasbasbasbasbasbasbasbasbasbasbasbasbasbag56
(g72
g58
NtRp4327
(dp4328
g61
(dp4329
sg70
g2854
sg63
(lp4330
g56
(g77
g58
NtRp4331
(dp4332
g61
(dp4333
g81
g82
ssg70
g4327
sg63
(lp4334
S'meta'
p4335
asbag56
(g77
g58
NtRp4336
(dp4337
g61
(dp4338
g88
g89
ssg70
g4327
sg63
(lp4339
S':'
asbag56
(g77
g58
NtRp4340
(dp4341
g61
(dp4342
sg70
g4327
sg63
(lp4343
g56
(g57
g58
NtRp4344
(dp4345
g61
(dp4346
g69
I5
ssg70
g4340
sg63
(lp4347
g56
(g65
g58
NtRp4348
(dp4349
g61
(dp4350
g69
I4
ssg70
Nsg63
(lp4351
g56
(g72
g58
NtRp4352
(dp4353
g61
(dp4354
sg70
g4348
sg63
(lp4355
g56
(g77
g58
NtRp4356
(dp4357
g61
(dp4358
g81
g82
ssg70
g4352
sg63
(lp4359
S'author'
p4360
asbag56
(g77
g58
NtRp4361
(dp4362
g61
(dp4363
g88
g89
ssg70
g4352
sg63
(lp4364
S':'
asbag56
(g77
g58
NtRp4365
(dp4366
g61
(dp4367
sg70
g4352
sg63
(lp4368
g56
(g57
g58
NtRp4369
(dp4370
g61
(dp4371
g69
I4
ssg70
g4365
sg63
(lp4372
S'you'
p4373
asbasbasbag56
(g72
g58
NtRp4374
(dp4375
g61
(dp4376
sg70
g4348
sg63
(lp4377
g56
(g77
g58
NtRp4378
(dp4379
g61
(dp4380
g81
g82
ssg70
g4374
sg63
(lp4381
S'copyright'
p4382
asbag56
(g77
g58
NtRp4383
(dp4384
g61
(dp4385
g88
g89
ssg70
g4374
sg63
(lp4386
S':'
asbag56
(g77
g58
NtRp4387
(dp4388
g61
(dp4389
sg70
g4374
sg63
(lp4390
g56
(g57
g58
NtRp4391
(dp4392
g61
(dp4393
g69
I4
ssg70
g4387
sg63
(lp4394
S'Copyright 2007-2010'
p4395
asbasbasbag56
(g72
g58
NtRp4396
(dp4397
g61
(dp4398
sg70
g4348
sg63
(lp4399
g56
(g77
g58
NtRp4400
(dp4401
g61
(dp4402
g81
g82
ssg70
g4396
sg63
(lp4403
S'description'
p4404
asbag56
(g77
g58
NtRp4405
(dp4406
g61
(dp4407
g88
g89
ssg70
g4396
sg63
(lp4408
S':'
asbag56
(g77
g58
NtRp4409
(dp4410
g61
(dp4411
sg70
g4396
sg63
(lp4412
g56
(g57
g58
NtRp4413
(dp4414
g61
(dp4415
g69
I4
ssg70
g4409
sg63
(lp4416
S'Free and open source full-stack enterprise framework for agile development of fast, scalable, secure and portable database-driven web-based applications. Written and programmable in Python'
p4417
asbasbasbag56
(g72
g58
NtRp4418
(dp4419
g61
(dp4420
sg70
g4348
sg63
(lp4421
g56
(g77
g58
NtRp4422
(dp4423
g61
(dp4424
g81
g82
ssg70
g4418
sg63
(lp4425
S'generator'
p4426
asbag56
(g77
g58
NtRp4427
(dp4428
g61
(dp4429
g88
g89
ssg70
g4418
sg63
(lp4430
S':'
asbag56
(g77
g58
NtRp4431
(dp4432
g61
(dp4433
sg70
g4418
sg63
(lp4434
g56
(g57
g58
NtRp4435
(dp4436
g61
(dp4437
g69
I4
ssg70
g4431
sg63
(lp4438
S'Web2py Enterprise Framework'
p4439
asbasbasbag56
(g72
g58
NtRp4440
(dp4441
g61
(dp4442
sg70
g4348
sg63
(lp4443
g56
(g77
g58
NtRp4444
(dp4445
g61
(dp4446
g81
g82
ssg70
g4440
sg63
(lp4447
S'keywords'
p4448
asbag56
(g77
g58
NtRp4449
(dp4450
g61
(dp4451
g88
g89
ssg70
g4440
sg63
(lp4452
S':'
asbag56
(g77
g58
NtRp4453
(dp4454
g61
(dp4455
sg70
g4440
sg63
(lp4456
g56
(g57
g58
NtRp4457
(dp4458
g61
(dp4459
g69
I4
ssg70
g4453
sg63
(lp4460
S'web2py, python, framework'
p4461
asbasbasbasbasbasbasbag56
(g72
g58
NtRp4462
(dp4463
g61
(dp4464
sg70
g2854
sg63
(lp4465
g56
(g77
g58
NtRp4466
(dp4467
g61
(dp4468
g81
g82
ssg70
g4462
sg63
(lp4469
S'postprocessing'
p4470
asbag56
(g77
g58
NtRp4471
(dp4472
g61
(dp4473
g88
g89
ssg70
g4462
sg63
(lp4474
S':'
asbag56
(g77
g58
NtRp4475
(dp4476
g61
(dp4477
sg70
g4462
sg63
(lp4478
g56
(g57
g58
NtRp4479
(dp4480
g61
(dp4481
g69
I5
ssg70
g4475
sg63
(lp4482
g56
(g65
g58
NtRp4483
(dp4484
g61
(dp4485
g69
I4
ssg70
Nsg63
(lp4486
sbasbasbasbag56
(g72
g58
NtRp4487
(dp4488
g61
(dp4489
sg70
g2854
sg63
(lp4490
g56
(g77
g58
NtRp4491
(dp4492
g61
(dp4493
g81
g82
ssg70
g4487
sg63
(lp4494
S'session_filename'
p4495
asbag56
(g77
g58
NtRp4496
(dp4497
g61
(dp4498
g88
g89
ssg70
g4487
sg63
(lp4499
S':'
asbag56
(g77
g58
NtRp4500
(dp4501
g61
(dp4502
sg70
g4487
sg63
(lp4503
g56
(g57
g58
NtRp4504
(dp4505
g61
(dp4506
g69
I5
ssg70
g4500
sg63
(lp4507
S'/home/alumno/web2py/applications/datos/sessions/127.0.0.1-4edacdec-511e-4575-8e7d-2b6208576f6e'
p4508
asbasbasbag56
(g72
g58
NtRp4509
(dp4510
g61
(dp4511
sg70
g2854
sg63
(lp4512
g56
(g77
g58
NtRp4513
(dp4514
g61
(dp4515
g81
g82
ssg70
g4509
sg63
(lp4516
S'session_id'
p4517
asbag56
(g77
g58
NtRp4518
(dp4519
g61
(dp4520
g88
g89
ssg70
g4509
sg63
(lp4521
S':'
asbag56
(g77
g58
NtRp4522
(dp4523
g61
(dp4524
sg70
g4509
sg63
(lp4525
g56
(g57
g58
NtRp4526
(dp4527
g61
(dp4528
g69
I5
ssg70
g4522
sg63
(lp4529
S'127.0.0.1-4edacdec-511e-4575-8e7d-2b6208576f6e'
p4530
asbasbasbag56
(g72
g58
NtRp4531
(dp4532
g61
(dp4533
sg70
g2854
sg63
(lp4534
g56
(g77
g58
NtRp4535
(dp4536
g61
(dp4537
g81
g82
ssg70
g4531
sg63
(lp4538
S'session_id_name'
p4539
asbag56
(g77
g58
NtRp4540
(dp4541
g61
(dp4542
g88
g89
ssg70
g4531
sg63
(lp4543
S':'
asbag56
(g77
g58
NtRp4544
(dp4545
g61
(dp4546
sg70
g4531
sg63
(lp4547
g56
(g57
g58
NtRp4548
(dp4549
g61
(dp4550
g69
I5
ssg70
g4544
sg63
(lp4551
g2911
asbasbasbag56
(g72
g58
NtRp4552
(dp4553
g61
(dp4554
sg70
g2854
sg63
(lp4555
g56
(g77
g58
NtRp4556
(dp4557
g61
(dp4558
g81
g82
ssg70
g4552
sg63
(lp4559
S'session_new'
p4560
asbag56
(g77
g58
NtRp4561
(dp4562
g61
(dp4563
g88
g89
ssg70
g4552
sg63
(lp4564
S':'
asbag56
(g77
g58
NtRp4565
(dp4566
g61
(dp4567
sg70
g4552
sg63
(lp4568
g56
(g57
g58
NtRp4569
(dp4570
g61
(dp4571
g69
I5
ssg70
g4565
sg63
(lp4572
g1776
asbasbasbag56
(g72
g58
NtRp4573
(dp4574
g61
(dp4575
sg70
g2854
sg63
(lp4576
g56
(g77
g58
NtRp4577
(dp4578
g61
(dp4579
g81
g82
ssg70
g4573
sg63
(lp4580
S'status'
p4581
asbag56
(g77
g58
NtRp4582
(dp4583
g61
(dp4584
g88
g89
ssg70
g4573
sg63
(lp4585
S':'
asbag56
(g77
g58
NtRp4586
(dp4587
g61
(dp4588
sg70
g4573
sg63
(lp4589
g56
(g57
g58
NtRp4590
(dp4591
g61
(dp4592
g69
I5
ssg70
g4586
sg63
(lp4593
S'200'
p4594
asbasbasbag56
(g72
g58
NtRp4595
(dp4596
g61
(dp4597
sg70
g2854
sg63
(lp4598
g56
(g77
g58
NtRp4599
(dp4600
g61
(dp4601
g81
g82
ssg70
g4595
sg63
(lp4602
S'subtitle'
p4603
asbag56
(g77
g58
NtRp4604
(dp4605
g61
(dp4606
g88
g89
ssg70
g4595
sg63
(lp4607
S':'
asbag56
(g77
g58
NtRp4608
(dp4609
g61
(dp4610
sg70
g4595
sg63
(lp4611
g56
(g57
g58
NtRp4612
(dp4613
g61
(dp4614
g69
I5
ssg70
g4608
sg63
(lp4615
g3400
(S's\r\x00\x00\x00customize me!'
tRp4616
asbasbasbag56
(g72
g58
NtRp4617
(dp4618
g61
(dp4619
sg70
g2854
sg63
(lp4620
g56
(g77
g58
NtRp4621
(dp4622
g61
(dp4623
g81
g82
ssg70
g4617
sg63
(lp4624
S'title'
p4625
asbag56
(g77
g58
NtRp4626
(dp4627
g61
(dp4628
g88
g89
ssg70
g4617
sg63
(lp4629
S':'
asbag56
(g77
g58
NtRp4630
(dp4631
g61
(dp4632
sg70
g4617
sg63
(lp4633
g56
(g57
g58
NtRp4634
(dp4635
g61
(dp4636
g69
I5
ssg70
g4630
sg63
(lp4637
g121
asbasbasbag56
(g72
g58
NtRp4638
(dp4639
g61
(dp4640
sg70
g2854
sg63
(lp4641
g56
(g77
g58
NtRp4642
(dp4643
g61
(dp4644
g81
g82
ssg70
g4638
sg63
(lp4645
g2100
asbag56
(g77
g58
NtRp4646
(dp4647
g61
(dp4648
g88
g89
ssg70
g4638
sg63
(lp4649
S':'
asbag56
(g77
g58
NtRp4650
(dp4651
g61
(dp4652
sg70
g4638
sg63
(lp4653
g56
(g57
g58
NtRp4654
(dp4655
g61
(dp4656
g69
I5
ssg70
g4650
sg63
(lp4657
g2113
asbasbasbag56
(g72
g58
NtRp4658
(dp4659
g61
(dp4660
sg70
g2854
sg63
(lp4661
g56
(g77
g58
NtRp4662
(dp4663
g61
(dp4664
g81
g82
ssg70
g4658
sg63
(lp4665
S'view'
p4666
asbag56
(g77
g58
NtRp4667
(dp4668
g61
(dp4669
g88
g89
ssg70
g4658
sg63
(lp4670
S':'
asbag56
(g77
g58
NtRp4671
(dp4672
g61
(dp4673
sg70
g4658
sg63
(lp4674
g56
(g57
g58
NtRp4675
(dp4676
g61
(dp4677
g69
I5
ssg70
g4671
sg63
(lp4678
S'default/index.html'
p4679
asbasbasbasbasbsS'locals'
p4680
(dp4681
S'OBJECT'
p4682
S"<class 'gluon.html.OBJECT'>"
p4683
sS'_file'
p4684
S"'/datos/static/js/superfish.js'"
p4685
sS'SQLDB'
p4686
S"<class 'gluon.dal.DAL'>"
p4687
sg2836
S"<Storage {'_Session__hash': '\\xc8[\\xd5\\xc1#\\xd8e\\x10\\xe3\\x06\\x0ba\\xddT\\x92m'}>"
p4688
sS'LINK'
p4689
S"<class 'gluon.html.LINK'>"
p4690
sS'BR'
p4691
S"<class 'gluon.html.BR'>"
p4692
sS'local_import'
p4693
S'<function <lambda>>'
p4694
sS'OPTGROUP'
p4695
S"<class 'gluon.html.OPTGROUP'>"
p4696
sS'PRE'
p4697
S"<class 'gluon.html.PRE'>"
p4698
sS'IS_INT_IN_RANGE'
p4699
S"<class 'gluon.validators.IS_INT_IN_RANGE'>"
p4700
sS'left_sidebar_enabled'
p4701
g99
sS'IS_LOWER'
p4702
S"<class 'gluon.validators.IS_LOWER'>"
p4703
sS'IS_STRONG'
p4704
S"<class 'gluon.validators.IS_STRONG'>"
p4705
sS'cache'
p4706
S'<gluon.cache.Cache object>'
p4707
sS'IS_IN_DB'
p4708
S"<class 'gluon.validators.IS_IN_DB'>"
p4709
sS'TAG'
p4710
S'<gluon.html.__TAG__ object>'
p4711
sS'_k'
p4712
S'5'
sS'SQLField'
p4713
S"<class 'gluon.dal.Field'>"
p4714
sS'BODY'
p4715
S"<class 'gluon.html.BODY'>"
p4716
sS'IS_DATE_IN_RANGE'
p4717
S"<class 'gluon.validators.IS_DATE_IN_RANGE'>"
p4718
sS'TH'
p4719
S"<class 'gluon.html.TH'>"
p4720
sS'URL'
p4721
S'<function URL>'
p4722
sS'__file__'
p4723
S"'/home/alumno/web2py/applications/datos/views/default/index.html'"
p4724
sS'db'
p4725
S"<DAL {'_migrate_enabled': True, '_lastsql': 'SEL...'_uri_hash': 'eb1dad4d662ce09be948e804719cfbad'}>"
p4726
sS'P'
S"<class 'gluon.html.P'>"
p4727
sS'TFOOT'
p4728
S"<class 'gluon.html.TFOOT'>"
p4729
sS'XHTML'
p4730
S"<class 'gluon.html.XHTML'>"
p4731
sS'ON'
p4732
g1776
sS'OL'
p4733
S"<class 'gluon.html.OL'>"
p4734
sS'TEXTAREA'
p4735
S"<class 'gluon.html.TEXTAREA'>"
p4736
sS'MENU'
p4737
S"<class 'gluon.html.MENU'>"
p4738
sS'_file0'
p4739
S"'/datos/static/js/superfish.js'"
p4740
sS'LOAD'
p4741
S'<gluon.compileapp.LoadFactory object>'
p4742
sS'CODE'
p4743
S"<class 'gluon.html.CODE'>"
p4744
sS'HTTP'
p4745
S"<class 'gluon.http.HTTP'>"
p4746
sS'HR'
p4747
S"<class 'gluon.html.HR'>"
p4748
sS'IS_DATETIME'
p4749
S"<class 'gluon.validators.IS_DATETIME'>"
p4750
sS'HEAD'
p4751
S"<class 'gluon.html.HEAD'>"
p4752
sS'LABEL'
p4753
S"<class 'gluon.html.LABEL'>"
p4754
sS'CLEANUP'
p4755
S"<class 'gluon.validators.CLEANUP'>"
p4756
sS'SELECT'
p4757
S"<class 'gluon.html.SELECT'>"
p4758
sS'CENTER'
p4759
S"<class 'gluon.html.CENTER'>"
p4760
sS'left_sidebar_style'
p4761
S'\'style="display: none;"\''
p4762
sS'alumnos'
p4763
S'<gluon.dal.Rows object>'
p4764
sS'__builtins__'
p4765
S"{'ArithmeticError': <type 'exceptions.ArithmeticError'>, 'AssertionError': <type 'exceptions.AssertionError'>, 'AttributeError': <type 'exceptions.AttributeError'>, 'BaseException': <type 'exceptions.BaseException'>, 'BufferError': <type 'exceptions.BufferError'>, 'BytesWarning': <type 'exceptions.BytesWarning'>, 'DeprecationWarning': <type 'exceptions.DeprecationWarning'>, 'EOFError': <type 'exceptions.EOFError'>, 'Ellipsis': Ellipsis, 'EnvironmentError': <type 'exceptions.EnvironmentError'>, ...}"
p4766
sS'IS_LIST_OF'
p4767
S"<class 'gluon.validators.IS_LIST_OF'>"
p4768
sS'SQLFORM'
p4769
S"<class 'gluon.sqlhtml.SQLFORM'>"
p4770
sS'_item'
p4771
S"'author'"
p4772
sS'EM'
p4773
S"<class 'gluon.html.EM'>"
p4774
sS'redirect'
p4775
S'<function redirect>'
p4776
sS'FIELDSET'
p4777
S"<class 'gluon.html.FIELDSET'>"
p4778
sS'IS_EQUAL_TO'
p4779
S"<class 'gluon.validators.IS_EQUAL_TO'>"
p4780
sS'embed64'
p4781
S'<function embed64>'
p4782
sS'INPUT'
p4783
S"<class 'gluon.html.INPUT'>"
p4784
sS'EMBED'
p4785
S"<class 'gluon.html.EMBED'>"
p4786
sS'FORM'
p4787
S"<class 'gluon.html.FORM'>"
p4788
sS'width_content'
p4789
S"'100%'"
p4790
sS'H2'
p4791
S"<class 'gluon.html.H2'>"
p4792
sS'H3'
p4793
S"<class 'gluon.html.H3'>"
p4794
sS'H1'
p4795
S"<class 'gluon.html.H1'>"
p4796
sS'H6'
p4797
S"<class 'gluon.html.H6'>"
p4798
sS'H4'
p4799
S"<class 'gluon.html.H4'>"
p4800
sS'H5'
p4801
S"<class 'gluon.html.H5'>"
p4802
sS'UL'
p4803
S"<class 'gluon.html.UL'>"
p4804
sS'IS_UPPER'
p4805
S"<class 'gluon.validators.IS_UPPER'>"
p4806
sS'xmlescape'
p4807
S'<function xmlescape>'
p4808
sS'IS_TIME'
p4809
S"<class 'gluon.validators.IS_TIME'>"
p4810
sS'OPTION'
p4811
S"<class 'gluon.html.OPTION'>"
p4812
sS'TITLE'
p4813
S"<class 'gluon.html.TITLE'>"
p4814
sS'CRYPT'
p4815
S"<class 'gluon.validators.CRYPT'>"
p4816
sS'IS_EMPTY_OR'
p4817
S"<class 'gluon.validators.IS_EMPTY_OR'>"
p4818
sS'MARKMIN'
p4819
S"<class 'gluon.html.MARKMIN'>"
p4820
sS'SCRIPT'
p4821
S"<class 'gluon.html.SCRIPT'>"
p4822
sS'TABLE'
p4823
S"<class 'gluon.html.TABLE'>"
p4824
sS'IS_IPV4'
p4825
S"<class 'gluon.validators.IS_IPV4'>"
p4826
sS'IS_LENGTH'
p4827
S"<class 'gluon.validators.IS_LENGTH'>"
p4828
sS'XML'
p4829
S"<class 'gluon.html.XML'>"
p4830
sS'B'
S"<class 'gluon.html.B'>"
p4831
sS'IMG'
p4832
S"<class 'gluon.html.IMG'>"
p4833
sS'SQLTABLE'
p4834
S"<class 'gluon.sqlhtml.SQLTABLE'>"
p4835
sS'IS_MATCH'
p4836
S"<class 'gluon.validators.IS_MATCH'>"
p4837
sS'IS_ALPHANUMERIC'
p4838
S"<class 'gluon.validators.IS_ALPHANUMERIC'>"
p4839
sS'SPAN'
p4840
S"<class 'gluon.html.SPAN'>"
p4841
sS'IS_SLUG'
p4842
S"<class 'gluon.validators.IS_SLUG'>"
p4843
sS'BEAUTIFY'
p4844
S"<class 'gluon.html.BEAUTIFY'>"
p4845
sS'META'
p4846
S"<class 'gluon.html.META'>"
p4847
sS'IS_DATE'
p4848
S"<class 'gluon.validators.IS_DATE'>"
p4849
sS'IS_EMAIL'
p4850
S"<class 'gluon.validators.IS_EMAIL'>"
p4851
sS'IS_NOT_EMPTY'
p4852
S"<class 'gluon.validators.IS_NOT_EMPTY'>"
p4853
sg55
S"<Storage {'is_local': True, 'function': 'index',....14-54-15.52ac725f-9747-4d32-ad04-dfe3ede141ba'}>"
p4854
sS'TBODY'
p4855
S"<class 'gluon.html.TBODY'>"
p4856
sS'Field'
p4857
S"<class 'gluon.dal.Field'>"
p4858
sS'DIV'
p4859
S"<class 'gluon.html.DIV'>"
p4860
sS'LEGEND'
p4861
S"<class 'gluon.html.LEGEND'>"
p4862
sS'DAL'
p4863
S"<class 'gluon.dal.DAL'>"
p4864
sS'TT'
p4865
S"<class 'gluon.html.TT'>"
p4866
sS'TR'
p4867
S"<class 'gluon.html.TR'>"
p4868
sS'LI'
p4869
S"<class 'gluon.html.LI'>"
p4870
sS'right_sidebar_enabled'
p4871
g99
sS'IFRAME'
p4872
S"<class 'gluon.html.IFRAME'>"
p4873
sS'TD'
p4874
S"<class 'gluon.html.TD'>"
p4875
sS'IS_URL'
p4876
S"<class 'gluon.validators.IS_URL'>"
p4877
sS'A'
S"<class 'gluon.html.A'>"
p4878
sS'STYLE'
p4879
S"<class 'gluon.html.STYLE'>"
p4880
sS'IS_DATETIME_IN_RANGE'
p4881
S"<class 'gluon.validators.IS_DATETIME_IN_RANGE'>"
p4882
sS'HTML'
p4883
S"<class 'gluon.html.HTML'>"
p4884
sS'IS_IMAGE'
p4885
S"<class 'gluon.validators.IS_IMAGE'>"
p4886
sS'I'
S"<class 'gluon.html.I'>"
p4887
sS'right_sidebar_style'
p4888
S'\'style="display: none;"\''
p4889
sS'IS_NOT_IN_DB'
p4890
S"<class 'gluon.validators.IS_NOT_IN_DB'>"
p4891
sg2849
S"<Storage {'status': 200, 'body': <cStringIO.Stri...js/superfish.js'], 'view': 'default/index.html'}>"
p4892
sS'THEAD'
p4893
S"<class 'gluon.html.THEAD'>"
p4894
sS'IS_NULL_OR'
p4895
S"<class 'gluon.validators.IS_EMPTY_OR'>"
p4896
sS'alumno'
p4897
S"<Row {'update_record': <function <lambda> at 0x9...elete_record': <function <lambda> at 0x92b9224>}>"
p4898
sS'IS_FLOAT_IN_RANGE'
p4899
S"<class 'gluon.validators.IS_FLOAT_IN_RANGE'>"
p4900
sS'IS_EXPR'
p4901
S"<class 'gluon.validators.IS_EXPR'>"
p4902
sS'T'
S'<gluon.languages.translator object>'
p4903
sS'IS_IN_SET'
p4904
S"<class 'gluon.validators.IS_IN_SET'>"
p4905
sS'IS_UPLOAD_FILENAME'
p4906
S"<class 'gluon.validators.IS_UPLOAD_FILENAME'>"
p4907
sS'style_content'
p4908
S'\'style="width: 100%"\''
p4909
sS'IS_DECIMAL_IN_RANGE'
p4910
S"<class 'gluon.validators.IS_DECIMAL_IN_RANGE'>"
p4911
sssS'traceback'
p4912
S'Traceback (most recent call last):\n  File "/home/alumno/web2py/gluon/restricted.py", line 192, in restricted\n    exec ccode in environment\n  File "/home/alumno/web2py/applications/datos/views/default/index.html", line 111, in <module>\nNameError: name \'profesores\' is not defined\n'
p4913
s.