(dp1
S'output'
p2
S''
sS'layer'
p3
S'/home/alumno/web2py/applications/datos/views/default/index.html'
p4
sS'code'
p5
S'response.write(\'<!DOCTYPE html>\\n<html lang="\', escape=False)\nresponse.write(T.accepted_language or \'en\')\nresponse.write(\'" class="no-js"><!-- no-js need it for modernzr -->\\n  <head>\\n    \\n    <meta charset="utf-8" />\\t  \\t\\n    <!-- www.phpied.com/conditional-comments-block-downloads/ -->\\n    <!--[if IE]><![endif]-->    \\n    <!-- Always force latest IE rendering engine \\n\\t (even in intranet) & Chrome Frame \\n\\t Remove this if you use the .htaccess -->\\n    <meta http-equiv="X-UA-Compatible" content="IE=edge,chrome=1">\\n    \\n    <title>\', escape=False)\nresponse.write(response.title or request.application)\nresponse.write(\'</title>\\n    \\n    <!-- http://dev.w3.org/html5/markup/meta.name.html -->\\n    <meta name="application-name" content="\', escape=False)\nresponse.write(request.application)\nresponse.write(\'" />\\t\\n    \\n    <!-- Speaking of Google, don\\\'t forget to set your site up: \\n\\t http://google.com/webmasters -->\\n    <meta name="google-site-verification" content="" />\\n    \\n    <!--  Mobile Viewport Fix\\n\\t  j.mp/mobileviewport & davidbcalhoun.com/2010/viewport-metatag \\n\\t  device-width: Occupy full width of the screen in its current orientation\\n\\t  initial-scale = 1.0 retains dimensions instead of zooming out if page height > device height\\n\\t  maximum-scale = 1.0 retains dimensions instead of zooming in if page width < device width\\n      -->\\n    <meta name="viewport" content="width=device-width; initial-scale=1.0; maximum-scale=1.0">\\n    \\n    <!-- Place favicon.ico and apple-touch-icon.png in the root of your domain and delete these references -->\\n    <link rel="shortcut icon" href="\', escape=False)\nresponse.write(URL(\'static\',\'favicon.ico\'))\nresponse.write(\'" type="image/x-icon">\\n    <link rel="apple-touch-icon" href="\', escape=False)\nresponse.write(URL(\'static\',\'favicon.png\'))\nresponse.write(\'">\\n\\n    <!-- For the less-enabled mobile browsers like Opera Mini -->\\n    <link rel="stylesheet" media="handheld" href="\', escape=False)\nresponse.write(URL(\'static\',\'css/handheld.css\'))\nresponse.write(\'">\\n    \\n    <!-- All JavaScript at the bottom, except for Modernizr which enables HTML5 elements & feature detects -->\\n    <script src="\', escape=False)\nresponse.write(URL(\'static\',\'js/modernizr-1.7.min.js\'))\nresponse.write(\'"></script>\\n    \\n    \', escape=False)\n#------  require CSS and JS files for this page (read info in base.css) ------\nresponse.write(\'\\n    \', escape=False)\nresponse.files.append(URL(\'static\',\'css/base.css\'))\nresponse.write(\'\\n    \', escape=False)\nresponse.files.append(URL(\'static\',\'css/superfish.css\'))\nresponse.write(\'\\n    \', escape=False)\nresponse.files.append(URL(\'static\',\'js/superfish.js\'))\nresponse.write(\'\\n    \', escape=False)\n#------ include web2py specific js code (jquery, calendar, form stuff) ------\nresponse.write(\'\\n    \', escape=False)\nresponse.files.insert(0,URL(\'static\',\'js/jquery.js\'))\nresponse.files.insert(1,URL(\'static\',\'css/calendar.css\'))\nresponse.files.insert(2,URL(\'static\',\'js/calendar.js\'))\nfor _item in response.meta or []:\n    response.write(\'\\n     <meta name="\', escape=False)\n    response.write(_item)\n    response.write(\'" content="\', escape=False)\n    response.write(response.meta[_item])\n    response.write(\'" />\', escape=False)\n    pass\nfor _k,_file in enumerate(response.files or []):\n    if _file in response.files[:_k]:\n        continue\n    _file0=_file.lower().split(\'?\')[0]\n    if _file0.endswith(\'.css\'):\n        response.write(\'\\n     <link href="\', escape=False)\n        response.write(_file)\n        response.write(\'" rel="stylesheet" type="text/css" />\', escape=False)\n    elif _file0.endswith(\'.js\'):\n        response.write(\'\\n     <script src="\', escape=False)\n        response.write(_file)\n        response.write(\'" type="text/javascript"></script>\', escape=False)\n        pass\n    pass\nresponse.write(\'\\n    <script type="text/javascript"><!--\\n    // These variables are used by the web2py_ajax_init function in web2py_ajax.js (which is loaded below).\\n    var w2p_ajax_confirm_message = "\', escape=False)\nresponse.write(T(\'Are you sure you want to delete this object?\'))\nresponse.write(\'";\\n    var w2p_ajax_date_format = "\', escape=False)\nresponse.write(T(\'%Y-%m-%d\'))\nresponse.write(\'";\\n    var w2p_ajax_datetime_format = "\', escape=False)\nresponse.write(T(\'%Y-%m-%d %H:%M:%S\'))\nresponse.write(\'";\\n    //--></script>\\n    <script src="\', escape=False)\nresponse.write(URL(\'static\',\'js/web2py_ajax.js\'))\nresponse.write(\'" type="text/javascript"></script>\\n\', escape=False)\nresponse.write(\'\\n\\n    \', escape=False)\n#using sidebars need to know what sidebar you want to use\n#prior of using it, because of static width size of content, you can use\n#left_sidebar, right_sidebar, both or none (False left and right)\nleft_sidebar_enabled = globals().get(\'left_sidebar_enabled\',False)\nright_sidebar_enabled = globals().get(\'right_sidebar_enabled\',False)\nif left_sidebar_enabled and right_sidebar_enabled: width_content=\'63%\'\nelif left_sidebar_enabled != right_sidebar_enabled: width_content=\'740px\'\nelse: width_content=\'100%\'\nif left_sidebar_enabled: left_sidebar_style = \'style="display: block;"\'\nelse: left_sidebar_style = \'style="display: none;"\'\nif right_sidebar_enabled: right_sidebar_style = \'style="display: block;"\'\nelse: right_sidebar_style = \'style="display: none;"\'\nstyle_content = \'style="width: %s"\' % width_content\nresponse.write(\'\\n  </head>\\n  \\n  <!-- paulirish.com/2008/conditional-stylesheets-vs-css-hacks-answer-neither/ -->\\t\\n  <!--[if lt IE 7 ]> <body class="ie6"> <![endif]-->\\n  <!--[if IE 7 ]>    <body class="ie7"> <![endif]-->\\n  <!--[if IE 8 ]>    <body class="ie8"> <![endif]-->\\n  <!--[if IE 9 ]>    <body class="ie9"> <![endif]-->\\n  <!--[if (gt IE 9)|!(IE)]><!--> <body> <!--<![endif]-->\\n    \\n    <div class="flash">\', escape=False)\nresponse.write(response.flash or \'\')\nresponse.write(\'</div> <!-- notification div -->\\n    \\n    <div id="container">\\t      \\t\\t      \\t\\n      \\n      <div id="wrapper">\\t\\t\\n\\t\\n\\t<div id="header"> <!-- header and login nav -->\\n\\t  \', escape=False)\nresponse.write(\' <!-- this is default header -->\\n\\t  \', escape=False)\ntry:\n    response.write(auth.navbar(action=URL(\'default\',\'user\')))\nexcept:pass\nresponse.write(\'\\t\\t          \\n\\t  <h1><span id="appname">\', escape=False)\nresponse.write(request.application.capitalize())\nresponse.write(\'</span>App</h1>\\n\\t  <div style="clear: both;"></div><!-- Clear the divs -->\\n\\t  \', escape=False)\nresponse.write(\'\\t\\t\\t\\t  \\t\\t\\t\\t\\t  \\n\\t</div><!-- header  -->\\n\\t\\n\\t<div id="statusbar"><!-- statusbar is menu zone -->\\n\\t  \', escape=False)\nresponse.write(\' <!-- this is default statusbar -->\\n\\t  \', escape=False)\n#------ superfish menu ------\nresponse.write(\'\\n\\t  \', escape=False)\nresponse.write(MENU(response.menu,_class=\'sf-menu\'))\nresponse.write(\'\\n\\t  <script type="text/javascript">\\n\\t    jQuery(document).ready(function(){\\n\\t    jQuery(\\\'ul.sf-menu\\\').superfish();});\\n\\t  </script>\\n\\t  <div style="clear: both;"></div><!-- Clear the divs -->\\t\\n\\t  \', escape=False)\nresponse.write(\'\\t\\t\\t\\t\\n\\t</div><!-- statusbar -->\\n\\t\\n\\t<div id="page"> <!-- Here my central body -->\\t  \\n\\n\\t  \', escape=False)\nif left_sidebar_enabled:\n    response.write(\'\\n          <div id="left_sidebar" \', escape=False)\n    response.write(XML(left_sidebar_style))\n    response.write(\' >\\n            <div style="padding: 4px;">\\n\\t      \', escape=False)\n    response.write(\'Content Left Sidebar\', escape=False)\n    response.write(\'\\t\\t  \\n            </div>\\n          </div><!-- left_sidebar -->\\n\\t  \', escape=False)\n    pass\nresponse.write(\'\\n\\n\\t  <!-- content -->\\n\\t  <div id="content" \', escape=False)\nresponse.write(XML(style_content))\nresponse.write(\' >\\n\\t    \', escape=False)\nresponse.write(\'\\n<h1>Alumnos</h1>\\n<p>este es el registro de alumnos en el sistema\\n\\n\', escape=False)\nfor alumno in alumnos:\n    response.write("\\n    <ul>\\n    <li><a href=\'detalle/", escape=False)\n    response.write(alumno.codigo)\n    response.write("\'>", escape=False)\n    response.write(alumno.nombre)\n    response.write(\' \', escape=False)\n    response.write(alumno.apellidos)\n    response.write(\'</a></li>\\n    <hr>\\n    </ul>    \\n\', escape=False)\n    pass\nresponse.write(\'\\n</p>\\n<h1>Profesores</h1>\\n\\n<p>este es el registro de profesores en el sistema\\n\\n\', escape=False)\nfor profesor in profesores:\n    response.write("\\n    <ul>\\n    <li><a href=\'detalle/", escape=False)\n    response.write(profesor.codigo)\n    response.write("\'>", escape=False)\n    response.write(profesor.nombre_completo)\n    response.write(\'</a></li>\\n    <hr>\\n    </ul>\\n\', escape=False)\n    pass\nresponse.write(\'\\n    \\n</p>\\n\\n<h1>Cursos</h1>\\n<p>este es el registro de cursos en el sistema\\n\', escape=False)\nfor curso in curso:\n    response.write("\\n    <ul>\\n    <li><a href=\'detalle/", escape=False)\n    response.write(curso.codigo)\n    response.write("\'>", escape=False)\n    response.write(curso.nombre)\n    response.write(\'</a></li>\\n    <hr>\\n    </ul>\\n\', escape=False)\n    pass\nresponse.write(\'\\n</p>\\n\', escape=False)\nresponse.write(\'\\t\\n\\t  </div>\\n\\t  <!-- content -->\\n\\n\\t  \', escape=False)\nif right_sidebar_enabled:\n    response.write(\'\\n          <div id="right_sidebar" \', escape=False)\n    response.write(XML(right_sidebar_style))\n    response.write(\' >\\n            <div style="padding: 4px;">\\n              \', escape=False)\n    response.write(\'Content Right Sidebar\', escape=False)\n    response.write(\'\\n            </div>\\n\\t  </div><!-- right_sidebar -->\\n          \', escape=False)\n    pass\nresponse.write(\'\\n\\n\\n\\t  <div style="clear: both;"></div><!-- Clear the divs -->\\n\\t  \\n\\t</div><!-- page -->\\t\\t\\t\\t\\t\\t\\t\\n\\t\\n\\t<div id="footer">\\n\\t  \', escape=False)\nresponse.write(\' <!-- this is default footer -->\\n\\t  <a href="http://www.web2py.com/" style="float: left; padding-right: 6px;">\\n\\t    <img src="\', escape=False)\nresponse.write(URL(\'static\',\'images/poweredby.png\'))\nresponse.write(\'"/>\\n\\t  </a>\\n\\t  \', escape=False)\nresponse.write(T(\'Copyright\'))\nresponse.write(\' &#169; 2010\\t\\t\\t\\t\\n\\t  <div style="clear: both;"></div><!-- Clear the divs -->\\n\\t  \', escape=False)\nresponse.write(\'\\n\\n\\t</div><!-- footer -->\\t\\t\\t\\n      </div><!-- wrapper -->\\n    </div><!-- container -->\\t\\t\\n    \\n    <!--[if lt IE 7 ]>\\n\\t<script src="\', escape=False)\nresponse.write(URL(\'static\',\'js/dd_belatedpng.js\'))\nresponse.write(\'"></script>\\n\\t<script> DD_belatedPNG.fix(\\\'img, .png_bg\\\'); //fix any <img> or .png_bg background-images </script>\\n\\t<![endif]-->\\n    \\n    <!-- asynchronous google analytics: mathiasbynens.be/notes/async-analytics-snippet \\n\\t change the UA-XXXXX-X to be your site\\\'s ID -->\\n    <!--   \\n\\t   <script>\\n\\t     var _gaq = [[\\\'_setAccount\\\', \\\'UA-XXXXX-X\\\'], [\\\'_trackPageview\\\']];\\n\\t     (function(d, t) {\\n\\t     var g = d.createElement(t),\\n\\t     s = d.getElementsByTagName(t)[0];\\n\\t     g.async = true;\\n\\t     g.src = \\\'//www.google-analytics.com/ga.js\\\';\\n\\t     s.parentNode.insertBefore(g, s);\\n\\t     })(document, \\\'script\\\');\\n\\t   </script>\\n\\t   -->    \\n  </body>\\n</html>\\n\', escape=False)'
p6
sS'snapshot'
p7
(dp8
S'exception'
p9
(dp10
S'__hash__'
p11
S"<method-wrapper '__hash__' of exceptions.NameError object>"
p12
sS'__setattr__'
p13
S"<method-wrapper '__setattr__' of exceptions.NameError object>"
p14
sS'__reduce_ex__'
p15
S'<built-in method __reduce_ex__ of exceptions.NameError object>'
p16
sS'__getslice__'
p17
S"<method-wrapper '__getslice__' of exceptions.NameError object>"
p18
sS'__getitem__'
p19
S"<method-wrapper '__getitem__' of exceptions.NameError object>"
p20
sS'__setstate__'
p21
S'<built-in method __setstate__ of exceptions.NameError object>'
p22
sS'__reduce__'
p23
S'<built-in method __reduce__ of exceptions.NameError object>'
p24
sS'__str__'
p25
S"<method-wrapper '__str__' of exceptions.NameError object>"
p26
sS'__format__'
p27
S'<built-in method __format__ of exceptions.NameError object>'
p28
sS'__getattribute__'
p29
S"<method-wrapper '__getattribute__' of exceptions.NameError object>"
p30
sS'__class__'
p31
S"<type 'exceptions.NameError'>"
p32
sS'__unicode__'
p33
S'<built-in method __unicode__ of exceptions.NameError object>'
p34
sS'__delattr__'
p35
S"<method-wrapper '__delattr__' of exceptions.NameError object>"
p36
sS'__subclasshook__'
p37
S'<built-in method __subclasshook__ of type object>'
p38
sS'__repr__'
p39
S"<method-wrapper '__repr__' of exceptions.NameError object>"
p40
sS'args'
p41
S'("name \'curso\' is not defined",)'
p42
sS'__dict__'
p43
S'{}'
p44
sS'__sizeof__'
p45
S'<built-in method __sizeof__ of exceptions.NameError object>'
p46
sS'__doc__'
p47
S"'Name not found globally.'"
p48
sS'__init__'
p49
S"<method-wrapper '__init__' of exceptions.NameError object>"
p50
sS'__new__'
p51
S'<built-in method __new__ of type object>'
p52
ssS'evalue'
p53
S"name 'curso' is not defined"
p54
sS'request'
p55
ccopy_reg
_reconstructor
p56
(cgluon.html
BEAUTIFY
p57
c__builtin__
object
p58
NtRp59
(dp60
S'attributes'
p61
(dp62
sS'components'
p63
(lp64
g56
(cgluon.html
TABLE
p65
g58
NtRp66
(dp67
g61
(dp68
S'level'
p69
I5
ssS'parent'
p70
Nsg63
(lp71
g56
(cgluon.html
TR
p72
g58
NtRp73
(dp74
g61
(dp75
sg70
g66
sg63
(lp76
g56
(cgluon.html
TD
p77
g58
NtRp78
(dp79
g61
(dp80
S'_style'
p81
S'font-weight:bold;'
p82
ssg70
g73
sg63
(lp83
S'ajax'
p84
asbag56
(g77
g58
NtRp85
(dp86
g61
(dp87
S'_valign'
p88
S'top'
p89
ssg70
g73
sg63
(lp90
S':'
asbag56
(g77
g58
NtRp91
(dp92
g61
(dp93
sg70
g73
sg63
(lp94
g56
(g57
g58
NtRp95
(dp96
g61
(dp97
g69
I5
ssg70
g91
sg63
(lp98
S'False'
p99
asbasbasbag56
(g72
g58
NtRp100
(dp101
g61
(dp102
sg70
g66
sg63
(lp103
g56
(g77
g58
NtRp104
(dp105
g61
(dp106
g81
g82
ssg70
g100
sg63
(lp107
S'application'
p108
asbag56
(g77
g58
NtRp109
(dp110
g61
(dp111
g88
g89
ssg70
g100
sg63
(lp112
S':'
asbag56
(g77
g58
NtRp113
(dp114
g61
(dp115
sg70
g100
sg63
(lp116
g56
(g57
g58
NtRp117
(dp118
g61
(dp119
g69
I5
ssg70
g113
sg63
(lp120
S'datos'
p121
asbasbasbag56
(g72
g58
NtRp122
(dp123
g61
(dp124
sg70
g66
sg63
(lp125
g56
(g77
g58
NtRp126
(dp127
g61
(dp128
g81
g82
ssg70
g122
sg63
(lp129
g41
asbag56
(g77
g58
NtRp130
(dp131
g61
(dp132
g88
g89
ssg70
g122
sg63
(lp133
S':'
asbag56
(g77
g58
NtRp134
(dp135
g61
(dp136
sg70
g122
sg63
(lp137
g56
(g57
g58
NtRp138
(dp139
g61
(dp140
g69
I5
ssg70
g134
sg63
(lp141
g56
(g65
g58
NtRp142
(dp143
g61
(dp144
g69
I4
ssg70
Nsg63
(lp145
sbasbasbasbag56
(g72
g58
NtRp146
(dp147
g61
(dp148
sg70
g66
sg63
(lp149
g56
(g77
g58
NtRp150
(dp151
g61
(dp152
g81
g82
ssg70
g146
sg63
(lp153
S'body'
p154
asbag56
(g77
g58
NtRp155
(dp156
g61
(dp157
g88
g89
ssg70
g146
sg63
(lp158
S':'
asbag56
(g77
g58
NtRp159
(dp160
g61
(dp161
sg70
g146
sg63
(lp162
g56
(g57
g58
NtRp163
(dp164
g61
(dp165
g69
I5
ssg70
g159
sg63
(lp166
S'<cStringIO.StringO object at 0x9abcd60>'
p167
asbasbasbag56
(g72
g58
NtRp168
(dp169
g61
(dp170
sg70
g66
sg63
(lp171
g56
(g77
g58
NtRp172
(dp173
g61
(dp174
g81
g82
ssg70
g168
sg63
(lp175
S'client'
p176
asbag56
(g77
g58
NtRp177
(dp178
g61
(dp179
g88
g89
ssg70
g168
sg63
(lp180
S':'
asbag56
(g77
g58
NtRp181
(dp182
g61
(dp183
sg70
g168
sg63
(lp184
g56
(g57
g58
NtRp185
(dp186
g61
(dp187
g69
I5
ssg70
g181
sg63
(lp188
S'127.0.0.1'
p189
asbasbasbag56
(g72
g58
NtRp190
(dp191
g61
(dp192
sg70
g66
sg63
(lp193
g56
(g77
g58
NtRp194
(dp195
g61
(dp196
g81
g82
ssg70
g190
sg63
(lp197
S'controller'
p198
asbag56
(g77
g58
NtRp199
(dp200
g61
(dp201
g88
g89
ssg70
g190
sg63
(lp202
S':'
asbag56
(g77
g58
NtRp203
(dp204
g61
(dp205
sg70
g190
sg63
(lp206
g56
(g57
g58
NtRp207
(dp208
g61
(dp209
g69
I5
ssg70
g203
sg63
(lp210
S'default'
p211
asbasbasbag56
(g72
g58
NtRp212
(dp213
g61
(dp214
sg70
g66
sg63
(lp215
g56
(g77
g58
NtRp216
(dp217
g61
(dp218
g81
g82
ssg70
g212
sg63
(lp219
S'cookies'
p220
asbag56
(g77
g58
NtRp221
(dp222
g61
(dp223
g88
g89
ssg70
g212
sg63
(lp224
S':'
asbag56
(g77
g58
NtRp225
(dp226
g61
(dp227
sg70
g212
sg63
(lp228
g56
(g57
g58
NtRp229
(dp230
g61
(dp231
g69
I5
ssg70
g225
sg63
(lp232
g56
(g65
g58
NtRp233
(dp234
g61
(dp235
g69
I4
ssg70
Nsg63
(lp236
g56
(g72
g58
NtRp237
(dp238
g61
(dp239
sg70
g233
sg63
(lp240
g56
(g77
g58
NtRp241
(dp242
g61
(dp243
g81
g82
ssg70
g237
sg63
(lp244
S'adminLanguage'
p245
asbag56
(g77
g58
NtRp246
(dp247
g61
(dp248
g88
g89
ssg70
g237
sg63
(lp249
S':'
asbag56
(g77
g58
NtRp250
(dp251
g61
(dp252
sg70
g237
sg63
(lp253
g56
(g57
g58
NtRp254
(dp255
g61
(dp256
g69
I4
ssg70
g250
sg63
(lp257
g56
(g65
g58
NtRp258
(dp259
g61
(dp260
g69
I3
ssg70
Nsg63
(lp261
g56
(g72
g58
NtRp262
(dp263
g61
(dp264
sg70
g258
sg63
(lp265
g56
(g77
g58
NtRp266
(dp267
g61
(dp268
g81
g82
ssg70
g262
sg63
(lp269
S'comment'
p270
asbag56
(g77
g58
NtRp271
(dp272
g61
(dp273
g88
g89
ssg70
g262
sg63
(lp274
S':'
asbag56
(g77
g58
NtRp275
(dp276
g61
(dp277
sg70
g262
sg63
(lp278
g56
(g57
g58
NtRp279
(dp280
g61
(dp281
g69
I3
ssg70
g275
sg63
(lp282
S''
asbasbasbag56
(g72
g58
NtRp283
(dp284
g61
(dp285
sg70
g258
sg63
(lp286
g56
(g77
g58
NtRp287
(dp288
g61
(dp289
g81
g82
ssg70
g283
sg63
(lp290
S'domain'
p291
asbag56
(g77
g58
NtRp292
(dp293
g61
(dp294
g88
g89
ssg70
g283
sg63
(lp295
S':'
asbag56
(g77
g58
NtRp296
(dp297
g61
(dp298
sg70
g283
sg63
(lp299
g56
(g57
g58
NtRp300
(dp301
g61
(dp302
g69
I3
ssg70
g296
sg63
(lp303
S''
asbasbasbag56
(g72
g58
NtRp304
(dp305
g61
(dp306
sg70
g258
sg63
(lp307
g56
(g77
g58
NtRp308
(dp309
g61
(dp310
g81
g82
ssg70
g304
sg63
(lp311
S'expires'
p312
asbag56
(g77
g58
NtRp313
(dp314
g61
(dp315
g88
g89
ssg70
g304
sg63
(lp316
S':'
asbag56
(g77
g58
NtRp317
(dp318
g61
(dp319
sg70
g304
sg63
(lp320
g56
(g57
g58
NtRp321
(dp322
g61
(dp323
g69
I3
ssg70
g317
sg63
(lp324
S''
asbasbasbag56
(g72
g58
NtRp325
(dp326
g61
(dp327
sg70
g258
sg63
(lp328
g56
(g77
g58
NtRp329
(dp330
g61
(dp331
g81
g82
ssg70
g325
sg63
(lp332
S'httponly'
p333
asbag56
(g77
g58
NtRp334
(dp335
g61
(dp336
g88
g89
ssg70
g325
sg63
(lp337
S':'
asbag56
(g77
g58
NtRp338
(dp339
g61
(dp340
sg70
g325
sg63
(lp341
g56
(g57
g58
NtRp342
(dp343
g61
(dp344
g69
I3
ssg70
g338
sg63
(lp345
S''
asbasbasbag56
(g72
g58
NtRp346
(dp347
g61
(dp348
sg70
g258
sg63
(lp349
g56
(g77
g58
NtRp350
(dp351
g61
(dp352
g81
g82
ssg70
g346
sg63
(lp353
S'max-age'
p354
asbag56
(g77
g58
NtRp355
(dp356
g61
(dp357
g88
g89
ssg70
g346
sg63
(lp358
S':'
asbag56
(g77
g58
NtRp359
(dp360
g61
(dp361
sg70
g346
sg63
(lp362
g56
(g57
g58
NtRp363
(dp364
g61
(dp365
g69
I3
ssg70
g359
sg63
(lp366
S''
asbasbasbag56
(g72
g58
NtRp367
(dp368
g61
(dp369
sg70
g258
sg63
(lp370
g56
(g77
g58
NtRp371
(dp372
g61
(dp373
g81
g82
ssg70
g367
sg63
(lp374
S'path'
p375
asbag56
(g77
g58
NtRp376
(dp377
g61
(dp378
g88
g89
ssg70
g367
sg63
(lp379
S':'
asbag56
(g77
g58
NtRp380
(dp381
g61
(dp382
sg70
g367
sg63
(lp383
g56
(g57
g58
NtRp384
(dp385
g61
(dp386
g69
I3
ssg70
g380
sg63
(lp387
S''
asbasbasbag56
(g72
g58
NtRp388
(dp389
g61
(dp390
sg70
g258
sg63
(lp391
g56
(g77
g58
NtRp392
(dp393
g61
(dp394
g81
g82
ssg70
g388
sg63
(lp395
S'secure'
p396
asbag56
(g77
g58
NtRp397
(dp398
g61
(dp399
g88
g89
ssg70
g388
sg63
(lp400
S':'
asbag56
(g77
g58
NtRp401
(dp402
g61
(dp403
sg70
g388
sg63
(lp404
g56
(g57
g58
NtRp405
(dp406
g61
(dp407
g69
I3
ssg70
g401
sg63
(lp408
S''
asbasbasbag56
(g72
g58
NtRp409
(dp410
g61
(dp411
sg70
g258
sg63
(lp412
g56
(g77
g58
NtRp413
(dp414
g61
(dp415
g81
g82
ssg70
g409
sg63
(lp416
S'version'
p417
asbag56
(g77
g58
NtRp418
(dp419
g61
(dp420
g88
g89
ssg70
g409
sg63
(lp421
S':'
asbag56
(g77
g58
NtRp422
(dp423
g61
(dp424
sg70
g409
sg63
(lp425
g56
(g57
g58
NtRp426
(dp427
g61
(dp428
g69
I3
ssg70
g422
sg63
(lp429
S''
asbasbasbasbasbasbasbag56
(g72
g58
NtRp430
(dp431
g61
(dp432
sg70
g233
sg63
(lp433
g56
(g77
g58
NtRp434
(dp435
g61
(dp436
g81
g82
ssg70
g430
sg63
(lp437
S'session_id_admin'
p438
asbag56
(g77
g58
NtRp439
(dp440
g61
(dp441
g88
g89
ssg70
g430
sg63
(lp442
S':'
asbag56
(g77
g58
NtRp443
(dp444
g61
(dp445
sg70
g430
sg63
(lp446
g56
(g57
g58
NtRp447
(dp448
g61
(dp449
g69
I4
ssg70
g443
sg63
(lp450
g56
(g65
g58
NtRp451
(dp452
g61
(dp453
g69
I3
ssg70
Nsg63
(lp454
g56
(g72
g58
NtRp455
(dp456
g61
(dp457
sg70
g451
sg63
(lp458
g56
(g77
g58
NtRp459
(dp460
g61
(dp461
g81
g82
ssg70
g455
sg63
(lp462
g270
asbag56
(g77
g58
NtRp463
(dp464
g61
(dp465
g88
g89
ssg70
g455
sg63
(lp466
S':'
asbag56
(g77
g58
NtRp467
(dp468
g61
(dp469
sg70
g455
sg63
(lp470
g56
(g57
g58
NtRp471
(dp472
g61
(dp473
g69
I3
ssg70
g467
sg63
(lp474
S''
asbasbasbag56
(g72
g58
NtRp475
(dp476
g61
(dp477
sg70
g451
sg63
(lp478
g56
(g77
g58
NtRp479
(dp480
g61
(dp481
g81
g82
ssg70
g475
sg63
(lp482
g291
asbag56
(g77
g58
NtRp483
(dp484
g61
(dp485
g88
g89
ssg70
g475
sg63
(lp486
S':'
asbag56
(g77
g58
NtRp487
(dp488
g61
(dp489
sg70
g475
sg63
(lp490
g56
(g57
g58
NtRp491
(dp492
g61
(dp493
g69
I3
ssg70
g487
sg63
(lp494
S''
asbasbasbag56
(g72
g58
NtRp495
(dp496
g61
(dp497
sg70
g451
sg63
(lp498
g56
(g77
g58
NtRp499
(dp500
g61
(dp501
g81
g82
ssg70
g495
sg63
(lp502
g312
asbag56
(g77
g58
NtRp503
(dp504
g61
(dp505
g88
g89
ssg70
g495
sg63
(lp506
S':'
asbag56
(g77
g58
NtRp507
(dp508
g61
(dp509
sg70
g495
sg63
(lp510
g56
(g57
g58
NtRp511
(dp512
g61
(dp513
g69
I3
ssg70
g507
sg63
(lp514
S''
asbasbasbag56
(g72
g58
NtRp515
(dp516
g61
(dp517
sg70
g451
sg63
(lp518
g56
(g77
g58
NtRp519
(dp520
g61
(dp521
g81
g82
ssg70
g515
sg63
(lp522
g333
asbag56
(g77
g58
NtRp523
(dp524
g61
(dp525
g88
g89
ssg70
g515
sg63
(lp526
S':'
asbag56
(g77
g58
NtRp527
(dp528
g61
(dp529
sg70
g515
sg63
(lp530
g56
(g57
g58
NtRp531
(dp532
g61
(dp533
g69
I3
ssg70
g527
sg63
(lp534
S''
asbasbasbag56
(g72
g58
NtRp535
(dp536
g61
(dp537
sg70
g451
sg63
(lp538
g56
(g77
g58
NtRp539
(dp540
g61
(dp541
g81
g82
ssg70
g535
sg63
(lp542
g354
asbag56
(g77
g58
NtRp543
(dp544
g61
(dp545
g88
g89
ssg70
g535
sg63
(lp546
S':'
asbag56
(g77
g58
NtRp547
(dp548
g61
(dp549
sg70
g535
sg63
(lp550
g56
(g57
g58
NtRp551
(dp552
g61
(dp553
g69
I3
ssg70
g547
sg63
(lp554
S''
asbasbasbag56
(g72
g58
NtRp555
(dp556
g61
(dp557
sg70
g451
sg63
(lp558
g56
(g77
g58
NtRp559
(dp560
g61
(dp561
g81
g82
ssg70
g555
sg63
(lp562
g375
asbag56
(g77
g58
NtRp563
(dp564
g61
(dp565
g88
g89
ssg70
g555
sg63
(lp566
S':'
asbag56
(g77
g58
NtRp567
(dp568
g61
(dp569
sg70
g555
sg63
(lp570
g56
(g57
g58
NtRp571
(dp572
g61
(dp573
g69
I3
ssg70
g567
sg63
(lp574
S''
asbasbasbag56
(g72
g58
NtRp575
(dp576
g61
(dp577
sg70
g451
sg63
(lp578
g56
(g77
g58
NtRp579
(dp580
g61
(dp581
g81
g82
ssg70
g575
sg63
(lp582
g396
asbag56
(g77
g58
NtRp583
(dp584
g61
(dp585
g88
g89
ssg70
g575
sg63
(lp586
S':'
asbag56
(g77
g58
NtRp587
(dp588
g61
(dp589
sg70
g575
sg63
(lp590
g56
(g57
g58
NtRp591
(dp592
g61
(dp593
g69
I3
ssg70
g587
sg63
(lp594
S''
asbasbasbag56
(g72
g58
NtRp595
(dp596
g61
(dp597
sg70
g451
sg63
(lp598
g56
(g77
g58
NtRp599
(dp600
g61
(dp601
g81
g82
ssg70
g595
sg63
(lp602
g417
asbag56
(g77
g58
NtRp603
(dp604
g61
(dp605
g88
g89
ssg70
g595
sg63
(lp606
S':'
asbag56
(g77
g58
NtRp607
(dp608
g61
(dp609
sg70
g595
sg63
(lp610
g56
(g57
g58
NtRp611
(dp612
g61
(dp613
g69
I3
ssg70
g607
sg63
(lp614
S''
asbasbasbasbasbasbasbag56
(g72
g58
NtRp615
(dp616
g61
(dp617
sg70
g233
sg63
(lp618
g56
(g77
g58
NtRp619
(dp620
g61
(dp621
g81
g82
ssg70
g615
sg63
(lp622
S'session_id_datos'
p623
asbag56
(g77
g58
NtRp624
(dp625
g61
(dp626
g88
g89
ssg70
g615
sg63
(lp627
S':'
asbag56
(g77
g58
NtRp628
(dp629
g61
(dp630
sg70
g615
sg63
(lp631
g56
(g57
g58
NtRp632
(dp633
g61
(dp634
g69
I4
ssg70
g628
sg63
(lp635
g56
(g65
g58
NtRp636
(dp637
g61
(dp638
g69
I3
ssg70
Nsg63
(lp639
g56
(g72
g58
NtRp640
(dp641
g61
(dp642
sg70
g636
sg63
(lp643
g56
(g77
g58
NtRp644
(dp645
g61
(dp646
g81
g82
ssg70
g640
sg63
(lp647
g270
asbag56
(g77
g58
NtRp648
(dp649
g61
(dp650
g88
g89
ssg70
g640
sg63
(lp651
S':'
asbag56
(g77
g58
NtRp652
(dp653
g61
(dp654
sg70
g640
sg63
(lp655
g56
(g57
g58
NtRp656
(dp657
g61
(dp658
g69
I3
ssg70
g652
sg63
(lp659
S''
asbasbasbag56
(g72
g58
NtRp660
(dp661
g61
(dp662
sg70
g636
sg63
(lp663
g56
(g77
g58
NtRp664
(dp665
g61
(dp666
g81
g82
ssg70
g660
sg63
(lp667
g291
asbag56
(g77
g58
NtRp668
(dp669
g61
(dp670
g88
g89
ssg70
g660
sg63
(lp671
S':'
asbag56
(g77
g58
NtRp672
(dp673
g61
(dp674
sg70
g660
sg63
(lp675
g56
(g57
g58
NtRp676
(dp677
g61
(dp678
g69
I3
ssg70
g672
sg63
(lp679
S''
asbasbasbag56
(g72
g58
NtRp680
(dp681
g61
(dp682
sg70
g636
sg63
(lp683
g56
(g77
g58
NtRp684
(dp685
g61
(dp686
g81
g82
ssg70
g680
sg63
(lp687
g312
asbag56
(g77
g58
NtRp688
(dp689
g61
(dp690
g88
g89
ssg70
g680
sg63
(lp691
S':'
asbag56
(g77
g58
NtRp692
(dp693
g61
(dp694
sg70
g680
sg63
(lp695
g56
(g57
g58
NtRp696
(dp697
g61
(dp698
g69
I3
ssg70
g692
sg63
(lp699
S''
asbasbasbag56
(g72
g58
NtRp700
(dp701
g61
(dp702
sg70
g636
sg63
(lp703
g56
(g77
g58
NtRp704
(dp705
g61
(dp706
g81
g82
ssg70
g700
sg63
(lp707
g333
asbag56
(g77
g58
NtRp708
(dp709
g61
(dp710
g88
g89
ssg70
g700
sg63
(lp711
S':'
asbag56
(g77
g58
NtRp712
(dp713
g61
(dp714
sg70
g700
sg63
(lp715
g56
(g57
g58
NtRp716
(dp717
g61
(dp718
g69
I3
ssg70
g712
sg63
(lp719
S''
asbasbasbag56
(g72
g58
NtRp720
(dp721
g61
(dp722
sg70
g636
sg63
(lp723
g56
(g77
g58
NtRp724
(dp725
g61
(dp726
g81
g82
ssg70
g720
sg63
(lp727
g354
asbag56
(g77
g58
NtRp728
(dp729
g61
(dp730
g88
g89
ssg70
g720
sg63
(lp731
S':'
asbag56
(g77
g58
NtRp732
(dp733
g61
(dp734
sg70
g720
sg63
(lp735
g56
(g57
g58
NtRp736
(dp737
g61
(dp738
g69
I3
ssg70
g732
sg63
(lp739
S''
asbasbasbag56
(g72
g58
NtRp740
(dp741
g61
(dp742
sg70
g636
sg63
(lp743
g56
(g77
g58
NtRp744
(dp745
g61
(dp746
g81
g82
ssg70
g740
sg63
(lp747
g375
asbag56
(g77
g58
NtRp748
(dp749
g61
(dp750
g88
g89
ssg70
g740
sg63
(lp751
S':'
asbag56
(g77
g58
NtRp752
(dp753
g61
(dp754
sg70
g740
sg63
(lp755
g56
(g57
g58
NtRp756
(dp757
g61
(dp758
g69
I3
ssg70
g752
sg63
(lp759
S''
asbasbasbag56
(g72
g58
NtRp760
(dp761
g61
(dp762
sg70
g636
sg63
(lp763
g56
(g77
g58
NtRp764
(dp765
g61
(dp766
g81
g82
ssg70
g760
sg63
(lp767
g396
asbag56
(g77
g58
NtRp768
(dp769
g61
(dp770
g88
g89
ssg70
g760
sg63
(lp771
S':'
asbag56
(g77
g58
NtRp772
(dp773
g61
(dp774
sg70
g760
sg63
(lp775
g56
(g57
g58
NtRp776
(dp777
g61
(dp778
g69
I3
ssg70
g772
sg63
(lp779
S''
asbasbasbag56
(g72
g58
NtRp780
(dp781
g61
(dp782
sg70
g636
sg63
(lp783
g56
(g77
g58
NtRp784
(dp785
g61
(dp786
g81
g82
ssg70
g780
sg63
(lp787
g417
asbag56
(g77
g58
NtRp788
(dp789
g61
(dp790
g88
g89
ssg70
g780
sg63
(lp791
S':'
asbag56
(g77
g58
NtRp792
(dp793
g61
(dp794
sg70
g780
sg63
(lp795
g56
(g57
g58
NtRp796
(dp797
g61
(dp798
g69
I3
ssg70
g792
sg63
(lp799
S''
asbasbasbasbasbasbasbag56
(g72
g58
NtRp800
(dp801
g61
(dp802
sg70
g233
sg63
(lp803
g56
(g77
g58
NtRp804
(dp805
g61
(dp806
g81
g82
ssg70
g800
sg63
(lp807
S'session_id_examples'
p808
asbag56
(g77
g58
NtRp809
(dp810
g61
(dp811
g88
g89
ssg70
g800
sg63
(lp812
S':'
asbag56
(g77
g58
NtRp813
(dp814
g61
(dp815
sg70
g800
sg63
(lp816
g56
(g57
g58
NtRp817
(dp818
g61
(dp819
g69
I4
ssg70
g813
sg63
(lp820
g56
(g65
g58
NtRp821
(dp822
g61
(dp823
g69
I3
ssg70
Nsg63
(lp824
g56
(g72
g58
NtRp825
(dp826
g61
(dp827
sg70
g821
sg63
(lp828
g56
(g77
g58
NtRp829
(dp830
g61
(dp831
g81
g82
ssg70
g825
sg63
(lp832
g270
asbag56
(g77
g58
NtRp833
(dp834
g61
(dp835
g88
g89
ssg70
g825
sg63
(lp836
S':'
asbag56
(g77
g58
NtRp837
(dp838
g61
(dp839
sg70
g825
sg63
(lp840
g56
(g57
g58
NtRp841
(dp842
g61
(dp843
g69
I3
ssg70
g837
sg63
(lp844
S''
asbasbasbag56
(g72
g58
NtRp845
(dp846
g61
(dp847
sg70
g821
sg63
(lp848
g56
(g77
g58
NtRp849
(dp850
g61
(dp851
g81
g82
ssg70
g845
sg63
(lp852
g291
asbag56
(g77
g58
NtRp853
(dp854
g61
(dp855
g88
g89
ssg70
g845
sg63
(lp856
S':'
asbag56
(g77
g58
NtRp857
(dp858
g61
(dp859
sg70
g845
sg63
(lp860
g56
(g57
g58
NtRp861
(dp862
g61
(dp863
g69
I3
ssg70
g857
sg63
(lp864
S''
asbasbasbag56
(g72
g58
NtRp865
(dp866
g61
(dp867
sg70
g821
sg63
(lp868
g56
(g77
g58
NtRp869
(dp870
g61
(dp871
g81
g82
ssg70
g865
sg63
(lp872
g312
asbag56
(g77
g58
NtRp873
(dp874
g61
(dp875
g88
g89
ssg70
g865
sg63
(lp876
S':'
asbag56
(g77
g58
NtRp877
(dp878
g61
(dp879
sg70
g865
sg63
(lp880
g56
(g57
g58
NtRp881
(dp882
g61
(dp883
g69
I3
ssg70
g877
sg63
(lp884
S''
asbasbasbag56
(g72
g58
NtRp885
(dp886
g61
(dp887
sg70
g821
sg63
(lp888
g56
(g77
g58
NtRp889
(dp890
g61
(dp891
g81
g82
ssg70
g885
sg63
(lp892
g333
asbag56
(g77
g58
NtRp893
(dp894
g61
(dp895
g88
g89
ssg70
g885
sg63
(lp896
S':'
asbag56
(g77
g58
NtRp897
(dp898
g61
(dp899
sg70
g885
sg63
(lp900
g56
(g57
g58
NtRp901
(dp902
g61
(dp903
g69
I3
ssg70
g897
sg63
(lp904
S''
asbasbasbag56
(g72
g58
NtRp905
(dp906
g61
(dp907
sg70
g821
sg63
(lp908
g56
(g77
g58
NtRp909
(dp910
g61
(dp911
g81
g82
ssg70
g905
sg63
(lp912
g354
asbag56
(g77
g58
NtRp913
(dp914
g61
(dp915
g88
g89
ssg70
g905
sg63
(lp916
S':'
asbag56
(g77
g58
NtRp917
(dp918
g61
(dp919
sg70
g905
sg63
(lp920
g56
(g57
g58
NtRp921
(dp922
g61
(dp923
g69
I3
ssg70
g917
sg63
(lp924
S''
asbasbasbag56
(g72
g58
NtRp925
(dp926
g61
(dp927
sg70
g821
sg63
(lp928
g56
(g77
g58
NtRp929
(dp930
g61
(dp931
g81
g82
ssg70
g925
sg63
(lp932
g375
asbag56
(g77
g58
NtRp933
(dp934
g61
(dp935
g88
g89
ssg70
g925
sg63
(lp936
S':'
asbag56
(g77
g58
NtRp937
(dp938
g61
(dp939
sg70
g925
sg63
(lp940
g56
(g57
g58
NtRp941
(dp942
g61
(dp943
g69
I3
ssg70
g937
sg63
(lp944
S''
asbasbasbag56
(g72
g58
NtRp945
(dp946
g61
(dp947
sg70
g821
sg63
(lp948
g56
(g77
g58
NtRp949
(dp950
g61
(dp951
g81
g82
ssg70
g945
sg63
(lp952
g396
asbag56
(g77
g58
NtRp953
(dp954
g61
(dp955
g88
g89
ssg70
g945
sg63
(lp956
S':'
asbag56
(g77
g58
NtRp957
(dp958
g61
(dp959
sg70
g945
sg63
(lp960
g56
(g57
g58
NtRp961
(dp962
g61
(dp963
g69
I3
ssg70
g957
sg63
(lp964
S''
asbasbasbag56
(g72
g58
NtRp965
(dp966
g61
(dp967
sg70
g821
sg63
(lp968
g56
(g77
g58
NtRp969
(dp970
g61
(dp971
g81
g82
ssg70
g965
sg63
(lp972
g417
asbag56
(g77
g58
NtRp973
(dp974
g61
(dp975
g88
g89
ssg70
g965
sg63
(lp976
S':'
asbag56
(g77
g58
NtRp977
(dp978
g61
(dp979
sg70
g965
sg63
(lp980
g56
(g57
g58
NtRp981
(dp982
g61
(dp983
g69
I3
ssg70
g977
sg63
(lp984
S''
asbasbasbasbasbasbasbag56
(g72
g58
NtRp985
(dp986
g61
(dp987
sg70
g233
sg63
(lp988
g56
(g77
g58
NtRp989
(dp990
g61
(dp991
g81
g82
ssg70
g985
sg63
(lp992
S'session_id_welcome'
p993
asbag56
(g77
g58
NtRp994
(dp995
g61
(dp996
g88
g89
ssg70
g985
sg63
(lp997
S':'
asbag56
(g77
g58
NtRp998
(dp999
g61
(dp1000
sg70
g985
sg63
(lp1001
g56
(g57
g58
NtRp1002
(dp1003
g61
(dp1004
g69
I4
ssg70
g998
sg63
(lp1005
g56
(g65
g58
NtRp1006
(dp1007
g61
(dp1008
g69
I3
ssg70
Nsg63
(lp1009
g56
(g72
g58
NtRp1010
(dp1011
g61
(dp1012
sg70
g1006
sg63
(lp1013
g56
(g77
g58
NtRp1014
(dp1015
g61
(dp1016
g81
g82
ssg70
g1010
sg63
(lp1017
g270
asbag56
(g77
g58
NtRp1018
(dp1019
g61
(dp1020
g88
g89
ssg70
g1010
sg63
(lp1021
S':'
asbag56
(g77
g58
NtRp1022
(dp1023
g61
(dp1024
sg70
g1010
sg63
(lp1025
g56
(g57
g58
NtRp1026
(dp1027
g61
(dp1028
g69
I3
ssg70
g1022
sg63
(lp1029
S''
asbasbasbag56
(g72
g58
NtRp1030
(dp1031
g61
(dp1032
sg70
g1006
sg63
(lp1033
g56
(g77
g58
NtRp1034
(dp1035
g61
(dp1036
g81
g82
ssg70
g1030
sg63
(lp1037
g291
asbag56
(g77
g58
NtRp1038
(dp1039
g61
(dp1040
g88
g89
ssg70
g1030
sg63
(lp1041
S':'
asbag56
(g77
g58
NtRp1042
(dp1043
g61
(dp1044
sg70
g1030
sg63
(lp1045
g56
(g57
g58
NtRp1046
(dp1047
g61
(dp1048
g69
I3
ssg70
g1042
sg63
(lp1049
S''
asbasbasbag56
(g72
g58
NtRp1050
(dp1051
g61
(dp1052
sg70
g1006
sg63
(lp1053
g56
(g77
g58
NtRp1054
(dp1055
g61
(dp1056
g81
g82
ssg70
g1050
sg63
(lp1057
g312
asbag56
(g77
g58
NtRp1058
(dp1059
g61
(dp1060
g88
g89
ssg70
g1050
sg63
(lp1061
S':'
asbag56
(g77
g58
NtRp1062
(dp1063
g61
(dp1064
sg70
g1050
sg63
(lp1065
g56
(g57
g58
NtRp1066
(dp1067
g61
(dp1068
g69
I3
ssg70
g1062
sg63
(lp1069
S''
asbasbasbag56
(g72
g58
NtRp1070
(dp1071
g61
(dp1072
sg70
g1006
sg63
(lp1073
g56
(g77
g58
NtRp1074
(dp1075
g61
(dp1076
g81
g82
ssg70
g1070
sg63
(lp1077
g333
asbag56
(g77
g58
NtRp1078
(dp1079
g61
(dp1080
g88
g89
ssg70
g1070
sg63
(lp1081
S':'
asbag56
(g77
g58
NtRp1082
(dp1083
g61
(dp1084
sg70
g1070
sg63
(lp1085
g56
(g57
g58
NtRp1086
(dp1087
g61
(dp1088
g69
I3
ssg70
g1082
sg63
(lp1089
S''
asbasbasbag56
(g72
g58
NtRp1090
(dp1091
g61
(dp1092
sg70
g1006
sg63
(lp1093
g56
(g77
g58
NtRp1094
(dp1095
g61
(dp1096
g81
g82
ssg70
g1090
sg63
(lp1097
g354
asbag56
(g77
g58
NtRp1098
(dp1099
g61
(dp1100
g88
g89
ssg70
g1090
sg63
(lp1101
S':'
asbag56
(g77
g58
NtRp1102
(dp1103
g61
(dp1104
sg70
g1090
sg63
(lp1105
g56
(g57
g58
NtRp1106
(dp1107
g61
(dp1108
g69
I3
ssg70
g1102
sg63
(lp1109
S''
asbasbasbag56
(g72
g58
NtRp1110
(dp1111
g61
(dp1112
sg70
g1006
sg63
(lp1113
g56
(g77
g58
NtRp1114
(dp1115
g61
(dp1116
g81
g82
ssg70
g1110
sg63
(lp1117
g375
asbag56
(g77
g58
NtRp1118
(dp1119
g61
(dp1120
g88
g89
ssg70
g1110
sg63
(lp1121
S':'
asbag56
(g77
g58
NtRp1122
(dp1123
g61
(dp1124
sg70
g1110
sg63
(lp1125
g56
(g57
g58
NtRp1126
(dp1127
g61
(dp1128
g69
I3
ssg70
g1122
sg63
(lp1129
S''
asbasbasbag56
(g72
g58
NtRp1130
(dp1131
g61
(dp1132
sg70
g1006
sg63
(lp1133
g56
(g77
g58
NtRp1134
(dp1135
g61
(dp1136
g81
g82
ssg70
g1130
sg63
(lp1137
g396
asbag56
(g77
g58
NtRp1138
(dp1139
g61
(dp1140
g88
g89
ssg70
g1130
sg63
(lp1141
S':'
asbag56
(g77
g58
NtRp1142
(dp1143
g61
(dp1144
sg70
g1130
sg63
(lp1145
g56
(g57
g58
NtRp1146
(dp1147
g61
(dp1148
g69
I3
ssg70
g1142
sg63
(lp1149
S''
asbasbasbag56
(g72
g58
NtRp1150
(dp1151
g61
(dp1152
sg70
g1006
sg63
(lp1153
g56
(g77
g58
NtRp1154
(dp1155
g61
(dp1156
g81
g82
ssg70
g1150
sg63
(lp1157
g417
asbag56
(g77
g58
NtRp1158
(dp1159
g61
(dp1160
g88
g89
ssg70
g1150
sg63
(lp1161
S':'
asbag56
(g77
g58
NtRp1162
(dp1163
g61
(dp1164
sg70
g1150
sg63
(lp1165
g56
(g57
g58
NtRp1166
(dp1167
g61
(dp1168
g69
I3
ssg70
g1162
sg63
(lp1169
S''
asbasbasbasbasbasbasbasbasbasbasbag56
(g72
g58
NtRp1170
(dp1171
g61
(dp1172
sg70
g66
sg63
(lp1173
g56
(g77
g58
NtRp1174
(dp1175
g61
(dp1176
g81
g82
ssg70
g1170
sg63
(lp1177
S'env'
p1178
asbag56
(g77
g58
NtRp1179
(dp1180
g61
(dp1181
g88
g89
ssg70
g1170
sg63
(lp1182
S':'
asbag56
(g77
g58
NtRp1183
(dp1184
g61
(dp1185
sg70
g1170
sg63
(lp1186
g56
(g57
g58
NtRp1187
(dp1188
g61
(dp1189
g69
I5
ssg70
g1183
sg63
(lp1190
g56
(g65
g58
NtRp1191
(dp1192
g61
(dp1193
g69
I4
ssg70
Nsg63
(lp1194
g56
(g72
g58
NtRp1195
(dp1196
g61
(dp1197
sg70
g1191
sg63
(lp1198
g56
(g77
g58
NtRp1199
(dp1200
g61
(dp1201
g81
g82
ssg70
g1195
sg63
(lp1202
S'app_folders'
p1203
asbag56
(g77
g58
NtRp1204
(dp1205
g61
(dp1206
g88
g89
ssg70
g1195
sg63
(lp1207
S':'
asbag56
(g77
g58
NtRp1208
(dp1209
g61
(dp1210
sg70
g1195
sg63
(lp1211
g56
(g57
g58
NtRp1212
(dp1213
g61
(dp1214
g69
I4
ssg70
g1208
sg63
(lp1215
S"set(['/home/alumno/web2py/applications/admin/', '/home/alumno/web2py/applications/examples/', '/home/alumno/web2py/applications/welcome/', '/home/alumno/web2py/applications/datos/'])"
p1216
asbasbasbag56
(g72
g58
NtRp1217
(dp1218
g61
(dp1219
sg70
g1191
sg63
(lp1220
g56
(g77
g58
NtRp1221
(dp1222
g61
(dp1223
g81
g82
ssg70
g1217
sg63
(lp1224
S'applications_parent'
p1225
asbag56
(g77
g58
NtRp1226
(dp1227
g61
(dp1228
g88
g89
ssg70
g1217
sg63
(lp1229
S':'
asbag56
(g77
g58
NtRp1230
(dp1231
g61
(dp1232
sg70
g1217
sg63
(lp1233
g56
(g57
g58
NtRp1234
(dp1235
g61
(dp1236
g69
I4
ssg70
g1230
sg63
(lp1237
S'/home/alumno/web2py'
p1238
asbasbasbag56
(g72
g58
NtRp1239
(dp1240
g61
(dp1241
sg70
g1191
sg63
(lp1242
g56
(g77
g58
NtRp1243
(dp1244
g61
(dp1245
g81
g82
ssg70
g1239
sg63
(lp1246
S'cmd_args'
p1247
asbag56
(g77
g58
NtRp1248
(dp1249
g61
(dp1250
g88
g89
ssg70
g1239
sg63
(lp1251
S':'
asbag56
(g77
g58
NtRp1252
(dp1253
g61
(dp1254
sg70
g1239
sg63
(lp1255
g56
(g57
g58
NtRp1256
(dp1257
g61
(dp1258
g69
I4
ssg70
g1252
sg63
(lp1259
g56
(g65
g58
NtRp1260
(dp1261
g61
(dp1262
g69
I3
ssg70
Nsg63
(lp1263
sbasbasbasbag56
(g72
g58
NtRp1264
(dp1265
g61
(dp1266
sg70
g1191
sg63
(lp1267
g56
(g77
g58
NtRp1268
(dp1269
g61
(dp1270
g81
g82
ssg70
g1264
sg63
(lp1271
S'cmd_options'
p1272
asbag56
(g77
g58
NtRp1273
(dp1274
g61
(dp1275
g88
g89
ssg70
g1264
sg63
(lp1276
S':'
asbag56
(g77
g58
NtRp1277
(dp1278
g61
(dp1279
sg70
g1264
sg63
(lp1280
g56
(g57
g58
NtRp1281
(dp1282
g61
(dp1283
g69
I4
ssg70
g1277
sg63
(lp1284
S"<Values at 0x9087cec: {'verbose': False, 'ip': '127.0.0.1', 'shutdown_timeout': 5, 'taskbar': False, 'port': 8000, 'maxthreads': None, 'softcron': False, 'server_name': 'ubuntu-dev', 'bpython': False, 'nogui': False, 'nocron': False, 'extcron': False, 'debuglevel': 30, 'test': None, 'folder': '/home/alumno/web2py', 'config': '', 'import_models': False, 'winservice': '', 'shell': None, 'run': '', 'log_filename': 'httpserver.log', 'args': [''], 'profiler_filename': None, 'ssl_private_key': '', 'password': 'toor', 'request_queue_size': 5, 'ssl_certificate': '', 'cronjob': False, 'plain': False, 'quiet': False, 'interfaces': None, 'minthreads': None, 'timeout': 10, 'numthreads': None, 'nobanner': False, 'pid_filename': 'httpserver.pid'}>"
p1285
asbasbasbag56
(g72
g58
NtRp1286
(dp1287
g61
(dp1288
sg70
g1191
sg63
(lp1289
g56
(g77
g58
NtRp1290
(dp1291
g61
(dp1292
g81
g82
ssg70
g1286
sg63
(lp1293
S'db_sessions'
p1294
asbag56
(g77
g58
NtRp1295
(dp1296
g61
(dp1297
g88
g89
ssg70
g1286
sg63
(lp1298
S':'
asbag56
(g77
g58
NtRp1299
(dp1300
g61
(dp1301
sg70
g1286
sg63
(lp1302
g56
(g57
g58
NtRp1303
(dp1304
g61
(dp1305
g69
I4
ssg70
g1299
sg63
(lp1306
S'set([])'
p1307
asbasbasbag56
(g72
g58
NtRp1308
(dp1309
g61
(dp1310
sg70
g1191
sg63
(lp1311
g56
(g77
g58
NtRp1312
(dp1313
g61
(dp1314
g81
g82
ssg70
g1308
sg63
(lp1315
S'debugging'
p1316
asbag56
(g77
g58
NtRp1317
(dp1318
g61
(dp1319
g88
g89
ssg70
g1308
sg63
(lp1320
S':'
asbag56
(g77
g58
NtRp1321
(dp1322
g61
(dp1323
sg70
g1308
sg63
(lp1324
g56
(g57
g58
NtRp1325
(dp1326
g61
(dp1327
g69
I4
ssg70
g1321
sg63
(lp1328
g99
asbasbasbag56
(g72
g58
NtRp1329
(dp1330
g61
(dp1331
sg70
g1191
sg63
(lp1332
g56
(g77
g58
NtRp1333
(dp1334
g61
(dp1335
g81
g82
ssg70
g1329
sg63
(lp1336
S'gluon_parent'
p1337
asbag56
(g77
g58
NtRp1338
(dp1339
g61
(dp1340
g88
g89
ssg70
g1329
sg63
(lp1341
S':'
asbag56
(g77
g58
NtRp1342
(dp1343
g61
(dp1344
sg70
g1329
sg63
(lp1345
g56
(g57
g58
NtRp1346
(dp1347
g61
(dp1348
g69
I4
ssg70
g1342
sg63
(lp1349
S'/home/alumno/web2py'
p1350
asbasbasbag56
(g72
g58
NtRp1351
(dp1352
g61
(dp1353
sg70
g1191
sg63
(lp1354
g56
(g77
g58
NtRp1355
(dp1356
g61
(dp1357
g81
g82
ssg70
g1351
sg63
(lp1358
S'http_accept'
p1359
asbag56
(g77
g58
NtRp1360
(dp1361
g61
(dp1362
g88
g89
ssg70
g1351
sg63
(lp1363
S':'
asbag56
(g77
g58
NtRp1364
(dp1365
g61
(dp1366
sg70
g1351
sg63
(lp1367
g56
(g57
g58
NtRp1368
(dp1369
g61
(dp1370
g69
I4
ssg70
g1364
sg63
(lp1371
S'text/html,application/xhtml+xml,application/xml;q=0.9,*/*;q=0.8'
p1372
asbasbasbag56
(g72
g58
NtRp1373
(dp1374
g61
(dp1375
sg70
g1191
sg63
(lp1376
g56
(g77
g58
NtRp1377
(dp1378
g61
(dp1379
g81
g82
ssg70
g1373
sg63
(lp1380
S'http_accept_charset'
p1381
asbag56
(g77
g58
NtRp1382
(dp1383
g61
(dp1384
g88
g89
ssg70
g1373
sg63
(lp1385
S':'
asbag56
(g77
g58
NtRp1386
(dp1387
g61
(dp1388
sg70
g1373
sg63
(lp1389
g56
(g57
g58
NtRp1390
(dp1391
g61
(dp1392
g69
I4
ssg70
g1386
sg63
(lp1393
S'ISO-8859-1,utf-8;q=0.7,*;q=0.7'
p1394
asbasbasbag56
(g72
g58
NtRp1395
(dp1396
g61
(dp1397
sg70
g1191
sg63
(lp1398
g56
(g77
g58
NtRp1399
(dp1400
g61
(dp1401
g81
g82
ssg70
g1395
sg63
(lp1402
S'http_accept_encoding'
p1403
asbag56
(g77
g58
NtRp1404
(dp1405
g61
(dp1406
g88
g89
ssg70
g1395
sg63
(lp1407
S':'
asbag56
(g77
g58
NtRp1408
(dp1409
g61
(dp1410
sg70
g1395
sg63
(lp1411
g56
(g57
g58
NtRp1412
(dp1413
g61
(dp1414
g69
I4
ssg70
g1408
sg63
(lp1415
S'gzip, deflate'
p1416
asbasbasbag56
(g72
g58
NtRp1417
(dp1418
g61
(dp1419
sg70
g1191
sg63
(lp1420
g56
(g77
g58
NtRp1421
(dp1422
g61
(dp1423
g81
g82
ssg70
g1417
sg63
(lp1424
S'http_accept_language'
p1425
asbag56
(g77
g58
NtRp1426
(dp1427
g61
(dp1428
g88
g89
ssg70
g1417
sg63
(lp1429
S':'
asbag56
(g77
g58
NtRp1430
(dp1431
g61
(dp1432
sg70
g1417
sg63
(lp1433
g56
(g57
g58
NtRp1434
(dp1435
g61
(dp1436
g69
I4
ssg70
g1430
sg63
(lp1437
S'es-ar,es;q=0.8,en-us;q=0.5,en;q=0.3'
p1438
asbasbasbag56
(g72
g58
NtRp1439
(dp1440
g61
(dp1441
sg70
g1191
sg63
(lp1442
g56
(g77
g58
NtRp1443
(dp1444
g61
(dp1445
g81
g82
ssg70
g1439
sg63
(lp1446
S'http_cache_control'
p1447
asbag56
(g77
g58
NtRp1448
(dp1449
g61
(dp1450
g88
g89
ssg70
g1439
sg63
(lp1451
S':'
asbag56
(g77
g58
NtRp1452
(dp1453
g61
(dp1454
sg70
g1439
sg63
(lp1455
g56
(g57
g58
NtRp1456
(dp1457
g61
(dp1458
g69
I4
ssg70
g1452
sg63
(lp1459
S'max-age=0'
p1460
asbasbasbag56
(g72
g58
NtRp1461
(dp1462
g61
(dp1463
sg70
g1191
sg63
(lp1464
g56
(g77
g58
NtRp1465
(dp1466
g61
(dp1467
g81
g82
ssg70
g1461
sg63
(lp1468
S'http_connection'
p1469
asbag56
(g77
g58
NtRp1470
(dp1471
g61
(dp1472
g88
g89
ssg70
g1461
sg63
(lp1473
S':'
asbag56
(g77
g58
NtRp1474
(dp1475
g61
(dp1476
sg70
g1461
sg63
(lp1477
g56
(g57
g58
NtRp1478
(dp1479
g61
(dp1480
g69
I4
ssg70
g1474
sg63
(lp1481
S'keep-alive'
p1482
asbasbasbag56
(g72
g58
NtRp1483
(dp1484
g61
(dp1485
sg70
g1191
sg63
(lp1486
g56
(g77
g58
NtRp1487
(dp1488
g61
(dp1489
g81
g82
ssg70
g1483
sg63
(lp1490
S'http_cookie'
p1491
asbag56
(g77
g58
NtRp1492
(dp1493
g61
(dp1494
g88
g89
ssg70
g1483
sg63
(lp1495
S':'
asbag56
(g77
g58
NtRp1496
(dp1497
g61
(dp1498
sg70
g1483
sg63
(lp1499
g56
(g57
g58
NtRp1500
(dp1501
g61
(dp1502
g69
I4
ssg70
g1496
sg63
(lp1503
S'session_id_welcome=127.0.0.1-c95fabcd-64b7-4ad2-8180-0b191d29eb3c; session_id_admin=127.0.0.1-2a24ba51-970a-4d02-b8db-815ef71053d7; adminLanguage=es-es; session_id_datos=127.0.0.1-46d2cb62-581d-41be-b0c5-47ee0f5ac400; session_id_examples=127.0.0.1-1b0b7a34-7f7b-4b4f-9bcd-8574562516ff'
p1504
asbasbasbag56
(g72
g58
NtRp1505
(dp1506
g61
(dp1507
sg70
g1191
sg63
(lp1508
g56
(g77
g58
NtRp1509
(dp1510
g61
(dp1511
g81
g82
ssg70
g1505
sg63
(lp1512
S'http_host'
p1513
asbag56
(g77
g58
NtRp1514
(dp1515
g61
(dp1516
g88
g89
ssg70
g1505
sg63
(lp1517
S':'
asbag56
(g77
g58
NtRp1518
(dp1519
g61
(dp1520
sg70
g1505
sg63
(lp1521
g56
(g57
g58
NtRp1522
(dp1523
g61
(dp1524
g69
I4
ssg70
g1518
sg63
(lp1525
S'127.0.0.1:8000'
p1526
asbasbasbag56
(g72
g58
NtRp1527
(dp1528
g61
(dp1529
sg70
g1191
sg63
(lp1530
g56
(g77
g58
NtRp1531
(dp1532
g61
(dp1533
g81
g82
ssg70
g1527
sg63
(lp1534
S'http_referer'
p1535
asbag56
(g77
g58
NtRp1536
(dp1537
g61
(dp1538
g88
g89
ssg70
g1527
sg63
(lp1539
S':'
asbag56
(g77
g58
NtRp1540
(dp1541
g61
(dp1542
sg70
g1527
sg63
(lp1543
g56
(g57
g58
NtRp1544
(dp1545
g61
(dp1546
g69
I4
ssg70
g1540
sg63
(lp1547
S'http://127.0.0.1:8000/admin/default/design/datos'
p1548
asbasbasbag56
(g72
g58
NtRp1549
(dp1550
g61
(dp1551
sg70
g1191
sg63
(lp1552
g56
(g77
g58
NtRp1553
(dp1554
g61
(dp1555
g81
g82
ssg70
g1549
sg63
(lp1556
S'http_user_agent'
p1557
asbag56
(g77
g58
NtRp1558
(dp1559
g61
(dp1560
g88
g89
ssg70
g1549
sg63
(lp1561
S':'
asbag56
(g77
g58
NtRp1562
(dp1563
g61
(dp1564
sg70
g1549
sg63
(lp1565
g56
(g57
g58
NtRp1566
(dp1567
g61
(dp1568
g69
I4
ssg70
g1562
sg63
(lp1569
S'Mozilla/5.0 (X11; Linux i686; rv:6.0) Gecko/20100101 Firefox/6.0'
p1570
asbasbasbag56
(g72
g58
NtRp1571
(dp1572
g61
(dp1573
sg70
g1191
sg63
(lp1574
g56
(g77
g58
NtRp1575
(dp1576
g61
(dp1577
g81
g82
ssg70
g1571
sg63
(lp1578
S'path_info'
p1579
asbag56
(g77
g58
NtRp1580
(dp1581
g61
(dp1582
g88
g89
ssg70
g1571
sg63
(lp1583
S':'
asbag56
(g77
g58
NtRp1584
(dp1585
g61
(dp1586
sg70
g1571
sg63
(lp1587
g56
(g57
g58
NtRp1588
(dp1589
g61
(dp1590
g69
I4
ssg70
g1584
sg63
(lp1591
S'/datos/default/index'
p1592
asbasbasbag56
(g72
g58
NtRp1593
(dp1594
g61
(dp1595
sg70
g1191
sg63
(lp1596
g56
(g77
g58
NtRp1597
(dp1598
g61
(dp1599
g81
g82
ssg70
g1593
sg63
(lp1600
S'query_string'
p1601
asbag56
(g77
g58
NtRp1602
(dp1603
g61
(dp1604
g88
g89
ssg70
g1593
sg63
(lp1605
S':'
asbag56
(g77
g58
NtRp1606
(dp1607
g61
(dp1608
sg70
g1593
sg63
(lp1609
g56
(g57
g58
NtRp1610
(dp1611
g61
(dp1612
g69
I4
ssg70
g1606
sg63
(lp1613
S''
asbasbasbag56
(g72
g58
NtRp1614
(dp1615
g61
(dp1616
sg70
g1191
sg63
(lp1617
g56
(g77
g58
NtRp1618
(dp1619
g61
(dp1620
g81
g82
ssg70
g1614
sg63
(lp1621
S'remote_addr'
p1622
asbag56
(g77
g58
NtRp1623
(dp1624
g61
(dp1625
g88
g89
ssg70
g1614
sg63
(lp1626
S':'
asbag56
(g77
g58
NtRp1627
(dp1628
g61
(dp1629
sg70
g1614
sg63
(lp1630
g56
(g57
g58
NtRp1631
(dp1632
g61
(dp1633
g69
I4
ssg70
g1627
sg63
(lp1634
g189
asbasbasbag56
(g72
g58
NtRp1635
(dp1636
g61
(dp1637
sg70
g1191
sg63
(lp1638
g56
(g77
g58
NtRp1639
(dp1640
g61
(dp1641
g81
g82
ssg70
g1635
sg63
(lp1642
S'remote_port'
p1643
asbag56
(g77
g58
NtRp1644
(dp1645
g61
(dp1646
g88
g89
ssg70
g1635
sg63
(lp1647
S':'
asbag56
(g77
g58
NtRp1648
(dp1649
g61
(dp1650
sg70
g1635
sg63
(lp1651
g56
(g57
g58
NtRp1652
(dp1653
g61
(dp1654
g69
I4
ssg70
g1648
sg63
(lp1655
S'56836'
p1656
asbasbasbag56
(g72
g58
NtRp1657
(dp1658
g61
(dp1659
sg70
g1191
sg63
(lp1660
g56
(g77
g58
NtRp1661
(dp1662
g61
(dp1663
g81
g82
ssg70
g1657
sg63
(lp1664
S'request_method'
p1665
asbag56
(g77
g58
NtRp1666
(dp1667
g61
(dp1668
g88
g89
ssg70
g1657
sg63
(lp1669
S':'
asbag56
(g77
g58
NtRp1670
(dp1671
g61
(dp1672
sg70
g1657
sg63
(lp1673
g56
(g57
g58
NtRp1674
(dp1675
g61
(dp1676
g69
I4
ssg70
g1670
sg63
(lp1677
S'GET'
p1678
asbasbasbag56
(g72
g58
NtRp1679
(dp1680
g61
(dp1681
sg70
g1191
sg63
(lp1682
g56
(g77
g58
NtRp1683
(dp1684
g61
(dp1685
g81
g82
ssg70
g1679
sg63
(lp1686
S'script_name'
p1687
asbag56
(g77
g58
NtRp1688
(dp1689
g61
(dp1690
g88
g89
ssg70
g1679
sg63
(lp1691
S':'
asbag56
(g77
g58
NtRp1692
(dp1693
g61
(dp1694
sg70
g1679
sg63
(lp1695
g56
(g57
g58
NtRp1696
(dp1697
g61
(dp1698
g69
I4
ssg70
g1692
sg63
(lp1699
S''
asbasbasbag56
(g72
g58
NtRp1700
(dp1701
g61
(dp1702
sg70
g1191
sg63
(lp1703
g56
(g77
g58
NtRp1704
(dp1705
g61
(dp1706
g81
g82
ssg70
g1700
sg63
(lp1707
S'server_name'
p1708
asbag56
(g77
g58
NtRp1709
(dp1710
g61
(dp1711
g88
g89
ssg70
g1700
sg63
(lp1712
S':'
asbag56
(g77
g58
NtRp1713
(dp1714
g61
(dp1715
sg70
g1700
sg63
(lp1716
g56
(g57
g58
NtRp1717
(dp1718
g61
(dp1719
g69
I4
ssg70
g1713
sg63
(lp1720
S'ubuntu-dev'
p1721
asbasbasbag56
(g72
g58
NtRp1722
(dp1723
g61
(dp1724
sg70
g1191
sg63
(lp1725
g56
(g77
g58
NtRp1726
(dp1727
g61
(dp1728
g81
g82
ssg70
g1722
sg63
(lp1729
S'server_port'
p1730
asbag56
(g77
g58
NtRp1731
(dp1732
g61
(dp1733
g88
g89
ssg70
g1722
sg63
(lp1734
S':'
asbag56
(g77
g58
NtRp1735
(dp1736
g61
(dp1737
sg70
g1722
sg63
(lp1738
g56
(g57
g58
NtRp1739
(dp1740
g61
(dp1741
g69
I4
ssg70
g1735
sg63
(lp1742
S'8000'
p1743
asbasbasbag56
(g72
g58
NtRp1744
(dp1745
g61
(dp1746
sg70
g1191
sg63
(lp1747
g56
(g77
g58
NtRp1748
(dp1749
g61
(dp1750
g81
g82
ssg70
g1744
sg63
(lp1751
S'server_protocol'
p1752
asbag56
(g77
g58
NtRp1753
(dp1754
g61
(dp1755
g88
g89
ssg70
g1744
sg63
(lp1756
S':'
asbag56
(g77
g58
NtRp1757
(dp1758
g61
(dp1759
sg70
g1744
sg63
(lp1760
g56
(g57
g58
NtRp1761
(dp1762
g61
(dp1763
g69
I4
ssg70
g1757
sg63
(lp1764
S'HTTP/1.1'
p1765
asbasbasbag56
(g72
g58
NtRp1766
(dp1767
g61
(dp1768
sg70
g1191
sg63
(lp1769
g56
(g77
g58
NtRp1770
(dp1771
g61
(dp1772
g81
g82
ssg70
g1766
sg63
(lp1773
S'server_software'
p1774
asbag56
(g77
g58
NtRp1775
(dp1776
g61
(dp1777
g88
g89
ssg70
g1766
sg63
(lp1778
S':'
asbag56
(g77
g58
NtRp1779
(dp1780
g61
(dp1781
sg70
g1766
sg63
(lp1782
g56
(g57
g58
NtRp1783
(dp1784
g61
(dp1785
g69
I4
ssg70
g1779
sg63
(lp1786
S'Rocket 1.2.2'
p1787
asbasbasbag56
(g72
g58
NtRp1788
(dp1789
g61
(dp1790
sg70
g1191
sg63
(lp1791
g56
(g77
g58
NtRp1792
(dp1793
g61
(dp1794
g81
g82
ssg70
g1788
sg63
(lp1795
S'web2py_crontype'
p1796
asbag56
(g77
g58
NtRp1797
(dp1798
g61
(dp1799
g88
g89
ssg70
g1788
sg63
(lp1800
S':'
asbag56
(g77
g58
NtRp1801
(dp1802
g61
(dp1803
sg70
g1788
sg63
(lp1804
g56
(g57
g58
NtRp1805
(dp1806
g61
(dp1807
g69
I4
ssg70
g1801
sg63
(lp1808
S'hard'
p1809
asbasbasbag56
(g72
g58
NtRp1810
(dp1811
g61
(dp1812
sg70
g1191
sg63
(lp1813
g56
(g77
g58
NtRp1814
(dp1815
g61
(dp1816
g81
g82
ssg70
g1810
sg63
(lp1817
S'web2py_path'
p1818
asbag56
(g77
g58
NtRp1819
(dp1820
g61
(dp1821
g88
g89
ssg70
g1810
sg63
(lp1822
S':'
asbag56
(g77
g58
NtRp1823
(dp1824
g61
(dp1825
sg70
g1810
sg63
(lp1826
g56
(g57
g58
NtRp1827
(dp1828
g61
(dp1829
g69
I4
ssg70
g1823
sg63
(lp1830
g1238
asbasbasbag56
(g72
g58
NtRp1831
(dp1832
g61
(dp1833
sg70
g1191
sg63
(lp1834
g56
(g77
g58
NtRp1835
(dp1836
g61
(dp1837
g81
g82
ssg70
g1831
sg63
(lp1838
S'web2py_version'
p1839
asbag56
(g77
g58
NtRp1840
(dp1841
g61
(dp1842
g88
g89
ssg70
g1831
sg63
(lp1843
S':'
asbag56
(g77
g58
NtRp1844
(dp1845
g61
(dp1846
sg70
g1831
sg63
(lp1847
g56
(g57
g58
NtRp1848
(dp1849
g61
(dp1850
g69
I4
ssg70
g1844
sg63
(lp1851
S'Version 1.96.4 (2011-06-18 21:34:53)\n'
p1852
asbasbasbag56
(g72
g58
NtRp1853
(dp1854
g61
(dp1855
sg70
g1191
sg63
(lp1856
g56
(g77
g58
NtRp1857
(dp1858
g61
(dp1859
g81
g82
ssg70
g1853
sg63
(lp1860
S'wsgi_errors'
p1861
asbag56
(g77
g58
NtRp1862
(dp1863
g61
(dp1864
g88
g89
ssg70
g1853
sg63
(lp1865
S':'
asbag56
(g77
g58
NtRp1866
(dp1867
g61
(dp1868
sg70
g1853
sg63
(lp1869
g56
(g57
g58
NtRp1870
(dp1871
g61
(dp1872
g69
I4
ssg70
g1866
sg63
(lp1873
S"<open file '<stderr>', mode 'w' at 0xb77f60d0>"
p1874
asbasbasbag56
(g72
g58
NtRp1875
(dp1876
g61
(dp1877
sg70
g1191
sg63
(lp1878
g56
(g77
g58
NtRp1879
(dp1880
g61
(dp1881
g81
g82
ssg70
g1875
sg63
(lp1882
S'wsgi_file_wrapper'
p1883
asbag56
(g77
g58
NtRp1884
(dp1885
g61
(dp1886
g88
g89
ssg70
g1875
sg63
(lp1887
S':'
asbag56
(g77
g58
NtRp1888
(dp1889
g61
(dp1890
sg70
g1875
sg63
(lp1891
g56
(g57
g58
NtRp1892
(dp1893
g61
(dp1894
g69
I4
ssg70
g1888
sg63
(lp1895
S'<class gluon.rocket.FileWrapper at 0x8ea1e3c>'
p1896
asbasbasbag56
(g72
g58
NtRp1897
(dp1898
g61
(dp1899
sg70
g1191
sg63
(lp1900
g56
(g77
g58
NtRp1901
(dp1902
g61
(dp1903
g81
g82
ssg70
g1897
sg63
(lp1904
S'wsgi_input'
p1905
asbag56
(g77
g58
NtRp1906
(dp1907
g61
(dp1908
g88
g89
ssg70
g1897
sg63
(lp1909
S':'
asbag56
(g77
g58
NtRp1910
(dp1911
g61
(dp1912
sg70
g1897
sg63
(lp1913
g56
(g57
g58
NtRp1914
(dp1915
g61
(dp1916
g69
I4
ssg70
g1910
sg63
(lp1917
S'<socket._fileobject object at 0x9aaadec>'
p1918
asbasbasbag56
(g72
g58
NtRp1919
(dp1920
g61
(dp1921
sg70
g1191
sg63
(lp1922
g56
(g77
g58
NtRp1923
(dp1924
g61
(dp1925
g81
g82
ssg70
g1919
sg63
(lp1926
S'wsgi_multiprocess'
p1927
asbag56
(g77
g58
NtRp1928
(dp1929
g61
(dp1930
g88
g89
ssg70
g1919
sg63
(lp1931
S':'
asbag56
(g77
g58
NtRp1932
(dp1933
g61
(dp1934
sg70
g1919
sg63
(lp1935
g56
(g57
g58
NtRp1936
(dp1937
g61
(dp1938
g69
I4
ssg70
g1932
sg63
(lp1939
g99
asbasbasbag56
(g72
g58
NtRp1940
(dp1941
g61
(dp1942
sg70
g1191
sg63
(lp1943
g56
(g77
g58
NtRp1944
(dp1945
g61
(dp1946
g81
g82
ssg70
g1940
sg63
(lp1947
S'wsgi_multithread'
p1948
asbag56
(g77
g58
NtRp1949
(dp1950
g61
(dp1951
g88
g89
ssg70
g1940
sg63
(lp1952
S':'
asbag56
(g77
g58
NtRp1953
(dp1954
g61
(dp1955
sg70
g1940
sg63
(lp1956
g56
(g57
g58
NtRp1957
(dp1958
g61
(dp1959
g69
I4
ssg70
g1953
sg63
(lp1960
S'True'
p1961
asbasbasbag56
(g72
g58
NtRp1962
(dp1963
g61
(dp1964
sg70
g1191
sg63
(lp1965
g56
(g77
g58
NtRp1966
(dp1967
g61
(dp1968
g81
g82
ssg70
g1962
sg63
(lp1969
S'wsgi_run_once'
p1970
asbag56
(g77
g58
NtRp1971
(dp1972
g61
(dp1973
g88
g89
ssg70
g1962
sg63
(lp1974
S':'
asbag56
(g77
g58
NtRp1975
(dp1976
g61
(dp1977
sg70
g1962
sg63
(lp1978
g56
(g57
g58
NtRp1979
(dp1980
g61
(dp1981
g69
I4
ssg70
g1975
sg63
(lp1982
g99
asbasbasbag56
(g72
g58
NtRp1983
(dp1984
g61
(dp1985
sg70
g1191
sg63
(lp1986
g56
(g77
g58
NtRp1987
(dp1988
g61
(dp1989
g81
g82
ssg70
g1983
sg63
(lp1990
S'wsgi_url_scheme'
p1991
asbag56
(g77
g58
NtRp1992
(dp1993
g61
(dp1994
g88
g89
ssg70
g1983
sg63
(lp1995
S':'
asbag56
(g77
g58
NtRp1996
(dp1997
g61
(dp1998
sg70
g1983
sg63
(lp1999
g56
(g57
g58
NtRp2000
(dp2001
g61
(dp2002
g69
I4
ssg70
g1996
sg63
(lp2003
S'http'
p2004
asbasbasbag56
(g72
g58
NtRp2005
(dp2006
g61
(dp2007
sg70
g1191
sg63
(lp2008
g56
(g77
g58
NtRp2009
(dp2010
g61
(dp2011
g81
g82
ssg70
g2005
sg63
(lp2012
S'wsgi_version'
p2013
asbag56
(g77
g58
NtRp2014
(dp2015
g61
(dp2016
g88
g89
ssg70
g2005
sg63
(lp2017
S':'
asbag56
(g77
g58
NtRp2018
(dp2019
g61
(dp2020
sg70
g2005
sg63
(lp2021
g56
(g57
g58
NtRp2022
(dp2023
g61
(dp2024
g69
I4
ssg70
g2018
sg63
(lp2025
g56
(g65
g58
NtRp2026
(dp2027
g61
(dp2028
g69
I3
ssg70
Nsg63
(lp2029
g56
(g72
g58
NtRp2030
(dp2031
g61
(dp2032
sg70
g2026
sg63
(lp2033
g56
(g77
g58
NtRp2034
(dp2035
g61
(dp2036
sg70
g2030
sg63
(lp2037
g56
(g57
g58
NtRp2038
(dp2039
g61
(dp2040
g69
I3
ssg70
g2034
sg63
(lp2041
S'1'
asbasbasbag56
(g72
g58
NtRp2042
(dp2043
g61
(dp2044
sg70
g2026
sg63
(lp2045
g56
(g77
g58
NtRp2046
(dp2047
g61
(dp2048
sg70
g2042
sg63
(lp2049
g56
(g57
g58
NtRp2050
(dp2051
g61
(dp2052
g69
I3
ssg70
g2046
sg63
(lp2053
S'0'
asbasbasbasbasbasbasbasbasbasbasbag56
(g72
g58
NtRp2054
(dp2055
g61
(dp2056
sg70
g66
sg63
(lp2057
g56
(g77
g58
NtRp2058
(dp2059
g61
(dp2060
g81
g82
ssg70
g2054
sg63
(lp2061
S'extension'
p2062
asbag56
(g77
g58
NtRp2063
(dp2064
g61
(dp2065
g88
g89
ssg70
g2054
sg63
(lp2066
S':'
asbag56
(g77
g58
NtRp2067
(dp2068
g61
(dp2069
sg70
g2054
sg63
(lp2070
g56
(g57
g58
NtRp2071
(dp2072
g61
(dp2073
g69
I5
ssg70
g2067
sg63
(lp2074
S'html'
p2075
asbasbasbag56
(g72
g58
NtRp2076
(dp2077
g61
(dp2078
sg70
g66
sg63
(lp2079
g56
(g77
g58
NtRp2080
(dp2081
g61
(dp2082
g81
g82
ssg70
g2076
sg63
(lp2083
S'folder'
p2084
asbag56
(g77
g58
NtRp2085
(dp2086
g61
(dp2087
g88
g89
ssg70
g2076
sg63
(lp2088
S':'
asbag56
(g77
g58
NtRp2089
(dp2090
g61
(dp2091
sg70
g2076
sg63
(lp2092
g56
(g57
g58
NtRp2093
(dp2094
g61
(dp2095
g69
I5
ssg70
g2089
sg63
(lp2096
S'/home/alumno/web2py/applications/datos/'
p2097
asbasbasbag56
(g72
g58
NtRp2098
(dp2099
g61
(dp2100
sg70
g66
sg63
(lp2101
g56
(g77
g58
NtRp2102
(dp2103
g61
(dp2104
g81
g82
ssg70
g2098
sg63
(lp2105
S'function'
p2106
asbag56
(g77
g58
NtRp2107
(dp2108
g61
(dp2109
g88
g89
ssg70
g2098
sg63
(lp2110
S':'
asbag56
(g77
g58
NtRp2111
(dp2112
g61
(dp2113
sg70
g2098
sg63
(lp2114
g56
(g57
g58
NtRp2115
(dp2116
g61
(dp2117
g69
I5
ssg70
g2111
sg63
(lp2118
S'index'
p2119
asbasbasbag56
(g72
g58
NtRp2120
(dp2121
g61
(dp2122
sg70
g66
sg63
(lp2123
g56
(g77
g58
NtRp2124
(dp2125
g61
(dp2126
g81
g82
ssg70
g2120
sg63
(lp2127
S'get_vars'
p2128
asbag56
(g77
g58
NtRp2129
(dp2130
g61
(dp2131
g88
g89
ssg70
g2120
sg63
(lp2132
S':'
asbag56
(g77
g58
NtRp2133
(dp2134
g61
(dp2135
sg70
g2120
sg63
(lp2136
g56
(g57
g58
NtRp2137
(dp2138
g61
(dp2139
g69
I5
ssg70
g2133
sg63
(lp2140
g56
(g65
g58
NtRp2141
(dp2142
g61
(dp2143
g69
I4
ssg70
Nsg63
(lp2144
sbasbasbasbag56
(g72
g58
NtRp2145
(dp2146
g61
(dp2147
sg70
g66
sg63
(lp2148
g56
(g77
g58
NtRp2149
(dp2150
g61
(dp2151
g81
g82
ssg70
g2145
sg63
(lp2152
S'is_https'
p2153
asbag56
(g77
g58
NtRp2154
(dp2155
g61
(dp2156
g88
g89
ssg70
g2145
sg63
(lp2157
S':'
asbag56
(g77
g58
NtRp2158
(dp2159
g61
(dp2160
sg70
g2145
sg63
(lp2161
g56
(g57
g58
NtRp2162
(dp2163
g61
(dp2164
g69
I5
ssg70
g2158
sg63
(lp2165
g99
asbasbasbag56
(g72
g58
NtRp2166
(dp2167
g61
(dp2168
sg70
g66
sg63
(lp2169
g56
(g77
g58
NtRp2170
(dp2171
g61
(dp2172
g81
g82
ssg70
g2166
sg63
(lp2173
S'is_local'
p2174
asbag56
(g77
g58
NtRp2175
(dp2176
g61
(dp2177
g88
g89
ssg70
g2166
sg63
(lp2178
S':'
asbag56
(g77
g58
NtRp2179
(dp2180
g61
(dp2181
sg70
g2166
sg63
(lp2182
g56
(g57
g58
NtRp2183
(dp2184
g61
(dp2185
g69
I5
ssg70
g2179
sg63
(lp2186
g1961
asbasbasbag56
(g72
g58
NtRp2187
(dp2188
g61
(dp2189
sg70
g66
sg63
(lp2190
g56
(g77
g58
NtRp2191
(dp2192
g61
(dp2193
g81
g82
ssg70
g2187
sg63
(lp2194
S'is_restful'
p2195
asbag56
(g77
g58
NtRp2196
(dp2197
g61
(dp2198
g88
g89
ssg70
g2187
sg63
(lp2199
S':'
asbag56
(g77
g58
NtRp2200
(dp2201
g61
(dp2202
sg70
g2187
sg63
(lp2203
g56
(g57
g58
NtRp2204
(dp2205
g61
(dp2206
g69
I5
ssg70
g2200
sg63
(lp2207
g99
asbasbasbag56
(g72
g58
NtRp2208
(dp2209
g61
(dp2210
sg70
g66
sg63
(lp2211
g56
(g77
g58
NtRp2212
(dp2213
g61
(dp2214
g81
g82
ssg70
g2208
sg63
(lp2215
S'now'
p2216
asbag56
(g77
g58
NtRp2217
(dp2218
g61
(dp2219
g88
g89
ssg70
g2208
sg63
(lp2220
S':'
asbag56
(g77
g58
NtRp2221
(dp2222
g61
(dp2223
sg70
g2208
sg63
(lp2224
g56
(g57
g58
NtRp2225
(dp2226
g61
(dp2227
g69
I5
ssg70
g2221
sg63
(lp2228
S'datetime.datetime(2011, 9, 10, 18, 57, 0, 975806)'
p2229
asbasbasbag56
(g72
g58
NtRp2230
(dp2231
g61
(dp2232
sg70
g66
sg63
(lp2233
g56
(g77
g58
NtRp2234
(dp2235
g61
(dp2236
g81
g82
ssg70
g2230
sg63
(lp2237
S'post_vars'
p2238
asbag56
(g77
g58
NtRp2239
(dp2240
g61
(dp2241
g88
g89
ssg70
g2230
sg63
(lp2242
S':'
asbag56
(g77
g58
NtRp2243
(dp2244
g61
(dp2245
sg70
g2230
sg63
(lp2246
g56
(g57
g58
NtRp2247
(dp2248
g61
(dp2249
g69
I5
ssg70
g2243
sg63
(lp2250
g56
(g65
g58
NtRp2251
(dp2252
g61
(dp2253
g69
I4
ssg70
Nsg63
(lp2254
sbasbasbasbag56
(g72
g58
NtRp2255
(dp2256
g61
(dp2257
sg70
g66
sg63
(lp2258
g56
(g77
g58
NtRp2259
(dp2260
g61
(dp2261
g81
g82
ssg70
g2255
sg63
(lp2262
S'url'
p2263
asbag56
(g77
g58
NtRp2264
(dp2265
g61
(dp2266
g88
g89
ssg70
g2255
sg63
(lp2267
S':'
asbag56
(g77
g58
NtRp2268
(dp2269
g61
(dp2270
sg70
g2255
sg63
(lp2271
g56
(g57
g58
NtRp2272
(dp2273
g61
(dp2274
g69
I5
ssg70
g2268
sg63
(lp2275
S'/datos/default/index'
p2276
asbasbasbag56
(g72
g58
NtRp2277
(dp2278
g61
(dp2279
sg70
g66
sg63
(lp2280
g56
(g77
g58
NtRp2281
(dp2282
g61
(dp2283
g81
g82
ssg70
g2277
sg63
(lp2284
S'uuid'
p2285
asbag56
(g77
g58
NtRp2286
(dp2287
g61
(dp2288
g88
g89
ssg70
g2277
sg63
(lp2289
S':'
asbag56
(g77
g58
NtRp2290
(dp2291
g61
(dp2292
sg70
g2277
sg63
(lp2293
g56
(g57
g58
NtRp2294
(dp2295
g61
(dp2296
g69
I5
ssg70
g2290
sg63
(lp2297
S'datos/127.0.0.1.2011-09-10.18-57-00.10e12982-db28-4474-a48b-410acd60e9fc'
p2298
asbasbasbag56
(g72
g58
NtRp2299
(dp2300
g61
(dp2301
sg70
g66
sg63
(lp2302
g56
(g77
g58
NtRp2303
(dp2304
g61
(dp2305
g81
g82
ssg70
g2299
sg63
(lp2306
S'vars'
p2307
asbag56
(g77
g58
NtRp2308
(dp2309
g61
(dp2310
g88
g89
ssg70
g2299
sg63
(lp2311
S':'
asbag56
(g77
g58
NtRp2312
(dp2313
g61
(dp2314
sg70
g2299
sg63
(lp2315
g56
(g57
g58
NtRp2316
(dp2317
g61
(dp2318
g69
I5
ssg70
g2312
sg63
(lp2319
g56
(g65
g58
NtRp2320
(dp2321
g61
(dp2322
g69
I4
ssg70
Nsg63
(lp2323
sbasbasbasbag56
(g72
g58
NtRp2324
(dp2325
g61
(dp2326
sg70
g66
sg63
(lp2327
g56
(g77
g58
NtRp2328
(dp2329
g61
(dp2330
g81
g82
ssg70
g2324
sg63
(lp2331
S'wsgi'
p2332
asbag56
(g77
g58
NtRp2333
(dp2334
g61
(dp2335
g88
g89
ssg70
g2324
sg63
(lp2336
S':'
asbag56
(g77
g58
NtRp2337
(dp2338
g61
(dp2339
sg70
g2324
sg63
(lp2340
g56
(g57
g58
NtRp2341
(dp2342
g61
(dp2343
g69
I5
ssg70
g2337
sg63
(lp2344
g56
(g65
g58
NtRp2345
(dp2346
g61
(dp2347
g69
I4
ssg70
Nsg63
(lp2348
g56
(g72
g58
NtRp2349
(dp2350
g61
(dp2351
sg70
g2345
sg63
(lp2352
g56
(g77
g58
NtRp2353
(dp2354
g61
(dp2355
g81
g82
ssg70
g2349
sg63
(lp2356
S'environ'
p2357
asbag56
(g77
g58
NtRp2358
(dp2359
g61
(dp2360
g88
g89
ssg70
g2349
sg63
(lp2361
S':'
asbag56
(g77
g58
NtRp2362
(dp2363
g61
(dp2364
sg70
g2349
sg63
(lp2365
g56
(g57
g58
NtRp2366
(dp2367
g61
(dp2368
g69
I4
ssg70
g2362
sg63
(lp2369
g56
(g65
g58
NtRp2370
(dp2371
g61
(dp2372
g69
I3
ssg70
Nsg63
(lp2373
g56
(g72
g58
NtRp2374
(dp2375
g61
(dp2376
sg70
g2370
sg63
(lp2377
g56
(g77
g58
NtRp2378
(dp2379
g61
(dp2380
g81
g82
ssg70
g2374
sg63
(lp2381
S'HTTP_ACCEPT'
p2382
asbag56
(g77
g58
NtRp2383
(dp2384
g61
(dp2385
g88
g89
ssg70
g2374
sg63
(lp2386
S':'
asbag56
(g77
g58
NtRp2387
(dp2388
g61
(dp2389
sg70
g2374
sg63
(lp2390
g56
(g57
g58
NtRp2391
(dp2392
g61
(dp2393
g69
I3
ssg70
g2387
sg63
(lp2394
g1372
asbasbasbag56
(g72
g58
NtRp2395
(dp2396
g61
(dp2397
sg70
g2370
sg63
(lp2398
g56
(g77
g58
NtRp2399
(dp2400
g61
(dp2401
g81
g82
ssg70
g2395
sg63
(lp2402
S'HTTP_ACCEPT_CHARSET'
p2403
asbag56
(g77
g58
NtRp2404
(dp2405
g61
(dp2406
g88
g89
ssg70
g2395
sg63
(lp2407
S':'
asbag56
(g77
g58
NtRp2408
(dp2409
g61
(dp2410
sg70
g2395
sg63
(lp2411
g56
(g57
g58
NtRp2412
(dp2413
g61
(dp2414
g69
I3
ssg70
g2408
sg63
(lp2415
g1394
asbasbasbag56
(g72
g58
NtRp2416
(dp2417
g61
(dp2418
sg70
g2370
sg63
(lp2419
g56
(g77
g58
NtRp2420
(dp2421
g61
(dp2422
g81
g82
ssg70
g2416
sg63
(lp2423
S'HTTP_ACCEPT_ENCODING'
p2424
asbag56
(g77
g58
NtRp2425
(dp2426
g61
(dp2427
g88
g89
ssg70
g2416
sg63
(lp2428
S':'
asbag56
(g77
g58
NtRp2429
(dp2430
g61
(dp2431
sg70
g2416
sg63
(lp2432
g56
(g57
g58
NtRp2433
(dp2434
g61
(dp2435
g69
I3
ssg70
g2429
sg63
(lp2436
g1416
asbasbasbag56
(g72
g58
NtRp2437
(dp2438
g61
(dp2439
sg70
g2370
sg63
(lp2440
g56
(g77
g58
NtRp2441
(dp2442
g61
(dp2443
g81
g82
ssg70
g2437
sg63
(lp2444
S'HTTP_ACCEPT_LANGUAGE'
p2445
asbag56
(g77
g58
NtRp2446
(dp2447
g61
(dp2448
g88
g89
ssg70
g2437
sg63
(lp2449
S':'
asbag56
(g77
g58
NtRp2450
(dp2451
g61
(dp2452
sg70
g2437
sg63
(lp2453
g56
(g57
g58
NtRp2454
(dp2455
g61
(dp2456
g69
I3
ssg70
g2450
sg63
(lp2457
g1438
asbasbasbag56
(g72
g58
NtRp2458
(dp2459
g61
(dp2460
sg70
g2370
sg63
(lp2461
g56
(g77
g58
NtRp2462
(dp2463
g61
(dp2464
g81
g82
ssg70
g2458
sg63
(lp2465
S'HTTP_CACHE_CONTROL'
p2466
asbag56
(g77
g58
NtRp2467
(dp2468
g61
(dp2469
g88
g89
ssg70
g2458
sg63
(lp2470
S':'
asbag56
(g77
g58
NtRp2471
(dp2472
g61
(dp2473
sg70
g2458
sg63
(lp2474
g56
(g57
g58
NtRp2475
(dp2476
g61
(dp2477
g69
I3
ssg70
g2471
sg63
(lp2478
g1460
asbasbasbag56
(g72
g58
NtRp2479
(dp2480
g61
(dp2481
sg70
g2370
sg63
(lp2482
g56
(g77
g58
NtRp2483
(dp2484
g61
(dp2485
g81
g82
ssg70
g2479
sg63
(lp2486
S'HTTP_CONNECTION'
p2487
asbag56
(g77
g58
NtRp2488
(dp2489
g61
(dp2490
g88
g89
ssg70
g2479
sg63
(lp2491
S':'
asbag56
(g77
g58
NtRp2492
(dp2493
g61
(dp2494
sg70
g2479
sg63
(lp2495
g56
(g57
g58
NtRp2496
(dp2497
g61
(dp2498
g69
I3
ssg70
g2492
sg63
(lp2499
g1482
asbasbasbag56
(g72
g58
NtRp2500
(dp2501
g61
(dp2502
sg70
g2370
sg63
(lp2503
g56
(g77
g58
NtRp2504
(dp2505
g61
(dp2506
g81
g82
ssg70
g2500
sg63
(lp2507
S'HTTP_COOKIE'
p2508
asbag56
(g77
g58
NtRp2509
(dp2510
g61
(dp2511
g88
g89
ssg70
g2500
sg63
(lp2512
S':'
asbag56
(g77
g58
NtRp2513
(dp2514
g61
(dp2515
sg70
g2500
sg63
(lp2516
g56
(g57
g58
NtRp2517
(dp2518
g61
(dp2519
g69
I3
ssg70
g2513
sg63
(lp2520
g1504
asbasbasbag56
(g72
g58
NtRp2521
(dp2522
g61
(dp2523
sg70
g2370
sg63
(lp2524
g56
(g77
g58
NtRp2525
(dp2526
g61
(dp2527
g81
g82
ssg70
g2521
sg63
(lp2528
S'HTTP_HOST'
p2529
asbag56
(g77
g58
NtRp2530
(dp2531
g61
(dp2532
g88
g89
ssg70
g2521
sg63
(lp2533
S':'
asbag56
(g77
g58
NtRp2534
(dp2535
g61
(dp2536
sg70
g2521
sg63
(lp2537
g56
(g57
g58
NtRp2538
(dp2539
g61
(dp2540
g69
I3
ssg70
g2534
sg63
(lp2541
g1526
asbasbasbag56
(g72
g58
NtRp2542
(dp2543
g61
(dp2544
sg70
g2370
sg63
(lp2545
g56
(g77
g58
NtRp2546
(dp2547
g61
(dp2548
g81
g82
ssg70
g2542
sg63
(lp2549
S'HTTP_REFERER'
p2550
asbag56
(g77
g58
NtRp2551
(dp2552
g61
(dp2553
g88
g89
ssg70
g2542
sg63
(lp2554
S':'
asbag56
(g77
g58
NtRp2555
(dp2556
g61
(dp2557
sg70
g2542
sg63
(lp2558
g56
(g57
g58
NtRp2559
(dp2560
g61
(dp2561
g69
I3
ssg70
g2555
sg63
(lp2562
g1548
asbasbasbag56
(g72
g58
NtRp2563
(dp2564
g61
(dp2565
sg70
g2370
sg63
(lp2566
g56
(g77
g58
NtRp2567
(dp2568
g61
(dp2569
g81
g82
ssg70
g2563
sg63
(lp2570
S'HTTP_USER_AGENT'
p2571
asbag56
(g77
g58
NtRp2572
(dp2573
g61
(dp2574
g88
g89
ssg70
g2563
sg63
(lp2575
S':'
asbag56
(g77
g58
NtRp2576
(dp2577
g61
(dp2578
sg70
g2563
sg63
(lp2579
g56
(g57
g58
NtRp2580
(dp2581
g61
(dp2582
g69
I3
ssg70
g2576
sg63
(lp2583
g1570
asbasbasbag56
(g72
g58
NtRp2584
(dp2585
g61
(dp2586
sg70
g2370
sg63
(lp2587
g56
(g77
g58
NtRp2588
(dp2589
g61
(dp2590
g81
g82
ssg70
g2584
sg63
(lp2591
S'PATH_INFO'
p2592
asbag56
(g77
g58
NtRp2593
(dp2594
g61
(dp2595
g88
g89
ssg70
g2584
sg63
(lp2596
S':'
asbag56
(g77
g58
NtRp2597
(dp2598
g61
(dp2599
sg70
g2584
sg63
(lp2600
g56
(g57
g58
NtRp2601
(dp2602
g61
(dp2603
g69
I3
ssg70
g2597
sg63
(lp2604
g1592
asbasbasbag56
(g72
g58
NtRp2605
(dp2606
g61
(dp2607
sg70
g2370
sg63
(lp2608
g56
(g77
g58
NtRp2609
(dp2610
g61
(dp2611
g81
g82
ssg70
g2605
sg63
(lp2612
S'QUERY_STRING'
p2613
asbag56
(g77
g58
NtRp2614
(dp2615
g61
(dp2616
g88
g89
ssg70
g2605
sg63
(lp2617
S':'
asbag56
(g77
g58
NtRp2618
(dp2619
g61
(dp2620
sg70
g2605
sg63
(lp2621
g56
(g57
g58
NtRp2622
(dp2623
g61
(dp2624
g69
I3
ssg70
g2618
sg63
(lp2625
S''
asbasbasbag56
(g72
g58
NtRp2626
(dp2627
g61
(dp2628
sg70
g2370
sg63
(lp2629
g56
(g77
g58
NtRp2630
(dp2631
g61
(dp2632
g81
g82
ssg70
g2626
sg63
(lp2633
S'REMOTE_ADDR'
p2634
asbag56
(g77
g58
NtRp2635
(dp2636
g61
(dp2637
g88
g89
ssg70
g2626
sg63
(lp2638
S':'
asbag56
(g77
g58
NtRp2639
(dp2640
g61
(dp2641
sg70
g2626
sg63
(lp2642
g56
(g57
g58
NtRp2643
(dp2644
g61
(dp2645
g69
I3
ssg70
g2639
sg63
(lp2646
g189
asbasbasbag56
(g72
g58
NtRp2647
(dp2648
g61
(dp2649
sg70
g2370
sg63
(lp2650
g56
(g77
g58
NtRp2651
(dp2652
g61
(dp2653
g81
g82
ssg70
g2647
sg63
(lp2654
S'REMOTE_PORT'
p2655
asbag56
(g77
g58
NtRp2656
(dp2657
g61
(dp2658
g88
g89
ssg70
g2647
sg63
(lp2659
S':'
asbag56
(g77
g58
NtRp2660
(dp2661
g61
(dp2662
sg70
g2647
sg63
(lp2663
g56
(g57
g58
NtRp2664
(dp2665
g61
(dp2666
g69
I3
ssg70
g2660
sg63
(lp2667
g1656
asbasbasbag56
(g72
g58
NtRp2668
(dp2669
g61
(dp2670
sg70
g2370
sg63
(lp2671
g56
(g77
g58
NtRp2672
(dp2673
g61
(dp2674
g81
g82
ssg70
g2668
sg63
(lp2675
S'REQUEST_METHOD'
p2676
asbag56
(g77
g58
NtRp2677
(dp2678
g61
(dp2679
g88
g89
ssg70
g2668
sg63
(lp2680
S':'
asbag56
(g77
g58
NtRp2681
(dp2682
g61
(dp2683
sg70
g2668
sg63
(lp2684
g56
(g57
g58
NtRp2685
(dp2686
g61
(dp2687
g69
I3
ssg70
g2681
sg63
(lp2688
g1678
asbasbasbag56
(g72
g58
NtRp2689
(dp2690
g61
(dp2691
sg70
g2370
sg63
(lp2692
g56
(g77
g58
NtRp2693
(dp2694
g61
(dp2695
g81
g82
ssg70
g2689
sg63
(lp2696
S'SCRIPT_NAME'
p2697
asbag56
(g77
g58
NtRp2698
(dp2699
g61
(dp2700
g88
g89
ssg70
g2689
sg63
(lp2701
S':'
asbag56
(g77
g58
NtRp2702
(dp2703
g61
(dp2704
sg70
g2689
sg63
(lp2705
g56
(g57
g58
NtRp2706
(dp2707
g61
(dp2708
g69
I3
ssg70
g2702
sg63
(lp2709
S''
asbasbasbag56
(g72
g58
NtRp2710
(dp2711
g61
(dp2712
sg70
g2370
sg63
(lp2713
g56
(g77
g58
NtRp2714
(dp2715
g61
(dp2716
g81
g82
ssg70
g2710
sg63
(lp2717
S'SERVER_NAME'
p2718
asbag56
(g77
g58
NtRp2719
(dp2720
g61
(dp2721
g88
g89
ssg70
g2710
sg63
(lp2722
S':'
asbag56
(g77
g58
NtRp2723
(dp2724
g61
(dp2725
sg70
g2710
sg63
(lp2726
g56
(g57
g58
NtRp2727
(dp2728
g61
(dp2729
g69
I3
ssg70
g2723
sg63
(lp2730
g1721
asbasbasbag56
(g72
g58
NtRp2731
(dp2732
g61
(dp2733
sg70
g2370
sg63
(lp2734
g56
(g77
g58
NtRp2735
(dp2736
g61
(dp2737
g81
g82
ssg70
g2731
sg63
(lp2738
S'SERVER_PORT'
p2739
asbag56
(g77
g58
NtRp2740
(dp2741
g61
(dp2742
g88
g89
ssg70
g2731
sg63
(lp2743
S':'
asbag56
(g77
g58
NtRp2744
(dp2745
g61
(dp2746
sg70
g2731
sg63
(lp2747
g56
(g57
g58
NtRp2748
(dp2749
g61
(dp2750
g69
I3
ssg70
g2744
sg63
(lp2751
g1743
asbasbasbag56
(g72
g58
NtRp2752
(dp2753
g61
(dp2754
sg70
g2370
sg63
(lp2755
g56
(g77
g58
NtRp2756
(dp2757
g61
(dp2758
g81
g82
ssg70
g2752
sg63
(lp2759
S'SERVER_PROTOCOL'
p2760
asbag56
(g77
g58
NtRp2761
(dp2762
g61
(dp2763
g88
g89
ssg70
g2752
sg63
(lp2764
S':'
asbag56
(g77
g58
NtRp2765
(dp2766
g61
(dp2767
sg70
g2752
sg63
(lp2768
g56
(g57
g58
NtRp2769
(dp2770
g61
(dp2771
g69
I3
ssg70
g2765
sg63
(lp2772
g1765
asbasbasbag56
(g72
g58
NtRp2773
(dp2774
g61
(dp2775
sg70
g2370
sg63
(lp2776
g56
(g77
g58
NtRp2777
(dp2778
g61
(dp2779
g81
g82
ssg70
g2773
sg63
(lp2780
S'SERVER_SOFTWARE'
p2781
asbag56
(g77
g58
NtRp2782
(dp2783
g61
(dp2784
g88
g89
ssg70
g2773
sg63
(lp2785
S':'
asbag56
(g77
g58
NtRp2786
(dp2787
g61
(dp2788
sg70
g2773
sg63
(lp2789
g56
(g57
g58
NtRp2790
(dp2791
g61
(dp2792
g69
I3
ssg70
g2786
sg63
(lp2793
g1787
asbasbasbag56
(g72
g58
NtRp2794
(dp2795
g61
(dp2796
sg70
g2370
sg63
(lp2797
g56
(g77
g58
NtRp2798
(dp2799
g61
(dp2800
g81
g82
ssg70
g2794
sg63
(lp2801
S'wsgi.errors'
p2802
asbag56
(g77
g58
NtRp2803
(dp2804
g61
(dp2805
g88
g89
ssg70
g2794
sg63
(lp2806
S':'
asbag56
(g77
g58
NtRp2807
(dp2808
g61
(dp2809
sg70
g2794
sg63
(lp2810
g56
(g57
g58
NtRp2811
(dp2812
g61
(dp2813
g69
I3
ssg70
g2807
sg63
(lp2814
S"<open file '<stderr>', mode 'w' at 0xb77f60d0>"
p2815
asbasbasbag56
(g72
g58
NtRp2816
(dp2817
g61
(dp2818
sg70
g2370
sg63
(lp2819
g56
(g77
g58
NtRp2820
(dp2821
g61
(dp2822
g81
g82
ssg70
g2816
sg63
(lp2823
S'wsgi.file_wrapper'
p2824
asbag56
(g77
g58
NtRp2825
(dp2826
g61
(dp2827
g88
g89
ssg70
g2816
sg63
(lp2828
S':'
asbag56
(g77
g58
NtRp2829
(dp2830
g61
(dp2831
sg70
g2816
sg63
(lp2832
g56
(g57
g58
NtRp2833
(dp2834
g61
(dp2835
g69
I3
ssg70
g2829
sg63
(lp2836
S'<class gluon.rocket.FileWrapper at 0x8ea1e3c>'
p2837
asbasbasbag56
(g72
g58
NtRp2838
(dp2839
g61
(dp2840
sg70
g2370
sg63
(lp2841
g56
(g77
g58
NtRp2842
(dp2843
g61
(dp2844
g81
g82
ssg70
g2838
sg63
(lp2845
S'wsgi.input'
p2846
asbag56
(g77
g58
NtRp2847
(dp2848
g61
(dp2849
g88
g89
ssg70
g2838
sg63
(lp2850
S':'
asbag56
(g77
g58
NtRp2851
(dp2852
g61
(dp2853
sg70
g2838
sg63
(lp2854
g56
(g57
g58
NtRp2855
(dp2856
g61
(dp2857
g69
I3
ssg70
g2851
sg63
(lp2858
S'<cStringIO.StringO object at 0x9abcd60>'
p2859
asbasbasbag56
(g72
g58
NtRp2860
(dp2861
g61
(dp2862
sg70
g2370
sg63
(lp2863
g56
(g77
g58
NtRp2864
(dp2865
g61
(dp2866
g81
g82
ssg70
g2860
sg63
(lp2867
S'wsgi.multiprocess'
p2868
asbag56
(g77
g58
NtRp2869
(dp2870
g61
(dp2871
g88
g89
ssg70
g2860
sg63
(lp2872
S':'
asbag56
(g77
g58
NtRp2873
(dp2874
g61
(dp2875
sg70
g2860
sg63
(lp2876
g56
(g57
g58
NtRp2877
(dp2878
g61
(dp2879
g69
I3
ssg70
g2873
sg63
(lp2880
g99
asbasbasbag56
(g72
g58
NtRp2881
(dp2882
g61
(dp2883
sg70
g2370
sg63
(lp2884
g56
(g77
g58
NtRp2885
(dp2886
g61
(dp2887
g81
g82
ssg70
g2881
sg63
(lp2888
S'wsgi.multithread'
p2889
asbag56
(g77
g58
NtRp2890
(dp2891
g61
(dp2892
g88
g89
ssg70
g2881
sg63
(lp2893
S':'
asbag56
(g77
g58
NtRp2894
(dp2895
g61
(dp2896
sg70
g2881
sg63
(lp2897
g56
(g57
g58
NtRp2898
(dp2899
g61
(dp2900
g69
I3
ssg70
g2894
sg63
(lp2901
g1961
asbasbasbag56
(g72
g58
NtRp2902
(dp2903
g61
(dp2904
sg70
g2370
sg63
(lp2905
g56
(g77
g58
NtRp2906
(dp2907
g61
(dp2908
g81
g82
ssg70
g2902
sg63
(lp2909
S'wsgi.run_once'
p2910
asbag56
(g77
g58
NtRp2911
(dp2912
g61
(dp2913
g88
g89
ssg70
g2902
sg63
(lp2914
S':'
asbag56
(g77
g58
NtRp2915
(dp2916
g61
(dp2917
sg70
g2902
sg63
(lp2918
g56
(g57
g58
NtRp2919
(dp2920
g61
(dp2921
g69
I3
ssg70
g2915
sg63
(lp2922
g99
asbasbasbag56
(g72
g58
NtRp2923
(dp2924
g61
(dp2925
sg70
g2370
sg63
(lp2926
g56
(g77
g58
NtRp2927
(dp2928
g61
(dp2929
g81
g82
ssg70
g2923
sg63
(lp2930
S'wsgi.url_scheme'
p2931
asbag56
(g77
g58
NtRp2932
(dp2933
g61
(dp2934
g88
g89
ssg70
g2923
sg63
(lp2935
S':'
asbag56
(g77
g58
NtRp2936
(dp2937
g61
(dp2938
sg70
g2923
sg63
(lp2939
g56
(g57
g58
NtRp2940
(dp2941
g61
(dp2942
g69
I3
ssg70
g2936
sg63
(lp2943
g2004
asbasbasbag56
(g72
g58
NtRp2944
(dp2945
g61
(dp2946
sg70
g2370
sg63
(lp2947
g56
(g77
g58
NtRp2948
(dp2949
g61
(dp2950
g81
g82
ssg70
g2944
sg63
(lp2951
S'wsgi.version'
p2952
asbag56
(g77
g58
NtRp2953
(dp2954
g61
(dp2955
g88
g89
ssg70
g2944
sg63
(lp2956
S':'
asbag56
(g77
g58
NtRp2957
(dp2958
g61
(dp2959
sg70
g2944
sg63
(lp2960
g56
(g57
g58
NtRp2961
(dp2962
g61
(dp2963
g69
I3
ssg70
g2957
sg63
(lp2964
S'1'
asbasbasbasbasbasbasbasbasbasbasbasbasbsS'frames'
p2965
(lp2966
(dp2967
S'file'
p2968
S'/home/alumno/web2py/gluon/restricted.py'
p2969
sS'dump'
p2970
(dp2971
S'environment'
p2972
S"{'A': <class 'gluon.html.A'>, 'B': <class 'gluon.html.B'>, 'BEAUTIFY': <class 'gluon.html.BEAUTIFY'>, 'BODY': <class 'gluon.html.BODY'>, 'BR': <class 'gluon.html.BR'>, 'CENTER': <class 'gluon.html.CENTER'>, 'CLEANUP': <class 'gluon.validators.CLEANUP'>, 'CODE': <class 'gluon.html.CODE'>, 'CRYPT': <class 'gluon.validators.CRYPT'>, 'DAL': <class 'gluon.dal.DAL'>, ...}"
p2973
sS'ccode'
p2974
S'<code object <module> at 0x96814e8, file "/home/...ications/datos/views/default/index.html", line 1>'
p2975
ssS'lnum'
p2976
I192
sS'lines'
p2977
(dp2978
I192
S'        exec ccode in environment'
p2979
sI193
S'    except HTTP:'
p2980
sI194
S'        raise'
p2981
sI195
S'    except Exception:'
p2982
sI196
S'        # XXX Show exception in Wing IDE if running in debugger'
p2983
sI187
S'    try:'
p2984
sI188
S'        if type(code) == types.CodeType:'
p2985
sI189
S'            ccode = code'
p2986
sI190
S'        else:'
p2987
sI191
S'            ccode = compile2(code,layer)'
p2988
ssS'call'
p2989
S'(code=\'response.write(\\\'<!DOCTYPE html>\\\\n<html lang="\\\', ...t   -->    \\\\n  </body>\\\\n</html>\\\\n\\\', escape=False)\', environment={\'A\': <class \'gluon.html.A\'>, \'B\': <class \'gluon.html.B\'>, \'BEAUTIFY\': <class \'gluon.html.BEAUTIFY\'>, \'BODY\': <class \'gluon.html.BODY\'>, \'BR\': <class \'gluon.html.BR\'>, \'CENTER\': <class \'gluon.html.CENTER\'>, \'CLEANUP\': <class \'gluon.validators.CLEANUP\'>, \'CODE\': <class \'gluon.html.CODE\'>, \'CRYPT\': <class \'gluon.validators.CRYPT\'>, \'DAL\': <class \'gluon.dal.DAL\'>, ...}, layer=\'/home/alumno/web2py/applications/datos/views/default/index.html\')'
p2990
sS'func'
p2991
S'restricted'
p2992
sa(dp2993
g2968
S'/home/alumno/web2py/applications/datos/views/default/index.html'
p2994
sg2970
(dp2995
sg2976
I119
sg2977
(dp2996
I128
S'if right_sidebar_enabled:'
p2997
sI129
S'    response.write(\'\\n          <div id="right_sidebar" \', escape=False)'
p2998
sI110
S"response.write('\\n</p>\\n<h1>Profesores</h1>\\n\\n<p>este es el registro de profesores en el sistema\\n\\n', escape=False)"
p2999
sI111
S'for profesor in profesores:'
p3000
sI112
S'    response.write("\\n    <ul>\\n    <li><a href=\'detalle/", escape=False)'
p3001
sI113
S'    response.write(profesor.codigo)'
p3002
sI114
S'    response.write("\'>", escape=False)'
p3003
sI115
S'    response.write(profesor.nombre_completo)'
p3004
sI116
S"    response.write('</a></li>\\n    <hr>\\n    </ul>\\n', escape=False)"
p3005
sI117
S'    pass'
p3006
sI118
S"response.write('\\n    \\n</p>\\n\\n<h1>Cursos</h1>\\n<p>este es el registro de cursos en el sistema\\n', escape=False)"
p3007
sI119
S'for curso in curso:'
p3008
sI120
S'    response.write("\\n    <ul>\\n    <li><a href=\'detalle/", escape=False)'
p3009
sI121
S'    response.write(curso.codigo)'
p3010
sI122
S'    response.write("\'>", escape=False)'
p3011
sI123
S'    response.write(curso.nombre)'
p3012
sI124
S"    response.write('</a></li>\\n    <hr>\\n    </ul>\\n', escape=False)"
p3013
sI125
S'    pass'
p3014
sI126
S"response.write('\\n</p>\\n', escape=False)"
p3015
sI127
S"response.write('\\t\\n\\t  </div>\\n\\t  <!-- content -->\\n\\n\\t  ', escape=False)"
p3016
ssg2989
S'()'
p3017
sg2991
S'<module>'
p3018
sasS'pyver'
p3019
S'Python 2.6.6: /usr/bin/python'
p3020
sS'session'
p3021
g56
(g57
g58
NtRp3022
(dp3023
g61
(dp3024
sg63
(lp3025
g56
(g65
g58
NtRp3026
(dp3027
g61
(dp3028
g69
I5
ssg70
Nsg63
(lp3029
g56
(g72
g58
NtRp3030
(dp3031
g61
(dp3032
sg70
g3026
sg63
(lp3033
g56
(g77
g58
NtRp3034
(dp3035
g61
(dp3036
g81
g82
ssg70
g3030
sg63
(lp3037
S'last_query'
p3038
asbag56
(g77
g58
NtRp3039
(dp3040
g61
(dp3041
g88
g89
ssg70
g3030
sg63
(lp3042
S':'
asbag56
(g77
g58
NtRp3043
(dp3044
g61
(dp3045
sg70
g3030
sg63
(lp3046
g56
(g57
g58
NtRp3047
(dp3048
g61
(dp3049
g69
I5
ssg70
g3043
sg63
(lp3050
S'db.alumno_curso.id>0'
p3051
asbasbasbasbasbsS'etype'
p3052
S"<type 'exceptions.NameError'>"
p3053
sS'date'
p3054
S'Sat Sep 10 18:57:01 2011'
p3055
sS'response'
p3056
g56
(g57
g58
NtRp3057
(dp3058
g61
(dp3059
sg63
(lp3060
g56
(g65
g58
NtRp3061
(dp3062
g61
(dp3063
g69
I5
ssg70
Nsg63
(lp3064
g56
(g72
g58
NtRp3065
(dp3066
g61
(dp3067
sg70
g3061
sg63
(lp3068
g56
(g77
g58
NtRp3069
(dp3070
g61
(dp3071
g81
g82
ssg70
g3065
sg63
(lp3072
g154
asbag56
(g77
g58
NtRp3073
(dp3074
g61
(dp3075
g88
g89
ssg70
g3065
sg63
(lp3076
S':'
asbag56
(g77
g58
NtRp3077
(dp3078
g61
(dp3079
sg70
g3065
sg63
(lp3080
g56
(g57
g58
NtRp3081
(dp3082
g61
(dp3083
g69
I5
ssg70
g3077
sg63
(lp3084
S'<cStringIO.StringO object at 0x9abc1a0>'
p3085
asbasbasbag56
(g72
g58
NtRp3086
(dp3087
g61
(dp3088
sg70
g3061
sg63
(lp3089
g56
(g77
g58
NtRp3090
(dp3091
g61
(dp3092
g81
g82
ssg70
g3086
sg63
(lp3093
g220
asbag56
(g77
g58
NtRp3094
(dp3095
g61
(dp3096
g88
g89
ssg70
g3086
sg63
(lp3097
S':'
asbag56
(g77
g58
NtRp3098
(dp3099
g61
(dp3100
sg70
g3086
sg63
(lp3101
g56
(g57
g58
NtRp3102
(dp3103
g61
(dp3104
g69
I5
ssg70
g3098
sg63
(lp3105
g56
(g65
g58
NtRp3106
(dp3107
g61
(dp3108
g69
I4
ssg70
Nsg63
(lp3109
g56
(g72
g58
NtRp3110
(dp3111
g61
(dp3112
sg70
g3106
sg63
(lp3113
g56
(g77
g58
NtRp3114
(dp3115
g61
(dp3116
g81
g82
ssg70
g3110
sg63
(lp3117
S'session_id_datos'
p3118
asbag56
(g77
g58
NtRp3119
(dp3120
g61
(dp3121
g88
g89
ssg70
g3110
sg63
(lp3122
S':'
asbag56
(g77
g58
NtRp3123
(dp3124
g61
(dp3125
sg70
g3110
sg63
(lp3126
g56
(g57
g58
NtRp3127
(dp3128
g61
(dp3129
g69
I4
ssg70
g3123
sg63
(lp3130
g56
(g65
g58
NtRp3131
(dp3132
g61
(dp3133
g69
I3
ssg70
Nsg63
(lp3134
g56
(g72
g58
NtRp3135
(dp3136
g61
(dp3137
sg70
g3131
sg63
(lp3138
g56
(g77
g58
NtRp3139
(dp3140
g61
(dp3141
g81
g82
ssg70
g3135
sg63
(lp3142
g270
asbag56
(g77
g58
NtRp3143
(dp3144
g61
(dp3145
g88
g89
ssg70
g3135
sg63
(lp3146
S':'
asbag56
(g77
g58
NtRp3147
(dp3148
g61
(dp3149
sg70
g3135
sg63
(lp3150
g56
(g57
g58
NtRp3151
(dp3152
g61
(dp3153
g69
I3
ssg70
g3147
sg63
(lp3154
S''
asbasbasbag56
(g72
g58
NtRp3155
(dp3156
g61
(dp3157
sg70
g3131
sg63
(lp3158
g56
(g77
g58
NtRp3159
(dp3160
g61
(dp3161
g81
g82
ssg70
g3155
sg63
(lp3162
g291
asbag56
(g77
g58
NtRp3163
(dp3164
g61
(dp3165
g88
g89
ssg70
g3155
sg63
(lp3166
S':'
asbag56
(g77
g58
NtRp3167
(dp3168
g61
(dp3169
sg70
g3155
sg63
(lp3170
g56
(g57
g58
NtRp3171
(dp3172
g61
(dp3173
g69
I3
ssg70
g3167
sg63
(lp3174
S''
asbasbasbag56
(g72
g58
NtRp3175
(dp3176
g61
(dp3177
sg70
g3131
sg63
(lp3178
g56
(g77
g58
NtRp3179
(dp3180
g61
(dp3181
g81
g82
ssg70
g3175
sg63
(lp3182
g312
asbag56
(g77
g58
NtRp3183
(dp3184
g61
(dp3185
g88
g89
ssg70
g3175
sg63
(lp3186
S':'
asbag56
(g77
g58
NtRp3187
(dp3188
g61
(dp3189
sg70
g3175
sg63
(lp3190
g56
(g57
g58
NtRp3191
(dp3192
g61
(dp3193
g69
I3
ssg70
g3187
sg63
(lp3194
S''
asbasbasbag56
(g72
g58
NtRp3195
(dp3196
g61
(dp3197
sg70
g3131
sg63
(lp3198
g56
(g77
g58
NtRp3199
(dp3200
g61
(dp3201
g81
g82
ssg70
g3195
sg63
(lp3202
g333
asbag56
(g77
g58
NtRp3203
(dp3204
g61
(dp3205
g88
g89
ssg70
g3195
sg63
(lp3206
S':'
asbag56
(g77
g58
NtRp3207
(dp3208
g61
(dp3209
sg70
g3195
sg63
(lp3210
g56
(g57
g58
NtRp3211
(dp3212
g61
(dp3213
g69
I3
ssg70
g3207
sg63
(lp3214
S''
asbasbasbag56
(g72
g58
NtRp3215
(dp3216
g61
(dp3217
sg70
g3131
sg63
(lp3218
g56
(g77
g58
NtRp3219
(dp3220
g61
(dp3221
g81
g82
ssg70
g3215
sg63
(lp3222
g354
asbag56
(g77
g58
NtRp3223
(dp3224
g61
(dp3225
g88
g89
ssg70
g3215
sg63
(lp3226
S':'
asbag56
(g77
g58
NtRp3227
(dp3228
g61
(dp3229
sg70
g3215
sg63
(lp3230
g56
(g57
g58
NtRp3231
(dp3232
g61
(dp3233
g69
I3
ssg70
g3227
sg63
(lp3234
S''
asbasbasbag56
(g72
g58
NtRp3235
(dp3236
g61
(dp3237
sg70
g3131
sg63
(lp3238
g56
(g77
g58
NtRp3239
(dp3240
g61
(dp3241
g81
g82
ssg70
g3235
sg63
(lp3242
g375
asbag56
(g77
g58
NtRp3243
(dp3244
g61
(dp3245
g88
g89
ssg70
g3235
sg63
(lp3246
S':'
asbag56
(g77
g58
NtRp3247
(dp3248
g61
(dp3249
sg70
g3235
sg63
(lp3250
g56
(g57
g58
NtRp3251
(dp3252
g61
(dp3253
g69
I3
ssg70
g3247
sg63
(lp3254
S'/'
asbasbasbag56
(g72
g58
NtRp3255
(dp3256
g61
(dp3257
sg70
g3131
sg63
(lp3258
g56
(g77
g58
NtRp3259
(dp3260
g61
(dp3261
g81
g82
ssg70
g3255
sg63
(lp3262
g396
asbag56
(g77
g58
NtRp3263
(dp3264
g61
(dp3265
g88
g89
ssg70
g3255
sg63
(lp3266
S':'
asbag56
(g77
g58
NtRp3267
(dp3268
g61
(dp3269
sg70
g3255
sg63
(lp3270
g56
(g57
g58
NtRp3271
(dp3272
g61
(dp3273
g69
I3
ssg70
g3267
sg63
(lp3274
S''
asbasbasbag56
(g72
g58
NtRp3275
(dp3276
g61
(dp3277
sg70
g3131
sg63
(lp3278
g56
(g77
g58
NtRp3279
(dp3280
g61
(dp3281
g81
g82
ssg70
g3275
sg63
(lp3282
g417
asbag56
(g77
g58
NtRp3283
(dp3284
g61
(dp3285
g88
g89
ssg70
g3275
sg63
(lp3286
S':'
asbag56
(g77
g58
NtRp3287
(dp3288
g61
(dp3289
sg70
g3275
sg63
(lp3290
g56
(g57
g58
NtRp3291
(dp3292
g61
(dp3293
g69
I3
ssg70
g3287
sg63
(lp3294
S''
asbasbasbasbasbasbasbasbasbasbasbag56
(g72
g58
NtRp3295
(dp3296
g61
(dp3297
sg70
g3061
sg63
(lp3298
g56
(g77
g58
NtRp3299
(dp3300
g61
(dp3301
g81
g82
ssg70
g3295
sg63
(lp3302
S'files'
p3303
asbag56
(g77
g58
NtRp3304
(dp3305
g61
(dp3306
g88
g89
ssg70
g3295
sg63
(lp3307
S':'
asbag56
(g77
g58
NtRp3308
(dp3309
g61
(dp3310
sg70
g3295
sg63
(lp3311
g56
(g57
g58
NtRp3312
(dp3313
g61
(dp3314
g69
I5
ssg70
g3308
sg63
(lp3315
g56
(g65
g58
NtRp3316
(dp3317
g61
(dp3318
g69
I4
ssg70
Nsg63
(lp3319
g56
(g72
g58
NtRp3320
(dp3321
g61
(dp3322
sg70
g3316
sg63
(lp3323
g56
(g77
g58
NtRp3324
(dp3325
g61
(dp3326
sg70
g3320
sg63
(lp3327
g56
(g57
g58
NtRp3328
(dp3329
g61
(dp3330
g69
I4
ssg70
g3324
sg63
(lp3331
S'/datos/static/js/jquery.js'
p3332
asbasbasbag56
(g72
g58
NtRp3333
(dp3334
g61
(dp3335
sg70
g3316
sg63
(lp3336
g56
(g77
g58
NtRp3337
(dp3338
g61
(dp3339
sg70
g3333
sg63
(lp3340
g56
(g57
g58
NtRp3341
(dp3342
g61
(dp3343
g69
I4
ssg70
g3337
sg63
(lp3344
S'/datos/static/css/calendar.css'
p3345
asbasbasbag56
(g72
g58
NtRp3346
(dp3347
g61
(dp3348
sg70
g3316
sg63
(lp3349
g56
(g77
g58
NtRp3350
(dp3351
g61
(dp3352
sg70
g3346
sg63
(lp3353
g56
(g57
g58
NtRp3354
(dp3355
g61
(dp3356
g69
I4
ssg70
g3350
sg63
(lp3357
S'/datos/static/js/calendar.js'
p3358
asbasbasbag56
(g72
g58
NtRp3359
(dp3360
g61
(dp3361
sg70
g3316
sg63
(lp3362
g56
(g77
g58
NtRp3363
(dp3364
g61
(dp3365
sg70
g3359
sg63
(lp3366
g56
(g57
g58
NtRp3367
(dp3368
g61
(dp3369
g69
I4
ssg70
g3363
sg63
(lp3370
S'/datos/static/css/base.css'
p3371
asbasbasbag56
(g72
g58
NtRp3372
(dp3373
g61
(dp3374
sg70
g3316
sg63
(lp3375
g56
(g77
g58
NtRp3376
(dp3377
g61
(dp3378
sg70
g3372
sg63
(lp3379
g56
(g57
g58
NtRp3380
(dp3381
g61
(dp3382
g69
I4
ssg70
g3376
sg63
(lp3383
S'/datos/static/css/superfish.css'
p3384
asbasbasbag56
(g72
g58
NtRp3385
(dp3386
g61
(dp3387
sg70
g3316
sg63
(lp3388
g56
(g77
g58
NtRp3389
(dp3390
g61
(dp3391
sg70
g3385
sg63
(lp3392
g56
(g57
g58
NtRp3393
(dp3394
g61
(dp3395
g69
I4
ssg70
g3389
sg63
(lp3396
S'/datos/static/js/superfish.js'
p3397
asbasbasbasbasbasbasbag56
(g72
g58
NtRp3398
(dp3399
g61
(dp3400
sg70
g3061
sg63
(lp3401
g56
(g77
g58
NtRp3402
(dp3403
g61
(dp3404
g81
g82
ssg70
g3398
sg63
(lp3405
S'flash'
p3406
asbag56
(g77
g58
NtRp3407
(dp3408
g61
(dp3409
g88
g89
ssg70
g3398
sg63
(lp3410
S':'
asbag56
(g77
g58
NtRp3411
(dp3412
g61
(dp3413
sg70
g3398
sg63
(lp3414
g56
(g57
g58
NtRp3415
(dp3416
g61
(dp3417
g69
I5
ssg70
g3411
sg63
(lp3418
S''
asbasbasbag56
(g72
g58
NtRp3419
(dp3420
g61
(dp3421
sg70
g3061
sg63
(lp3422
g56
(g77
g58
NtRp3423
(dp3424
g61
(dp3425
g81
g82
ssg70
g3419
sg63
(lp3426
S'headers'
p3427
asbag56
(g77
g58
NtRp3428
(dp3429
g61
(dp3430
g88
g89
ssg70
g3419
sg63
(lp3431
S':'
asbag56
(g77
g58
NtRp3432
(dp3433
g61
(dp3434
sg70
g3419
sg63
(lp3435
g56
(g57
g58
NtRp3436
(dp3437
g61
(dp3438
g69
I5
ssg70
g3432
sg63
(lp3439
g56
(g65
g58
NtRp3440
(dp3441
g61
(dp3442
g69
I4
ssg70
Nsg63
(lp3443
g56
(g72
g58
NtRp3444
(dp3445
g61
(dp3446
sg70
g3440
sg63
(lp3447
g56
(g77
g58
NtRp3448
(dp3449
g61
(dp3450
g81
g82
ssg70
g3444
sg63
(lp3451
S'Cache-Control'
p3452
asbag56
(g77
g58
NtRp3453
(dp3454
g61
(dp3455
g88
g89
ssg70
g3444
sg63
(lp3456
S':'
asbag56
(g77
g58
NtRp3457
(dp3458
g61
(dp3459
sg70
g3444
sg63
(lp3460
g56
(g57
g58
NtRp3461
(dp3462
g61
(dp3463
g69
I4
ssg70
g3457
sg63
(lp3464
S'no-store, no-cache, must-revalidate, post-check=0, pre-check=0'
p3465
asbasbasbag56
(g72
g58
NtRp3466
(dp3467
g61
(dp3468
sg70
g3440
sg63
(lp3469
g56
(g77
g58
NtRp3470
(dp3471
g61
(dp3472
g81
g82
ssg70
g3466
sg63
(lp3473
S'Content-Type'
p3474
asbag56
(g77
g58
NtRp3475
(dp3476
g61
(dp3477
g88
g89
ssg70
g3466
sg63
(lp3478
S':'
asbag56
(g77
g58
NtRp3479
(dp3480
g61
(dp3481
sg70
g3466
sg63
(lp3482
g56
(g57
g58
NtRp3483
(dp3484
g61
(dp3485
g69
I4
ssg70
g3479
sg63
(lp3486
S'text/html; charset=utf-8'
p3487
asbasbasbag56
(g72
g58
NtRp3488
(dp3489
g61
(dp3490
sg70
g3440
sg63
(lp3491
g56
(g77
g58
NtRp3492
(dp3493
g61
(dp3494
g81
g82
ssg70
g3488
sg63
(lp3495
S'Expires'
p3496
asbag56
(g77
g58
NtRp3497
(dp3498
g61
(dp3499
g88
g89
ssg70
g3488
sg63
(lp3500
S':'
asbag56
(g77
g58
NtRp3501
(dp3502
g61
(dp3503
sg70
g3488
sg63
(lp3504
g56
(g57
g58
NtRp3505
(dp3506
g61
(dp3507
g69
I4
ssg70
g3501
sg63
(lp3508
S'Sat, 10 Sep 2011 23:57:00 GMT'
p3509
asbasbasbag56
(g72
g58
NtRp3510
(dp3511
g61
(dp3512
sg70
g3440
sg63
(lp3513
g56
(g77
g58
NtRp3514
(dp3515
g61
(dp3516
g81
g82
ssg70
g3510
sg63
(lp3517
S'Pragma'
p3518
asbag56
(g77
g58
NtRp3519
(dp3520
g61
(dp3521
g88
g89
ssg70
g3510
sg63
(lp3522
S':'
asbag56
(g77
g58
NtRp3523
(dp3524
g61
(dp3525
sg70
g3510
sg63
(lp3526
g56
(g57
g58
NtRp3527
(dp3528
g61
(dp3529
g69
I4
ssg70
g3523
sg63
(lp3530
S'no-cache'
p3531
asbasbasbag56
(g72
g58
NtRp3532
(dp3533
g61
(dp3534
sg70
g3440
sg63
(lp3535
g56
(g77
g58
NtRp3536
(dp3537
g61
(dp3538
g81
g82
ssg70
g3532
sg63
(lp3539
S'X-Powered-By'
p3540
asbag56
(g77
g58
NtRp3541
(dp3542
g61
(dp3543
g88
g89
ssg70
g3532
sg63
(lp3544
S':'
asbag56
(g77
g58
NtRp3545
(dp3546
g61
(dp3547
sg70
g3532
sg63
(lp3548
g56
(g57
g58
NtRp3549
(dp3550
g61
(dp3551
g69
I4
ssg70
g3545
sg63
(lp3552
S'web2py'
p3553
asbasbasbasbasbasbasbag56
(g72
g58
NtRp3554
(dp3555
g61
(dp3556
sg70
g3061
sg63
(lp3557
g56
(g77
g58
NtRp3558
(dp3559
g61
(dp3560
g81
g82
ssg70
g3554
sg63
(lp3561
S'menu'
p3562
asbag56
(g77
g58
NtRp3563
(dp3564
g61
(dp3565
g88
g89
ssg70
g3554
sg63
(lp3566
S':'
asbag56
(g77
g58
NtRp3567
(dp3568
g61
(dp3569
sg70
g3554
sg63
(lp3570
g56
(g57
g58
NtRp3571
(dp3572
g61
(dp3573
g69
I5
ssg70
g3567
sg63
(lp3574
g56
(g65
g58
NtRp3575
(dp3576
g61
(dp3577
g69
I4
ssg70
Nsg63
(lp3578
g56
(g72
g58
NtRp3579
(dp3580
g61
(dp3581
sg70
g3575
sg63
(lp3582
g56
(g77
g58
NtRp3583
(dp3584
g61
(dp3585
sg70
g3579
sg63
(lp3586
g56
(g57
g58
NtRp3587
(dp3588
g61
(dp3589
g69
I4
ssg70
g3583
sg63
(lp3590
g56
(g65
g58
NtRp3591
(dp3592
g61
(dp3593
g69
I3
ssg70
Nsg63
(lp3594
g56
(g72
g58
NtRp3595
(dp3596
g61
(dp3597
sg70
g3591
sg63
(lp3598
g56
(g77
g58
NtRp3599
(dp3600
g61
(dp3601
sg70
g3595
sg63
(lp3602
g56
(g57
g58
NtRp3603
(dp3604
g61
(dp3605
g69
I3
ssg70
g3599
sg63
(lp3606
cgluon.languages
lazyT_unpickle
p3607
(S's\x04\x00\x00\x00Home'
tRp3608
asbasbasbag56
(g72
g58
NtRp3609
(dp3610
g61
(dp3611
sg70
g3591
sg63
(lp3612
g56
(g77
g58
NtRp3613
(dp3614
g61
(dp3615
sg70
g3609
sg63
(lp3616
g56
(g57
g58
NtRp3617
(dp3618
g61
(dp3619
g69
I3
ssg70
g3613
sg63
(lp3620
g99
asbasbasbag56
(g72
g58
NtRp3621
(dp3622
g61
(dp3623
sg70
g3591
sg63
(lp3624
g56
(g77
g58
NtRp3625
(dp3626
g61
(dp3627
sg70
g3621
sg63
(lp3628
g56
(g57
g58
NtRp3629
(dp3630
g61
(dp3631
g69
I3
ssg70
g3625
sg63
(lp3632
S'/datos/default/index'
p3633
asbasbasbag56
(g72
g58
NtRp3634
(dp3635
g61
(dp3636
sg70
g3591
sg63
(lp3637
g56
(g77
g58
NtRp3638
(dp3639
g61
(dp3640
sg70
g3634
sg63
(lp3641
g56
(g57
g58
NtRp3642
(dp3643
g61
(dp3644
g69
I3
ssg70
g3638
sg63
(lp3645
g56
(g65
g58
NtRp3646
(dp3647
g61
(dp3648
g69
I2
ssg70
Nsg63
(lp3649
sbasbasbasbasbasbasbasbag56
(g72
g58
NtRp3650
(dp3651
g61
(dp3652
sg70
g3575
sg63
(lp3653
g56
(g77
g58
NtRp3654
(dp3655
g61
(dp3656
sg70
g3650
sg63
(lp3657
g56
(g57
g58
NtRp3658
(dp3659
g61
(dp3660
g69
I4
ssg70
g3654
sg63
(lp3661
g56
(g65
g58
NtRp3662
(dp3663
g61
(dp3664
g69
I3
ssg70
Nsg63
(lp3665
g56
(g72
g58
NtRp3666
(dp3667
g61
(dp3668
sg70
g3662
sg63
(lp3669
g56
(g77
g58
NtRp3670
(dp3671
g61
(dp3672
sg70
g3666
sg63
(lp3673
g56
(g57
g58
NtRp3674
(dp3675
g61
(dp3676
g69
I3
ssg70
g3670
sg63
(lp3677
g3607
(S's\x08\x00\x00\x00This App'
tRp3678
asbasbasbag56
(g72
g58
NtRp3679
(dp3680
g61
(dp3681
sg70
g3662
sg63
(lp3682
g56
(g77
g58
NtRp3683
(dp3684
g61
(dp3685
sg70
g3679
sg63
(lp3686
g56
(g57
g58
NtRp3687
(dp3688
g61
(dp3689
g69
I3
ssg70
g3683
sg63
(lp3690
g99
asbasbasbag56
(g72
g58
NtRp3691
(dp3692
g61
(dp3693
sg70
g3662
sg63
(lp3694
g56
(g77
g58
NtRp3695
(dp3696
g61
(dp3697
sg70
g3691
sg63
(lp3698
g56
(g57
g58
NtRp3699
(dp3700
g61
(dp3701
g69
I3
ssg70
g3695
sg63
(lp3702
S'/admin/default/design/datos'
p3703
asbasbasbag56
(g72
g58
NtRp3704
(dp3705
g61
(dp3706
sg70
g3662
sg63
(lp3707
g56
(g77
g58
NtRp3708
(dp3709
g61
(dp3710
sg70
g3704
sg63
(lp3711
g56
(g57
g58
NtRp3712
(dp3713
g61
(dp3714
g69
I3
ssg70
g3708
sg63
(lp3715
g56
(g65
g58
NtRp3716
(dp3717
g61
(dp3718
g69
I2
ssg70
Nsg63
(lp3719
g56
(g72
g58
NtRp3720
(dp3721
g61
(dp3722
sg70
g3716
sg63
(lp3723
g56
(g77
g58
NtRp3724
(dp3725
g61
(dp3726
sg70
g3720
sg63
(lp3727
g56
(g57
g58
NtRp3728
(dp3729
g61
(dp3730
g69
I2
ssg70
g3724
sg63
(lp3731
g56
(g65
g58
NtRp3732
(dp3733
g61
(dp3734
g69
I1
ssg70
Nsg63
(lp3735
g56
(g72
g58
NtRp3736
(dp3737
g61
(dp3738
sg70
g3732
sg63
(lp3739
g56
(g77
g58
NtRp3740
(dp3741
g61
(dp3742
sg70
g3736
sg63
(lp3743
g56
(g57
g58
NtRp3744
(dp3745
g61
(dp3746
g69
I1
ssg70
g3740
sg63
(lp3747
g3607
(S's\n\x00\x00\x00Controller'
tRp3748
asbasbasbag56
(g72
g58
NtRp3749
(dp3750
g61
(dp3751
sg70
g3732
sg63
(lp3752
g56
(g77
g58
NtRp3753
(dp3754
g61
(dp3755
sg70
g3749
sg63
(lp3756
g56
(g57
g58
NtRp3757
(dp3758
g61
(dp3759
g69
I1
ssg70
g3753
sg63
(lp3760
I00
asbasbasbag56
(g72
g58
NtRp3761
(dp3762
g61
(dp3763
sg70
g3732
sg63
(lp3764
g56
(g77
g58
NtRp3765
(dp3766
g61
(dp3767
sg70
g3761
sg63
(lp3768
g56
(g57
g58
NtRp3769
(dp3770
g61
(dp3771
g69
I1
ssg70
g3765
sg63
(lp3772
S'/admin/default/edit/datos/controllers/default.py'
p3773
asbasbasbasbasbasbasbag56
(g72
g58
NtRp3774
(dp3775
g61
(dp3776
sg70
g3716
sg63
(lp3777
g56
(g77
g58
NtRp3778
(dp3779
g61
(dp3780
sg70
g3774
sg63
(lp3781
g56
(g57
g58
NtRp3782
(dp3783
g61
(dp3784
g69
I2
ssg70
g3778
sg63
(lp3785
g56
(g65
g58
NtRp3786
(dp3787
g61
(dp3788
g69
I1
ssg70
Nsg63
(lp3789
g56
(g72
g58
NtRp3790
(dp3791
g61
(dp3792
sg70
g3786
sg63
(lp3793
g56
(g77
g58
NtRp3794
(dp3795
g61
(dp3796
sg70
g3790
sg63
(lp3797
g56
(g57
g58
NtRp3798
(dp3799
g61
(dp3800
g69
I1
ssg70
g3794
sg63
(lp3801
g3607
(S's\x04\x00\x00\x00View'
tRp3802
asbasbasbag56
(g72
g58
NtRp3803
(dp3804
g61
(dp3805
sg70
g3786
sg63
(lp3806
g56
(g77
g58
NtRp3807
(dp3808
g61
(dp3809
sg70
g3803
sg63
(lp3810
g56
(g57
g58
NtRp3811
(dp3812
g61
(dp3813
g69
I1
ssg70
g3807
sg63
(lp3814
I00
asbasbasbag56
(g72
g58
NtRp3815
(dp3816
g61
(dp3817
sg70
g3786
sg63
(lp3818
g56
(g77
g58
NtRp3819
(dp3820
g61
(dp3821
sg70
g3815
sg63
(lp3822
g56
(g57
g58
NtRp3823
(dp3824
g61
(dp3825
g69
I1
ssg70
g3819
sg63
(lp3826
S'/admin/default/edit/datos/views/default/index.html'
p3827
asbasbasbasbasbasbasbag56
(g72
g58
NtRp3828
(dp3829
g61
(dp3830
sg70
g3716
sg63
(lp3831
g56
(g77
g58
NtRp3832
(dp3833
g61
(dp3834
sg70
g3828
sg63
(lp3835
g56
(g57
g58
NtRp3836
(dp3837
g61
(dp3838
g69
I2
ssg70
g3832
sg63
(lp3839
g56
(g65
g58
NtRp3840
(dp3841
g61
(dp3842
g69
I1
ssg70
Nsg63
(lp3843
g56
(g72
g58
NtRp3844
(dp3845
g61
(dp3846
sg70
g3840
sg63
(lp3847
g56
(g77
g58
NtRp3848
(dp3849
g61
(dp3850
sg70
g3844
sg63
(lp3851
g56
(g57
g58
NtRp3852
(dp3853
g61
(dp3854
g69
I1
ssg70
g3848
sg63
(lp3855
g3607
(S's\x06\x00\x00\x00Layout'
tRp3856
asbasbasbag56
(g72
g58
NtRp3857
(dp3858
g61
(dp3859
sg70
g3840
sg63
(lp3860
g56
(g77
g58
NtRp3861
(dp3862
g61
(dp3863
sg70
g3857
sg63
(lp3864
g56
(g57
g58
NtRp3865
(dp3866
g61
(dp3867
g69
I1
ssg70
g3861
sg63
(lp3868
I00
asbasbasbag56
(g72
g58
NtRp3869
(dp3870
g61
(dp3871
sg70
g3840
sg63
(lp3872
g56
(g77
g58
NtRp3873
(dp3874
g61
(dp3875
sg70
g3869
sg63
(lp3876
g56
(g57
g58
NtRp3877
(dp3878
g61
(dp3879
g69
I1
ssg70
g3873
sg63
(lp3880
S'/admin/default/edit/datos/views/layout.html'
p3881
asbasbasbasbasbasbasbag56
(g72
g58
NtRp3882
(dp3883
g61
(dp3884
sg70
g3716
sg63
(lp3885
g56
(g77
g58
NtRp3886
(dp3887
g61
(dp3888
sg70
g3882
sg63
(lp3889
g56
(g57
g58
NtRp3890
(dp3891
g61
(dp3892
g69
I2
ssg70
g3886
sg63
(lp3893
g56
(g65
g58
NtRp3894
(dp3895
g61
(dp3896
g69
I1
ssg70
Nsg63
(lp3897
g56
(g72
g58
NtRp3898
(dp3899
g61
(dp3900
sg70
g3894
sg63
(lp3901
g56
(g77
g58
NtRp3902
(dp3903
g61
(dp3904
sg70
g3898
sg63
(lp3905
g56
(g57
g58
NtRp3906
(dp3907
g61
(dp3908
g69
I1
ssg70
g3902
sg63
(lp3909
g3607
(S's\n\x00\x00\x00Stylesheet'
tRp3910
asbasbasbag56
(g72
g58
NtRp3911
(dp3912
g61
(dp3913
sg70
g3894
sg63
(lp3914
g56
(g77
g58
NtRp3915
(dp3916
g61
(dp3917
sg70
g3911
sg63
(lp3918
g56
(g57
g58
NtRp3919
(dp3920
g61
(dp3921
g69
I1
ssg70
g3915
sg63
(lp3922
I00
asbasbasbag56
(g72
g58
NtRp3923
(dp3924
g61
(dp3925
sg70
g3894
sg63
(lp3926
g56
(g77
g58
NtRp3927
(dp3928
g61
(dp3929
sg70
g3923
sg63
(lp3930
g56
(g57
g58
NtRp3931
(dp3932
g61
(dp3933
g69
I1
ssg70
g3927
sg63
(lp3934
S'/admin/default/edit/datos/static/base.css'
p3935
asbasbasbasbasbasbasbag56
(g72
g58
NtRp3936
(dp3937
g61
(dp3938
sg70
g3716
sg63
(lp3939
g56
(g77
g58
NtRp3940
(dp3941
g61
(dp3942
sg70
g3936
sg63
(lp3943
g56
(g57
g58
NtRp3944
(dp3945
g61
(dp3946
g69
I2
ssg70
g3940
sg63
(lp3947
g56
(g65
g58
NtRp3948
(dp3949
g61
(dp3950
g69
I1
ssg70
Nsg63
(lp3951
g56
(g72
g58
NtRp3952
(dp3953
g61
(dp3954
sg70
g3948
sg63
(lp3955
g56
(g77
g58
NtRp3956
(dp3957
g61
(dp3958
sg70
g3952
sg63
(lp3959
g56
(g57
g58
NtRp3960
(dp3961
g61
(dp3962
g69
I1
ssg70
g3956
sg63
(lp3963
g3607
(S's\x08\x00\x00\x00DB Model'
tRp3964
asbasbasbag56
(g72
g58
NtRp3965
(dp3966
g61
(dp3967
sg70
g3948
sg63
(lp3968
g56
(g77
g58
NtRp3969
(dp3970
g61
(dp3971
sg70
g3965
sg63
(lp3972
g56
(g57
g58
NtRp3973
(dp3974
g61
(dp3975
g69
I1
ssg70
g3969
sg63
(lp3976
I00
asbasbasbag56
(g72
g58
NtRp3977
(dp3978
g61
(dp3979
sg70
g3948
sg63
(lp3980
g56
(g77
g58
NtRp3981
(dp3982
g61
(dp3983
sg70
g3977
sg63
(lp3984
g56
(g57
g58
NtRp3985
(dp3986
g61
(dp3987
g69
I1
ssg70
g3981
sg63
(lp3988
S'/admin/default/edit/datos/models/db.py'
p3989
asbasbasbasbasbasbasbag56
(g72
g58
NtRp3990
(dp3991
g61
(dp3992
sg70
g3716
sg63
(lp3993
g56
(g77
g58
NtRp3994
(dp3995
g61
(dp3996
sg70
g3990
sg63
(lp3997
g56
(g57
g58
NtRp3998
(dp3999
g61
(dp4000
g69
I2
ssg70
g3994
sg63
(lp4001
g56
(g65
g58
NtRp4002
(dp4003
g61
(dp4004
g69
I1
ssg70
Nsg63
(lp4005
g56
(g72
g58
NtRp4006
(dp4007
g61
(dp4008
sg70
g4002
sg63
(lp4009
g56
(g77
g58
NtRp4010
(dp4011
g61
(dp4012
sg70
g4006
sg63
(lp4013
g56
(g57
g58
NtRp4014
(dp4015
g61
(dp4016
g69
I1
ssg70
g4010
sg63
(lp4017
g3607
(S's\n\x00\x00\x00Menu Model'
tRp4018
asbasbasbag56
(g72
g58
NtRp4019
(dp4020
g61
(dp4021
sg70
g4002
sg63
(lp4022
g56
(g77
g58
NtRp4023
(dp4024
g61
(dp4025
sg70
g4019
sg63
(lp4026
g56
(g57
g58
NtRp4027
(dp4028
g61
(dp4029
g69
I1
ssg70
g4023
sg63
(lp4030
I00
asbasbasbag56
(g72
g58
NtRp4031
(dp4032
g61
(dp4033
sg70
g4002
sg63
(lp4034
g56
(g77
g58
NtRp4035
(dp4036
g61
(dp4037
sg70
g4031
sg63
(lp4038
g56
(g57
g58
NtRp4039
(dp4040
g61
(dp4041
g69
I1
ssg70
g4035
sg63
(lp4042
S'/admin/default/edit/datos/models/menu.py'
p4043
asbasbasbasbasbasbasbag56
(g72
g58
NtRp4044
(dp4045
g61
(dp4046
sg70
g3716
sg63
(lp4047
g56
(g77
g58
NtRp4048
(dp4049
g61
(dp4050
sg70
g4044
sg63
(lp4051
g56
(g57
g58
NtRp4052
(dp4053
g61
(dp4054
g69
I2
ssg70
g4048
sg63
(lp4055
g56
(g65
g58
NtRp4056
(dp4057
g61
(dp4058
g69
I1
ssg70
Nsg63
(lp4059
g56
(g72
g58
NtRp4060
(dp4061
g61
(dp4062
sg70
g4056
sg63
(lp4063
g56
(g77
g58
NtRp4064
(dp4065
g61
(dp4066
sg70
g4060
sg63
(lp4067
g56
(g57
g58
NtRp4068
(dp4069
g61
(dp4070
g69
I1
ssg70
g4064
sg63
(lp4071
g3607
(S's\x08\x00\x00\x00Database'
tRp4072
asbasbasbag56
(g72
g58
NtRp4073
(dp4074
g61
(dp4075
sg70
g4056
sg63
(lp4076
g56
(g77
g58
NtRp4077
(dp4078
g61
(dp4079
sg70
g4073
sg63
(lp4080
g56
(g57
g58
NtRp4081
(dp4082
g61
(dp4083
g69
I1
ssg70
g4077
sg63
(lp4084
I00
asbasbasbag56
(g72
g58
NtRp4085
(dp4086
g61
(dp4087
sg70
g4056
sg63
(lp4088
g56
(g77
g58
NtRp4089
(dp4090
g61
(dp4091
sg70
g4085
sg63
(lp4092
g56
(g57
g58
NtRp4093
(dp4094
g61
(dp4095
g69
I1
ssg70
g4089
sg63
(lp4096
S'/datos/appadmin/index'
p4097
asbasbasbasbasbasbasbag56
(g72
g58
NtRp4098
(dp4099
g61
(dp4100
sg70
g3716
sg63
(lp4101
g56
(g77
g58
NtRp4102
(dp4103
g61
(dp4104
sg70
g4098
sg63
(lp4105
g56
(g57
g58
NtRp4106
(dp4107
g61
(dp4108
g69
I2
ssg70
g4102
sg63
(lp4109
g56
(g65
g58
NtRp4110
(dp4111
g61
(dp4112
g69
I1
ssg70
Nsg63
(lp4113
g56
(g72
g58
NtRp4114
(dp4115
g61
(dp4116
sg70
g4110
sg63
(lp4117
g56
(g77
g58
NtRp4118
(dp4119
g61
(dp4120
sg70
g4114
sg63
(lp4121
g56
(g57
g58
NtRp4122
(dp4123
g61
(dp4124
g69
I1
ssg70
g4118
sg63
(lp4125
g3607
(S's\x06\x00\x00\x00Errors'
tRp4126
asbasbasbag56
(g72
g58
NtRp4127
(dp4128
g61
(dp4129
sg70
g4110
sg63
(lp4130
g56
(g77
g58
NtRp4131
(dp4132
g61
(dp4133
sg70
g4127
sg63
(lp4134
g56
(g57
g58
NtRp4135
(dp4136
g61
(dp4137
g69
I1
ssg70
g4131
sg63
(lp4138
I00
asbasbasbag56
(g72
g58
NtRp4139
(dp4140
g61
(dp4141
sg70
g4110
sg63
(lp4142
g56
(g77
g58
NtRp4143
(dp4144
g61
(dp4145
sg70
g4139
sg63
(lp4146
g56
(g57
g58
NtRp4147
(dp4148
g61
(dp4149
g69
I1
ssg70
g4143
sg63
(lp4150
S'/admin/default/errors/datos'
p4151
asbasbasbasbasbasbasbag56
(g72
g58
NtRp4152
(dp4153
g61
(dp4154
sg70
g3716
sg63
(lp4155
g56
(g77
g58
NtRp4156
(dp4157
g61
(dp4158
sg70
g4152
sg63
(lp4159
g56
(g57
g58
NtRp4160
(dp4161
g61
(dp4162
g69
I2
ssg70
g4156
sg63
(lp4163
g56
(g65
g58
NtRp4164
(dp4165
g61
(dp4166
g69
I1
ssg70
Nsg63
(lp4167
g56
(g72
g58
NtRp4168
(dp4169
g61
(dp4170
sg70
g4164
sg63
(lp4171
g56
(g77
g58
NtRp4172
(dp4173
g61
(dp4174
sg70
g4168
sg63
(lp4175
g56
(g57
g58
NtRp4176
(dp4177
g61
(dp4178
g69
I1
ssg70
g4172
sg63
(lp4179
g3607
(S's\x05\x00\x00\x00About'
tRp4180
asbasbasbag56
(g72
g58
NtRp4181
(dp4182
g61
(dp4183
sg70
g4164
sg63
(lp4184
g56
(g77
g58
NtRp4185
(dp4186
g61
(dp4187
sg70
g4181
sg63
(lp4188
g56
(g57
g58
NtRp4189
(dp4190
g61
(dp4191
g69
I1
ssg70
g4185
sg63
(lp4192
I00
asbasbasbag56
(g72
g58
NtRp4193
(dp4194
g61
(dp4195
sg70
g4164
sg63
(lp4196
g56
(g77
g58
NtRp4197
(dp4198
g61
(dp4199
sg70
g4193
sg63
(lp4200
g56
(g57
g58
NtRp4201
(dp4202
g61
(dp4203
g69
I1
ssg70
g4197
sg63
(lp4204
S'/admin/default/about/datos'
p4205
asbasbasbasbasbasbasbasbasbasbasbasbasbasbasbag56
(g72
g58
NtRp4206
(dp4207
g61
(dp4208
sg70
g3575
sg63
(lp4209
g56
(g77
g58
NtRp4210
(dp4211
g61
(dp4212
sg70
g4206
sg63
(lp4213
g56
(g57
g58
NtRp4214
(dp4215
g61
(dp4216
g69
I4
ssg70
g4210
sg63
(lp4217
g56
(g65
g58
NtRp4218
(dp4219
g61
(dp4220
g69
I3
ssg70
Nsg63
(lp4221
g56
(g72
g58
NtRp4222
(dp4223
g61
(dp4224
sg70
g4218
sg63
(lp4225
g56
(g77
g58
NtRp4226
(dp4227
g61
(dp4228
sg70
g4222
sg63
(lp4229
g56
(g57
g58
NtRp4230
(dp4231
g61
(dp4232
g69
I3
ssg70
g4226
sg63
(lp4233
g3607
(S's\t\x00\x00\x00Resources'
tRp4234
asbasbasbag56
(g72
g58
NtRp4235
(dp4236
g61
(dp4237
sg70
g4218
sg63
(lp4238
g56
(g77
g58
NtRp4239
(dp4240
g61
(dp4241
sg70
g4235
sg63
(lp4242
g56
(g57
g58
NtRp4243
(dp4244
g61
(dp4245
g69
I3
ssg70
g4239
sg63
(lp4246
g99
asbasbasbag56
(g72
g58
NtRp4247
(dp4248
g61
(dp4249
sg70
g4218
sg63
(lp4250
g56
(g77
g58
NtRp4251
(dp4252
g61
(dp4253
sg70
g4247
sg63
(lp4254
g56
(g57
g58
NtRp4255
(dp4256
g61
(dp4257
g69
I3
ssg70
g4251
sg63
(lp4258
S'None'
p4259
asbasbasbag56
(g72
g58
NtRp4260
(dp4261
g61
(dp4262
sg70
g4218
sg63
(lp4263
g56
(g77
g58
NtRp4264
(dp4265
g61
(dp4266
sg70
g4260
sg63
(lp4267
g56
(g57
g58
NtRp4268
(dp4269
g61
(dp4270
g69
I3
ssg70
g4264
sg63
(lp4271
g56
(g65
g58
NtRp4272
(dp4273
g61
(dp4274
g69
I2
ssg70
Nsg63
(lp4275
g56
(g72
g58
NtRp4276
(dp4277
g61
(dp4278
sg70
g4272
sg63
(lp4279
g56
(g77
g58
NtRp4280
(dp4281
g61
(dp4282
sg70
g4276
sg63
(lp4283
g56
(g57
g58
NtRp4284
(dp4285
g61
(dp4286
g69
I2
ssg70
g4280
sg63
(lp4287
g56
(g65
g58
NtRp4288
(dp4289
g61
(dp4290
g69
I1
ssg70
Nsg63
(lp4291
g56
(g72
g58
NtRp4292
(dp4293
g61
(dp4294
sg70
g4288
sg63
(lp4295
g56
(g77
g58
NtRp4296
(dp4297
g61
(dp4298
sg70
g4292
sg63
(lp4299
g56
(g57
g58
NtRp4300
(dp4301
g61
(dp4302
g69
I1
ssg70
g4296
sg63
(lp4303
g3607
(S's\r\x00\x00\x00Documentation'
tRp4304
asbasbasbag56
(g72
g58
NtRp4305
(dp4306
g61
(dp4307
sg70
g4288
sg63
(lp4308
g56
(g77
g58
NtRp4309
(dp4310
g61
(dp4311
sg70
g4305
sg63
(lp4312
g56
(g57
g58
NtRp4313
(dp4314
g61
(dp4315
g69
I1
ssg70
g4309
sg63
(lp4316
I00
asbasbasbag56
(g72
g58
NtRp4317
(dp4318
g61
(dp4319
sg70
g4288
sg63
(lp4320
g56
(g77
g58
NtRp4321
(dp4322
g61
(dp4323
sg70
g4317
sg63
(lp4324
g56
(g57
g58
NtRp4325
(dp4326
g61
(dp4327
g69
I1
ssg70
g4321
sg63
(lp4328
S'http://www.web2py.com/book'
p4329
asbasbasbag56
(g72
g58
NtRp4330
(dp4331
g61
(dp4332
sg70
g4288
sg63
(lp4333
g56
(g77
g58
NtRp4334
(dp4335
g61
(dp4336
sg70
g4330
sg63
(lp4337
g56
(g57
g58
NtRp4338
(dp4339
g61
(dp4340
g69
I1
ssg70
g4334
sg63
(lp4341
(lp4342
(g3607
(S's\x07\x00\x00\x00Preface'
tRp4343
I00
S'http://www.web2py.com/book/default/chapter/00'
tp4344
a(g3607
(S's\x0c\x00\x00\x00Introduction'
tRp4345
I00
S'http://www.web2py.com/book/default/chapter/01'
tp4346
a(g3607
(S's\x06\x00\x00\x00Python'
tRp4347
I00
S'http://www.web2py.com/book/default/chapter/02'
tp4348
a(g3607
(S's\x08\x00\x00\x00Overview'
tRp4349
I00
S'http://www.web2py.com/book/default/chapter/03'
tp4350
a(g3607
(S's\x08\x00\x00\x00The Core'
tRp4351
I00
S'http://www.web2py.com/book/default/chapter/04'
tp4352
a(g3607
(S's\t\x00\x00\x00The Views'
tRp4353
I00
S'http://www.web2py.com/book/default/chapter/05'
tp4354
a(g3607
(S's\x08\x00\x00\x00Database'
tRp4355
I00
S'http://www.web2py.com/book/default/chapter/06'
tp4356
a(g3607
(S's\x14\x00\x00\x00Forms and Validators'
tRp4357
I00
S'http://www.web2py.com/book/default/chapter/07'
tp4358
a(g3607
(S's\x0e\x00\x00\x00Access Control'
tRp4359
I00
S'http://www.web2py.com/book/default/chapter/08'
tp4360
a(g3607
(S's\x08\x00\x00\x00Services'
tRp4361
I00
S'http://www.web2py.com/book/default/chapter/09'
tp4362
a(g3607
(S's\x0c\x00\x00\x00Ajax Recipes'
tRp4363
I00
S'http://www.web2py.com/book/default/chapter/10'
tp4364
a(g3607
(S's\x12\x00\x00\x00Deployment Recipes'
tRp4365
I00
S'http://www.web2py.com/book/default/chapter/11'
tp4366
a(g3607
(S's\r\x00\x00\x00Other Recipes'
tRp4367
I00
S'http://www.web2py.com/book/default/chapter/12'
tp4368
a(g3607
(S's\r\x00\x00\x00Buy this book'
tRp4369
I00
S'http://stores.lulu.com/web2py'
tp4370
aasbasbasbasbasbasbasbag56
(g72
g58
NtRp4371
(dp4372
g61
(dp4373
sg70
g4272
sg63
(lp4374
g56
(g77
g58
NtRp4375
(dp4376
g61
(dp4377
sg70
g4371
sg63
(lp4378
g56
(g57
g58
NtRp4379
(dp4380
g61
(dp4381
g69
I2
ssg70
g4375
sg63
(lp4382
g56
(g65
g58
NtRp4383
(dp4384
g61
(dp4385
g69
I1
ssg70
Nsg63
(lp4386
g56
(g72
g58
NtRp4387
(dp4388
g61
(dp4389
sg70
g4383
sg63
(lp4390
g56
(g77
g58
NtRp4391
(dp4392
g61
(dp4393
sg70
g4387
sg63
(lp4394
g56
(g57
g58
NtRp4395
(dp4396
g61
(dp4397
g69
I1
ssg70
g4391
sg63
(lp4398
g3607
(S's\t\x00\x00\x00Community'
tRp4399
asbasbasbag56
(g72
g58
NtRp4400
(dp4401
g61
(dp4402
sg70
g4383
sg63
(lp4403
g56
(g77
g58
NtRp4404
(dp4405
g61
(dp4406
sg70
g4400
sg63
(lp4407
g56
(g57
g58
NtRp4408
(dp4409
g61
(dp4410
g69
I1
ssg70
g4404
sg63
(lp4411
I00
asbasbasbag56
(g72
g58
NtRp4412
(dp4413
g61
(dp4414
sg70
g4383
sg63
(lp4415
g56
(g77
g58
NtRp4416
(dp4417
g61
(dp4418
sg70
g4412
sg63
(lp4419
g56
(g57
g58
NtRp4420
(dp4421
g61
(dp4422
g69
I1
ssg70
g4416
sg63
(lp4423
Nasbasbasbag56
(g72
g58
NtRp4424
(dp4425
g61
(dp4426
sg70
g4383
sg63
(lp4427
g56
(g77
g58
NtRp4428
(dp4429
g61
(dp4430
sg70
g4424
sg63
(lp4431
g56
(g57
g58
NtRp4432
(dp4433
g61
(dp4434
g69
I1
ssg70
g4428
sg63
(lp4435
(lp4436
(g3607
(S's\x06\x00\x00\x00Groups'
tRp4437
I00
S'http://www.web2py.com/examples/default/usergroups'
tp4438
a(g3607
(S's\x07\x00\x00\x00Twitter'
tRp4439
I00
S'http://twitter.com/web2py'
tp4440
a(g3607
(S's\t\x00\x00\x00Live chat'
tRp4441
I00
S'http://mibbit.com/?channel=%23web2py&server=irc.mibbit.net'
tp4442
a(g3607
(S's\n\x00\x00\x00User Voice'
tRp4443
I00
S'http://web2py.uservoice.com/'
tp4444
aasbasbasbasbasbasbasbag56
(g72
g58
NtRp4445
(dp4446
g61
(dp4447
sg70
g4272
sg63
(lp4448
g56
(g77
g58
NtRp4449
(dp4450
g61
(dp4451
sg70
g4445
sg63
(lp4452
g56
(g57
g58
NtRp4453
(dp4454
g61
(dp4455
g69
I2
ssg70
g4449
sg63
(lp4456
g56
(g65
g58
NtRp4457
(dp4458
g61
(dp4459
g69
I1
ssg70
Nsg63
(lp4460
g56
(g72
g58
NtRp4461
(dp4462
g61
(dp4463
sg70
g4457
sg63
(lp4464
g56
(g77
g58
NtRp4465
(dp4466
g61
(dp4467
sg70
g4461
sg63
(lp4468
g56
(g57
g58
NtRp4469
(dp4470
g61
(dp4471
g69
I1
ssg70
g4465
sg63
(lp4472
g3607
(S's\x06\x00\x00\x00Web2py'
tRp4473
asbasbasbag56
(g72
g58
NtRp4474
(dp4475
g61
(dp4476
sg70
g4457
sg63
(lp4477
g56
(g77
g58
NtRp4478
(dp4479
g61
(dp4480
sg70
g4474
sg63
(lp4481
g56
(g57
g58
NtRp4482
(dp4483
g61
(dp4484
g69
I1
ssg70
g4478
sg63
(lp4485
I00
asbasbasbag56
(g72
g58
NtRp4486
(dp4487
g61
(dp4488
sg70
g4457
sg63
(lp4489
g56
(g77
g58
NtRp4490
(dp4491
g61
(dp4492
sg70
g4486
sg63
(lp4493
g56
(g57
g58
NtRp4494
(dp4495
g61
(dp4496
g69
I1
ssg70
g4490
sg63
(lp4497
S'http://www.web2py.com'
p4498
asbasbasbag56
(g72
g58
NtRp4499
(dp4500
g61
(dp4501
sg70
g4457
sg63
(lp4502
g56
(g77
g58
NtRp4503
(dp4504
g61
(dp4505
sg70
g4499
sg63
(lp4506
g56
(g57
g58
NtRp4507
(dp4508
g61
(dp4509
g69
I1
ssg70
g4503
sg63
(lp4510
(lp4511
(g3607
(S's\x08\x00\x00\x00Download'
tRp4512
I00
S'http://www.web2py.com/examples/default/download'
tp4513
a(g3607
(S's\x07\x00\x00\x00Support'
tRp4514
I00
S'http://www.web2py.com/examples/default/support'
tp4515
a(g3607
(S's\x0e\x00\x00\x00Quick Examples'
tRp4516
I00
S'http://web2py.com/examples/default/examples'
tp4517
a(g3607
(S's\x03\x00\x00\x00FAQ'
tRp4518
I00
S'http://web2py.com/AlterEgo'
tp4519
a(g3607
(S's\x11\x00\x00\x00Free Applications'
tRp4520
I00
S'http://web2py.com/appliances'
tp4521
a(g3607
(S's\x07\x00\x00\x00Plugins'
tRp4522
I00
S'http://web2py.com/plugins'
tp4523
a(g3607
(S's\x07\x00\x00\x00Recipes'
tRp4524
I00
S'http://web2pyslices.com/'
tp4525
a(g3607
(S's\x04\x00\x00\x00Demo'
tRp4526
I00
S'http://web2py.com/demo_admin'
tp4527
a(g3607
(S's\x08\x00\x00\x00Semantic'
tRp4528
I00
S'http://web2py.com/semantic'
tp4529
a(g3607
(S's\x07\x00\x00\x00Layouts'
tRp4530
I00
S'http://web2py.com/layouts'
tp4531
a(g3607
(S's\x06\x00\x00\x00Videos'
tRp4532
I00
S'http://www.web2py.com/examples/default/videos/'
tp4533
aasbasbasbasbasbasbasbasbasbasbasbasbasbasbasbasbasbasbasbag56
(g72
g58
NtRp4534
(dp4535
g61
(dp4536
sg70
g3061
sg63
(lp4537
g56
(g77
g58
NtRp4538
(dp4539
g61
(dp4540
g81
g82
ssg70
g4534
sg63
(lp4541
S'meta'
p4542
asbag56
(g77
g58
NtRp4543
(dp4544
g61
(dp4545
g88
g89
ssg70
g4534
sg63
(lp4546
S':'
asbag56
(g77
g58
NtRp4547
(dp4548
g61
(dp4549
sg70
g4534
sg63
(lp4550
g56
(g57
g58
NtRp4551
(dp4552
g61
(dp4553
g69
I5
ssg70
g4547
sg63
(lp4554
g56
(g65
g58
NtRp4555
(dp4556
g61
(dp4557
g69
I4
ssg70
Nsg63
(lp4558
g56
(g72
g58
NtRp4559
(dp4560
g61
(dp4561
sg70
g4555
sg63
(lp4562
g56
(g77
g58
NtRp4563
(dp4564
g61
(dp4565
g81
g82
ssg70
g4559
sg63
(lp4566
S'author'
p4567
asbag56
(g77
g58
NtRp4568
(dp4569
g61
(dp4570
g88
g89
ssg70
g4559
sg63
(lp4571
S':'
asbag56
(g77
g58
NtRp4572
(dp4573
g61
(dp4574
sg70
g4559
sg63
(lp4575
g56
(g57
g58
NtRp4576
(dp4577
g61
(dp4578
g69
I4
ssg70
g4572
sg63
(lp4579
S'you'
p4580
asbasbasbag56
(g72
g58
NtRp4581
(dp4582
g61
(dp4583
sg70
g4555
sg63
(lp4584
g56
(g77
g58
NtRp4585
(dp4586
g61
(dp4587
g81
g82
ssg70
g4581
sg63
(lp4588
S'copyright'
p4589
asbag56
(g77
g58
NtRp4590
(dp4591
g61
(dp4592
g88
g89
ssg70
g4581
sg63
(lp4593
S':'
asbag56
(g77
g58
NtRp4594
(dp4595
g61
(dp4596
sg70
g4581
sg63
(lp4597
g56
(g57
g58
NtRp4598
(dp4599
g61
(dp4600
g69
I4
ssg70
g4594
sg63
(lp4601
S'Copyright 2007-2010'
p4602
asbasbasbag56
(g72
g58
NtRp4603
(dp4604
g61
(dp4605
sg70
g4555
sg63
(lp4606
g56
(g77
g58
NtRp4607
(dp4608
g61
(dp4609
g81
g82
ssg70
g4603
sg63
(lp4610
S'description'
p4611
asbag56
(g77
g58
NtRp4612
(dp4613
g61
(dp4614
g88
g89
ssg70
g4603
sg63
(lp4615
S':'
asbag56
(g77
g58
NtRp4616
(dp4617
g61
(dp4618
sg70
g4603
sg63
(lp4619
g56
(g57
g58
NtRp4620
(dp4621
g61
(dp4622
g69
I4
ssg70
g4616
sg63
(lp4623
S'Free and open source full-stack enterprise framework for agile development of fast, scalable, secure and portable database-driven web-based applications. Written and programmable in Python'
p4624
asbasbasbag56
(g72
g58
NtRp4625
(dp4626
g61
(dp4627
sg70
g4555
sg63
(lp4628
g56
(g77
g58
NtRp4629
(dp4630
g61
(dp4631
g81
g82
ssg70
g4625
sg63
(lp4632
S'generator'
p4633
asbag56
(g77
g58
NtRp4634
(dp4635
g61
(dp4636
g88
g89
ssg70
g4625
sg63
(lp4637
S':'
asbag56
(g77
g58
NtRp4638
(dp4639
g61
(dp4640
sg70
g4625
sg63
(lp4641
g56
(g57
g58
NtRp4642
(dp4643
g61
(dp4644
g69
I4
ssg70
g4638
sg63
(lp4645
S'Web2py Enterprise Framework'
p4646
asbasbasbag56
(g72
g58
NtRp4647
(dp4648
g61
(dp4649
sg70
g4555
sg63
(lp4650
g56
(g77
g58
NtRp4651
(dp4652
g61
(dp4653
g81
g82
ssg70
g4647
sg63
(lp4654
S'keywords'
p4655
asbag56
(g77
g58
NtRp4656
(dp4657
g61
(dp4658
g88
g89
ssg70
g4647
sg63
(lp4659
S':'
asbag56
(g77
g58
NtRp4660
(dp4661
g61
(dp4662
sg70
g4647
sg63
(lp4663
g56
(g57
g58
NtRp4664
(dp4665
g61
(dp4666
g69
I4
ssg70
g4660
sg63
(lp4667
S'web2py, python, framework'
p4668
asbasbasbasbasbasbasbag56
(g72
g58
NtRp4669
(dp4670
g61
(dp4671
sg70
g3061
sg63
(lp4672
g56
(g77
g58
NtRp4673
(dp4674
g61
(dp4675
g81
g82
ssg70
g4669
sg63
(lp4676
S'postprocessing'
p4677
asbag56
(g77
g58
NtRp4678
(dp4679
g61
(dp4680
g88
g89
ssg70
g4669
sg63
(lp4681
S':'
asbag56
(g77
g58
NtRp4682
(dp4683
g61
(dp4684
sg70
g4669
sg63
(lp4685
g56
(g57
g58
NtRp4686
(dp4687
g61
(dp4688
g69
I5
ssg70
g4682
sg63
(lp4689
g56
(g65
g58
NtRp4690
(dp4691
g61
(dp4692
g69
I4
ssg70
Nsg63
(lp4693
sbasbasbasbag56
(g72
g58
NtRp4694
(dp4695
g61
(dp4696
sg70
g3061
sg63
(lp4697
g56
(g77
g58
NtRp4698
(dp4699
g61
(dp4700
g81
g82
ssg70
g4694
sg63
(lp4701
S'session_file'
p4702
asbag56
(g77
g58
NtRp4703
(dp4704
g61
(dp4705
g88
g89
ssg70
g4694
sg63
(lp4706
S':'
asbag56
(g77
g58
NtRp4707
(dp4708
g61
(dp4709
sg70
g4694
sg63
(lp4710
g56
(g57
g58
NtRp4711
(dp4712
g61
(dp4713
g69
I5
ssg70
g4707
sg63
(lp4714
S"<open file '/home/alumno/web2py/applications/datos/sessions/127.0.0.1-46d2cb62-581d-41be-b0c5-47ee0f5ac400', mode 'rb+' at 0x98af180>"
p4715
asbasbasbag56
(g72
g58
NtRp4716
(dp4717
g61
(dp4718
sg70
g3061
sg63
(lp4719
g56
(g77
g58
NtRp4720
(dp4721
g61
(dp4722
g81
g82
ssg70
g4716
sg63
(lp4723
S'session_filename'
p4724
asbag56
(g77
g58
NtRp4725
(dp4726
g61
(dp4727
g88
g89
ssg70
g4716
sg63
(lp4728
S':'
asbag56
(g77
g58
NtRp4729
(dp4730
g61
(dp4731
sg70
g4716
sg63
(lp4732
g56
(g57
g58
NtRp4733
(dp4734
g61
(dp4735
g69
I5
ssg70
g4729
sg63
(lp4736
S'/home/alumno/web2py/applications/datos/sessions/127.0.0.1-46d2cb62-581d-41be-b0c5-47ee0f5ac400'
p4737
asbasbasbag56
(g72
g58
NtRp4738
(dp4739
g61
(dp4740
sg70
g3061
sg63
(lp4741
g56
(g77
g58
NtRp4742
(dp4743
g61
(dp4744
g81
g82
ssg70
g4738
sg63
(lp4745
S'session_id'
p4746
asbag56
(g77
g58
NtRp4747
(dp4748
g61
(dp4749
g88
g89
ssg70
g4738
sg63
(lp4750
S':'
asbag56
(g77
g58
NtRp4751
(dp4752
g61
(dp4753
sg70
g4738
sg63
(lp4754
g56
(g57
g58
NtRp4755
(dp4756
g61
(dp4757
g69
I5
ssg70
g4751
sg63
(lp4758
S'127.0.0.1-46d2cb62-581d-41be-b0c5-47ee0f5ac400'
p4759
asbasbasbag56
(g72
g58
NtRp4760
(dp4761
g61
(dp4762
sg70
g3061
sg63
(lp4763
g56
(g77
g58
NtRp4764
(dp4765
g61
(dp4766
g81
g82
ssg70
g4760
sg63
(lp4767
S'session_id_name'
p4768
asbag56
(g77
g58
NtRp4769
(dp4770
g61
(dp4771
g88
g89
ssg70
g4760
sg63
(lp4772
S':'
asbag56
(g77
g58
NtRp4773
(dp4774
g61
(dp4775
sg70
g4760
sg63
(lp4776
g56
(g57
g58
NtRp4777
(dp4778
g61
(dp4779
g69
I5
ssg70
g4773
sg63
(lp4780
g3118
asbasbasbag56
(g72
g58
NtRp4781
(dp4782
g61
(dp4783
sg70
g3061
sg63
(lp4784
g56
(g77
g58
NtRp4785
(dp4786
g61
(dp4787
g81
g82
ssg70
g4781
sg63
(lp4788
S'session_locked'
p4789
asbag56
(g77
g58
NtRp4790
(dp4791
g61
(dp4792
g88
g89
ssg70
g4781
sg63
(lp4793
S':'
asbag56
(g77
g58
NtRp4794
(dp4795
g61
(dp4796
sg70
g4781
sg63
(lp4797
g56
(g57
g58
NtRp4798
(dp4799
g61
(dp4800
g69
I5
ssg70
g4794
sg63
(lp4801
g1961
asbasbasbag56
(g72
g58
NtRp4802
(dp4803
g61
(dp4804
sg70
g3061
sg63
(lp4805
g56
(g77
g58
NtRp4806
(dp4807
g61
(dp4808
g81
g82
ssg70
g4802
sg63
(lp4809
S'session_new'
p4810
asbag56
(g77
g58
NtRp4811
(dp4812
g61
(dp4813
g88
g89
ssg70
g4802
sg63
(lp4814
S':'
asbag56
(g77
g58
NtRp4815
(dp4816
g61
(dp4817
sg70
g4802
sg63
(lp4818
g56
(g57
g58
NtRp4819
(dp4820
g61
(dp4821
g69
I5
ssg70
g4815
sg63
(lp4822
g99
asbasbasbag56
(g72
g58
NtRp4823
(dp4824
g61
(dp4825
sg70
g3061
sg63
(lp4826
g56
(g77
g58
NtRp4827
(dp4828
g61
(dp4829
g81
g82
ssg70
g4823
sg63
(lp4830
S'status'
p4831
asbag56
(g77
g58
NtRp4832
(dp4833
g61
(dp4834
g88
g89
ssg70
g4823
sg63
(lp4835
S':'
asbag56
(g77
g58
NtRp4836
(dp4837
g61
(dp4838
sg70
g4823
sg63
(lp4839
g56
(g57
g58
NtRp4840
(dp4841
g61
(dp4842
g69
I5
ssg70
g4836
sg63
(lp4843
S'200'
p4844
asbasbasbag56
(g72
g58
NtRp4845
(dp4846
g61
(dp4847
sg70
g3061
sg63
(lp4848
g56
(g77
g58
NtRp4849
(dp4850
g61
(dp4851
g81
g82
ssg70
g4845
sg63
(lp4852
S'subtitle'
p4853
asbag56
(g77
g58
NtRp4854
(dp4855
g61
(dp4856
g88
g89
ssg70
g4845
sg63
(lp4857
S':'
asbag56
(g77
g58
NtRp4858
(dp4859
g61
(dp4860
sg70
g4845
sg63
(lp4861
g56
(g57
g58
NtRp4862
(dp4863
g61
(dp4864
g69
I5
ssg70
g4858
sg63
(lp4865
g3607
(S's\r\x00\x00\x00customize me!'
tRp4866
asbasbasbag56
(g72
g58
NtRp4867
(dp4868
g61
(dp4869
sg70
g3061
sg63
(lp4870
g56
(g77
g58
NtRp4871
(dp4872
g61
(dp4873
g81
g82
ssg70
g4867
sg63
(lp4874
S'title'
p4875
asbag56
(g77
g58
NtRp4876
(dp4877
g61
(dp4878
g88
g89
ssg70
g4867
sg63
(lp4879
S':'
asbag56
(g77
g58
NtRp4880
(dp4881
g61
(dp4882
sg70
g4867
sg63
(lp4883
g56
(g57
g58
NtRp4884
(dp4885
g61
(dp4886
g69
I5
ssg70
g4880
sg63
(lp4887
g121
asbasbasbag56
(g72
g58
NtRp4888
(dp4889
g61
(dp4890
sg70
g3061
sg63
(lp4891
g56
(g77
g58
NtRp4892
(dp4893
g61
(dp4894
g81
g82
ssg70
g4888
sg63
(lp4895
g2285
asbag56
(g77
g58
NtRp4896
(dp4897
g61
(dp4898
g88
g89
ssg70
g4888
sg63
(lp4899
S':'
asbag56
(g77
g58
NtRp4900
(dp4901
g61
(dp4902
sg70
g4888
sg63
(lp4903
g56
(g57
g58
NtRp4904
(dp4905
g61
(dp4906
g69
I5
ssg70
g4900
sg63
(lp4907
g2298
asbasbasbag56
(g72
g58
NtRp4908
(dp4909
g61
(dp4910
sg70
g3061
sg63
(lp4911
g56
(g77
g58
NtRp4912
(dp4913
g61
(dp4914
g81
g82
ssg70
g4908
sg63
(lp4915
S'view'
p4916
asbag56
(g77
g58
NtRp4917
(dp4918
g61
(dp4919
g88
g89
ssg70
g4908
sg63
(lp4920
S':'
asbag56
(g77
g58
NtRp4921
(dp4922
g61
(dp4923
sg70
g4908
sg63
(lp4924
g56
(g57
g58
NtRp4925
(dp4926
g61
(dp4927
g69
I5
ssg70
g4921
sg63
(lp4928
S'default/index.html'
p4929
asbasbasbasbasbsS'locals'
p4930
(dp4931
S'profesores'
p4932
S'<gluon.dal.Rows object>'
p4933
sS'OBJECT'
p4934
S"<class 'gluon.html.OBJECT'>"
p4935
sS'_file'
p4936
S"'/datos/static/js/superfish.js'"
p4937
sS'SQLDB'
p4938
S"<class 'gluon.dal.DAL'>"
p4939
sg3021
S"<Storage {'_formkey[curso/create]': '43deabd9-5b...reate]': '3bd6680e-7dc4-4090-a991-e8234a164e3f'}>"
p4940
sS'LINK'
p4941
S"<class 'gluon.html.LINK'>"
p4942
sS'BR'
p4943
S"<class 'gluon.html.BR'>"
p4944
sS'local_import'
p4945
S'<function <lambda>>'
p4946
sS'OPTGROUP'
p4947
S"<class 'gluon.html.OPTGROUP'>"
p4948
sS'PRE'
p4949
S"<class 'gluon.html.PRE'>"
p4950
sS'IS_INT_IN_RANGE'
p4951
S"<class 'gluon.validators.IS_INT_IN_RANGE'>"
p4952
sS'left_sidebar_enabled'
p4953
g99
sS'IS_LOWER'
p4954
S"<class 'gluon.validators.IS_LOWER'>"
p4955
sS'IS_STRONG'
p4956
S"<class 'gluon.validators.IS_STRONG'>"
p4957
sS'datetime'
p4958
S"<module 'datetime' from '/usr/lib/python2.6/lib-dynload/datetime.so'>"
p4959
sS'cache'
p4960
S'<gluon.cache.Cache object>'
p4961
sS'IS_IN_DB'
p4962
S"<class 'gluon.validators.IS_IN_DB'>"
p4963
sS'TAG'
p4964
S'<gluon.html.__TAG__ object>'
p4965
sS'_k'
p4966
S'5'
sS'SQLField'
p4967
S"<class 'gluon.dal.Field'>"
p4968
sS'BODY'
p4969
S"<class 'gluon.html.BODY'>"
p4970
sS'IS_DATE_IN_RANGE'
p4971
S"<class 'gluon.validators.IS_DATE_IN_RANGE'>"
p4972
sS'TH'
p4973
S"<class 'gluon.html.TH'>"
p4974
sS'URL'
p4975
S'<function URL>'
p4976
sS'__file__'
p4977
S"'/home/alumno/web2py/applications/datos/views/default/index.html'"
p4978
sS'db'
p4979
S"<DAL {'alumno_curso': <Table {'ALL': <gluon.dal....ng_references': {}, '_uri': 'sqlite://datos.db'}>"
p4980
sS'P'
S"<class 'gluon.html.P'>"
p4981
sS'TFOOT'
p4982
S"<class 'gluon.html.TFOOT'>"
p4983
sS'XHTML'
p4984
S"<class 'gluon.html.XHTML'>"
p4985
sg2216
S'datetime.datetime(2011, 9, 10, 18, 57, 0, 978530)'
p4986
sS'ON'
p4987
g1961
sS'OL'
p4988
S"<class 'gluon.html.OL'>"
p4989
sS'TEXTAREA'
p4990
S"<class 'gluon.html.TEXTAREA'>"
p4991
sS'MENU'
p4992
S"<class 'gluon.html.MENU'>"
p4993
sS'_file0'
p4994
S"'/datos/static/js/superfish.js'"
p4995
sS'LOAD'
p4996
S'<gluon.compileapp.LoadFactory object>'
p4997
sS'CODE'
p4998
S"<class 'gluon.html.CODE'>"
p4999
sS'HTTP'
p5000
S"<class 'gluon.http.HTTP'>"
p5001
sS'HR'
p5002
S"<class 'gluon.html.HR'>"
p5003
sS'IS_DATETIME'
p5004
S"<class 'gluon.validators.IS_DATETIME'>"
p5005
sS'HEAD'
p5006
S"<class 'gluon.html.HEAD'>"
p5007
sS'LABEL'
p5008
S"<class 'gluon.html.LABEL'>"
p5009
sS'CLEANUP'
p5010
S"<class 'gluon.validators.CLEANUP'>"
p5011
sS'SELECT'
p5012
S"<class 'gluon.html.SELECT'>"
p5013
sS'CENTER'
p5014
S"<class 'gluon.html.CENTER'>"
p5015
sS'left_sidebar_style'
p5016
S'\'style="display: none;"\''
p5017
sS'alumnos'
p5018
S'<gluon.dal.Rows object>'
p5019
sS'__builtins__'
p5020
S"{'ArithmeticError': <type 'exceptions.ArithmeticError'>, 'AssertionError': <type 'exceptions.AssertionError'>, 'AttributeError': <type 'exceptions.AttributeError'>, 'BaseException': <type 'exceptions.BaseException'>, 'BufferError': <type 'exceptions.BufferError'>, 'BytesWarning': <type 'exceptions.BytesWarning'>, 'DeprecationWarning': <type 'exceptions.DeprecationWarning'>, 'EOFError': <type 'exceptions.EOFError'>, 'Ellipsis': Ellipsis, 'EnvironmentError': <type 'exceptions.EnvironmentError'>, ...}"
p5021
sS'IS_LIST_OF'
p5022
S"<class 'gluon.validators.IS_LIST_OF'>"
p5023
sS'SQLFORM'
p5024
S"<class 'gluon.sqlhtml.SQLFORM'>"
p5025
sS'_item'
p5026
S"'author'"
p5027
sS'EM'
p5028
S"<class 'gluon.html.EM'>"
p5029
sS'redirect'
p5030
S'<function redirect>'
p5031
sS'FIELDSET'
p5032
S"<class 'gluon.html.FIELDSET'>"
p5033
sS'IS_EQUAL_TO'
p5034
S"<class 'gluon.validators.IS_EQUAL_TO'>"
p5035
sS'embed64'
p5036
S'<function embed64>'
p5037
sS'INPUT'
p5038
S"<class 'gluon.html.INPUT'>"
p5039
sS'profesor'
p5040
S"<Row {'update_record': <function <lambda> at 0x9...elete_record': <function <lambda> at 0x994e844>}>"
p5041
sS'FORM'
p5042
S"<class 'gluon.html.FORM'>"
p5043
sS'width_content'
p5044
S"'100%'"
p5045
sS'H2'
p5046
S"<class 'gluon.html.H2'>"
p5047
sS'H3'
p5048
S"<class 'gluon.html.H3'>"
p5049
sS'H1'
p5050
S"<class 'gluon.html.H1'>"
p5051
sS'H6'
p5052
S"<class 'gluon.html.H6'>"
p5053
sS'H4'
p5054
S"<class 'gluon.html.H4'>"
p5055
sS'H5'
p5056
S"<class 'gluon.html.H5'>"
p5057
sS'UL'
p5058
S"<class 'gluon.html.UL'>"
p5059
sS'IS_UPPER'
p5060
S"<class 'gluon.validators.IS_UPPER'>"
p5061
sS'xmlescape'
p5062
S'<function xmlescape>'
p5063
sS'IS_TIME'
p5064
S"<class 'gluon.validators.IS_TIME'>"
p5065
sS'OPTION'
p5066
S"<class 'gluon.html.OPTION'>"
p5067
sS'TITLE'
p5068
S"<class 'gluon.html.TITLE'>"
p5069
sS'CRYPT'
p5070
S"<class 'gluon.validators.CRYPT'>"
p5071
sS'IS_EMPTY_OR'
p5072
S"<class 'gluon.validators.IS_EMPTY_OR'>"
p5073
sS'MARKMIN'
p5074
S"<class 'gluon.html.MARKMIN'>"
p5075
sS'EMBED'
p5076
S"<class 'gluon.html.EMBED'>"
p5077
sS'SCRIPT'
p5078
S"<class 'gluon.html.SCRIPT'>"
p5079
sS'TABLE'
p5080
S"<class 'gluon.html.TABLE'>"
p5081
sS'IS_IPV4'
p5082
S"<class 'gluon.validators.IS_IPV4'>"
p5083
sS'IS_LENGTH'
p5084
S"<class 'gluon.validators.IS_LENGTH'>"
p5085
sS'XML'
p5086
S"<class 'gluon.html.XML'>"
p5087
sS'B'
S"<class 'gluon.html.B'>"
p5088
sS'IMG'
p5089
S"<class 'gluon.html.IMG'>"
p5090
sS'SQLTABLE'
p5091
S"<class 'gluon.sqlhtml.SQLTABLE'>"
p5092
sS'IS_MATCH'
p5093
S"<class 'gluon.validators.IS_MATCH'>"
p5094
sS'IS_ALPHANUMERIC'
p5095
S"<class 'gluon.validators.IS_ALPHANUMERIC'>"
p5096
sS'SPAN'
p5097
S"<class 'gluon.html.SPAN'>"
p5098
sS'IS_SLUG'
p5099
S"<class 'gluon.validators.IS_SLUG'>"
p5100
sS'cursos'
p5101
S'<gluon.dal.Rows object>'
p5102
sS'BEAUTIFY'
p5103
S"<class 'gluon.html.BEAUTIFY'>"
p5104
sS'META'
p5105
S"<class 'gluon.html.META'>"
p5106
sS'IS_DATE'
p5107
S"<class 'gluon.validators.IS_DATE'>"
p5108
sS'IS_EMAIL'
p5109
S"<class 'gluon.validators.IS_EMAIL'>"
p5110
sS'IS_NOT_EMPTY'
p5111
S"<class 'gluon.validators.IS_NOT_EMPTY'>"
p5112
sg55
S"<Storage {'is_local': True, 'function': 'index',....18-57-00.10e12982-db28-4474-a48b-410acd60e9fc'}>"
p5113
sS'TBODY'
p5114
S"<class 'gluon.html.TBODY'>"
p5115
sS'Field'
p5116
S"<class 'gluon.dal.Field'>"
p5117
sS'DIV'
p5118
S"<class 'gluon.html.DIV'>"
p5119
sS'LEGEND'
p5120
S"<class 'gluon.html.LEGEND'>"
p5121
sS'DAL'
p5122
S"<class 'gluon.dal.DAL'>"
p5123
sS'TT'
p5124
S"<class 'gluon.html.TT'>"
p5125
sS'TR'
p5126
S"<class 'gluon.html.TR'>"
p5127
sS'LI'
p5128
S"<class 'gluon.html.LI'>"
p5129
sS'right_sidebar_enabled'
p5130
g99
sS'IFRAME'
p5131
S"<class 'gluon.html.IFRAME'>"
p5132
sS'TD'
p5133
S"<class 'gluon.html.TD'>"
p5134
sS'IS_URL'
p5135
S"<class 'gluon.validators.IS_URL'>"
p5136
sS'A'
S"<class 'gluon.html.A'>"
p5137
sS'STYLE'
p5138
S"<class 'gluon.html.STYLE'>"
p5139
sS'IS_DATETIME_IN_RANGE'
p5140
S"<class 'gluon.validators.IS_DATETIME_IN_RANGE'>"
p5141
sS'HTML'
p5142
S"<class 'gluon.html.HTML'>"
p5143
sS'IS_IMAGE'
p5144
S"<class 'gluon.validators.IS_IMAGE'>"
p5145
sS'I'
S"<class 'gluon.html.I'>"
p5146
sS'right_sidebar_style'
p5147
S'\'style="display: none;"\''
p5148
sS'IS_NOT_IN_DB'
p5149
S"<class 'gluon.validators.IS_NOT_IN_DB'>"
p5150
sg3056
S"<Storage {'body': <cStringIO.StringO object at 0...da> at 0x9959fb4>, 'view': 'default/index.html'}>"
p5151
sS'THEAD'
p5152
S"<class 'gluon.html.THEAD'>"
p5153
sS'IS_NULL_OR'
p5154
S"<class 'gluon.validators.IS_EMPTY_OR'>"
p5155
sS'alumno'
p5156
S"<Row {'alumno_curso': <gluon.dal.Set object at 0...elete_record': <function <lambda> at 0x994e5a4>}>"
p5157
sS'IS_FLOAT_IN_RANGE'
p5158
S"<class 'gluon.validators.IS_FLOAT_IN_RANGE'>"
p5159
sS'IS_EXPR'
p5160
S"<class 'gluon.validators.IS_EXPR'>"
p5161
sS'T'
S'<gluon.languages.translator object>'
p5162
sS'IS_IN_SET'
p5163
S"<class 'gluon.validators.IS_IN_SET'>"
p5164
sS'IS_UPLOAD_FILENAME'
p5165
S"<class 'gluon.validators.IS_UPLOAD_FILENAME'>"
p5166
sS'style_content'
p5167
S'\'style="width: 100%"\''
p5168
sS'IS_DECIMAL_IN_RANGE'
p5169
S"<class 'gluon.validators.IS_DECIMAL_IN_RANGE'>"
p5170
sssS'traceback'
p5171
S'Traceback (most recent call last):\n  File "/home/alumno/web2py/gluon/restricted.py", line 192, in restricted\n    exec ccode in environment\n  File "/home/alumno/web2py/applications/datos/views/default/index.html", line 119, in <module>\nNameError: name \'curso\' is not defined\n'
p5172
s.