(dp1
S'output'
p2
S''
sS'layer'
p3
S'/home/alumno/web2py/applications/datos/views/default/index.html'
p4
sS'code'
p5
S'response.write(\'<!DOCTYPE html>\\n<html lang="\', escape=False)\nresponse.write(T.accepted_language or \'en\')\nresponse.write(\'" class="no-js"><!-- no-js need it for modernzr -->\\n  <head>\\n    \\n    <meta charset="utf-8" />\\t  \\t\\n    <!-- www.phpied.com/conditional-comments-block-downloads/ -->\\n    <!--[if IE]><![endif]-->    \\n    <!-- Always force latest IE rendering engine \\n\\t (even in intranet) & Chrome Frame \\n\\t Remove this if you use the .htaccess -->\\n    <meta http-equiv="X-UA-Compatible" content="IE=edge,chrome=1">\\n    \\n    <title>\', escape=False)\nresponse.write(response.title or request.application)\nresponse.write(\'</title>\\n    \\n    <!-- http://dev.w3.org/html5/markup/meta.name.html -->\\n    <meta name="application-name" content="\', escape=False)\nresponse.write(request.application)\nresponse.write(\'" />\\t\\n    \\n    <!-- Speaking of Google, don\\\'t forget to set your site up: \\n\\t http://google.com/webmasters -->\\n    <meta name="google-site-verification" content="" />\\n    \\n    <!--  Mobile Viewport Fix\\n\\t  j.mp/mobileviewport & davidbcalhoun.com/2010/viewport-metatag \\n\\t  device-width: Occupy full width of the screen in its current orientation\\n\\t  initial-scale = 1.0 retains dimensions instead of zooming out if page height > device height\\n\\t  maximum-scale = 1.0 retains dimensions instead of zooming in if page width < device width\\n      -->\\n    <meta name="viewport" content="width=device-width; initial-scale=1.0; maximum-scale=1.0">\\n    \\n    <!-- Place favicon.ico and apple-touch-icon.png in the root of your domain and delete these references -->\\n    <link rel="shortcut icon" href="\', escape=False)\nresponse.write(URL(\'static\',\'favicon.ico\'))\nresponse.write(\'" type="image/x-icon">\\n    <link rel="apple-touch-icon" href="\', escape=False)\nresponse.write(URL(\'static\',\'favicon.png\'))\nresponse.write(\'">\\n\\n    <!-- For the less-enabled mobile browsers like Opera Mini -->\\n    <link rel="stylesheet" media="handheld" href="\', escape=False)\nresponse.write(URL(\'static\',\'css/handheld.css\'))\nresponse.write(\'">\\n    \\n    <!-- All JavaScript at the bottom, except for Modernizr which enables HTML5 elements & feature detects -->\\n    <script src="\', escape=False)\nresponse.write(URL(\'static\',\'js/modernizr-1.7.min.js\'))\nresponse.write(\'"></script>\\n    \\n    \', escape=False)\n#------  require CSS and JS files for this page (read info in base.css) ------\nresponse.write(\'\\n    \', escape=False)\nresponse.files.append(URL(\'static\',\'css/base.css\'))\nresponse.write(\'\\n    \', escape=False)\nresponse.files.append(URL(\'static\',\'css/superfish.css\'))\nresponse.write(\'\\n    \', escape=False)\nresponse.files.append(URL(\'static\',\'js/superfish.js\'))\nresponse.write(\'\\n    \', escape=False)\n#------ include web2py specific js code (jquery, calendar, form stuff) ------\nresponse.write(\'\\n    \', escape=False)\nresponse.files.insert(0,URL(\'static\',\'js/jquery.js\'))\nresponse.files.insert(1,URL(\'static\',\'css/calendar.css\'))\nresponse.files.insert(2,URL(\'static\',\'js/calendar.js\'))\nfor _item in response.meta or []:\n    response.write(\'\\n     <meta name="\', escape=False)\n    response.write(_item)\n    response.write(\'" content="\', escape=False)\n    response.write(response.meta[_item])\n    response.write(\'" />\', escape=False)\n    pass\nfor _k,_file in enumerate(response.files or []):\n    if _file in response.files[:_k]:\n        continue\n    _file0=_file.lower().split(\'?\')[0]\n    if _file0.endswith(\'.css\'):\n        response.write(\'\\n     <link href="\', escape=False)\n        response.write(_file)\n        response.write(\'" rel="stylesheet" type="text/css" />\', escape=False)\n    elif _file0.endswith(\'.js\'):\n        response.write(\'\\n     <script src="\', escape=False)\n        response.write(_file)\n        response.write(\'" type="text/javascript"></script>\', escape=False)\n        pass\n    pass\nresponse.write(\'\\n    <script type="text/javascript"><!--\\n    // These variables are used by the web2py_ajax_init function in web2py_ajax.js (which is loaded below).\\n    var w2p_ajax_confirm_message = "\', escape=False)\nresponse.write(T(\'Are you sure you want to delete this object?\'))\nresponse.write(\'";\\n    var w2p_ajax_date_format = "\', escape=False)\nresponse.write(T(\'%Y-%m-%d\'))\nresponse.write(\'";\\n    var w2p_ajax_datetime_format = "\', escape=False)\nresponse.write(T(\'%Y-%m-%d %H:%M:%S\'))\nresponse.write(\'";\\n    //--></script>\\n    <script src="\', escape=False)\nresponse.write(URL(\'static\',\'js/web2py_ajax.js\'))\nresponse.write(\'" type="text/javascript"></script>\\n\', escape=False)\nresponse.write(\'\\n\\n    \', escape=False)\n#using sidebars need to know what sidebar you want to use\n#prior of using it, because of static width size of content, you can use\n#left_sidebar, right_sidebar, both or none (False left and right)\nleft_sidebar_enabled = globals().get(\'left_sidebar_enabled\',False)\nright_sidebar_enabled = globals().get(\'right_sidebar_enabled\',False)\nif left_sidebar_enabled and right_sidebar_enabled: width_content=\'63%\'\nelif left_sidebar_enabled != right_sidebar_enabled: width_content=\'740px\'\nelse: width_content=\'100%\'\nif left_sidebar_enabled: left_sidebar_style = \'style="display: block;"\'\nelse: left_sidebar_style = \'style="display: none;"\'\nif right_sidebar_enabled: right_sidebar_style = \'style="display: block;"\'\nelse: right_sidebar_style = \'style="display: none;"\'\nstyle_content = \'style="width: %s"\' % width_content\nresponse.write(\'\\n  </head>\\n  \\n  <!-- paulirish.com/2008/conditional-stylesheets-vs-css-hacks-answer-neither/ -->\\t\\n  <!--[if lt IE 7 ]> <body class="ie6"> <![endif]-->\\n  <!--[if IE 7 ]>    <body class="ie7"> <![endif]-->\\n  <!--[if IE 8 ]>    <body class="ie8"> <![endif]-->\\n  <!--[if IE 9 ]>    <body class="ie9"> <![endif]-->\\n  <!--[if (gt IE 9)|!(IE)]><!--> <body> <!--<![endif]-->\\n    \\n    <div class="flash">\', escape=False)\nresponse.write(response.flash or \'\')\nresponse.write(\'</div> <!-- notification div -->\\n    \\n    <div id="container">\\t      \\t\\t      \\t\\n      \\n      <div id="wrapper">\\t\\t\\n\\t\\n\\t<div id="header"> <!-- header and login nav -->\\n\\t  \', escape=False)\nresponse.write(\' <!-- this is default header -->\\n\\t  \', escape=False)\ntry:\n    response.write(auth.navbar(action=URL(\'default\',\'user\')))\nexcept:pass\nresponse.write(\'\\t\\t          \\n\\t  <h1><span id="appname">\', escape=False)\nresponse.write(request.application.capitalize())\nresponse.write(\'</span>App</h1>\\n\\t  <div style="clear: both;"></div><!-- Clear the divs -->\\n\\t  \', escape=False)\nresponse.write(\'\\t\\t\\t\\t  \\t\\t\\t\\t\\t  \\n\\t</div><!-- header  -->\\n\\t\\n\\t<div id="statusbar"><!-- statusbar is menu zone -->\\n\\t  \', escape=False)\nresponse.write(\' <!-- this is default statusbar -->\\n\\t  \', escape=False)\n#------ superfish menu ------\nresponse.write(\'\\n\\t  \', escape=False)\nresponse.write(MENU(response.menu,_class=\'sf-menu\'))\nresponse.write(\'\\n\\t  <script type="text/javascript">\\n\\t    jQuery(document).ready(function(){\\n\\t    jQuery(\\\'ul.sf-menu\\\').superfish();});\\n\\t  </script>\\n\\t  <div style="clear: both;"></div><!-- Clear the divs -->\\t\\n\\t  \', escape=False)\nresponse.write(\'\\t\\t\\t\\t\\n\\t</div><!-- statusbar -->\\n\\t\\n\\t<div id="page"> <!-- Here my central body -->\\t  \\n\\n\\t  \', escape=False)\nif left_sidebar_enabled:\n    response.write(\'\\n          <div id="left_sidebar" \', escape=False)\n    response.write(XML(left_sidebar_style))\n    response.write(\' >\\n            <div style="padding: 4px;">\\n\\t      \', escape=False)\n    response.write(\'Content Left Sidebar\', escape=False)\n    response.write(\'\\t\\t  \\n            </div>\\n          </div><!-- left_sidebar -->\\n\\t  \', escape=False)\n    pass\nresponse.write(\'\\n\\n\\t  <!-- content -->\\n\\t  <div id="content" \', escape=False)\nresponse.write(XML(style_content))\nresponse.write(\' >\\n\\t    \', escape=False)\nresponse.write(\'\\n<h1>Alumnos</h1>\\n<p>este es el registro de alumnos en el sistema\\n\\n\', escape=False)\nfor alumnos in alumno:\n    response.write(\'\\n<ul>\\n    <li><em>\', escape=False)\n    response.write(alumno.nombre)\n    response.write(\'</em> <strong>\', escape=False)\n    response.write(alumno.apellidos)\n    response.write(\'</strong></li>\\n</ul>    \\n\', escape=False)\n    pass\nresponse.write(\'\\n\\n</p>\\n\', escape=False)\nresponse.write(\'\\t\\n\\t  </div>\\n\\t  <!-- content -->\\n\\n\\t  \', escape=False)\nif right_sidebar_enabled:\n    response.write(\'\\n          <div id="right_sidebar" \', escape=False)\n    response.write(XML(right_sidebar_style))\n    response.write(\' >\\n            <div style="padding: 4px;">\\n              \', escape=False)\n    response.write(\'Content Right Sidebar\', escape=False)\n    response.write(\'\\n            </div>\\n\\t  </div><!-- right_sidebar -->\\n          \', escape=False)\n    pass\nresponse.write(\'\\n\\n\\n\\t  <div style="clear: both;"></div><!-- Clear the divs -->\\n\\t  \\n\\t</div><!-- page -->\\t\\t\\t\\t\\t\\t\\t\\n\\t\\n\\t<div id="footer">\\n\\t  \', escape=False)\nresponse.write(\' <!-- this is default footer -->\\n\\t  <a href="http://www.web2py.com/" style="float: left; padding-right: 6px;">\\n\\t    <img src="\', escape=False)\nresponse.write(URL(\'static\',\'images/poweredby.png\'))\nresponse.write(\'"/>\\n\\t  </a>\\n\\t  \', escape=False)\nresponse.write(T(\'Copyright\'))\nresponse.write(\' &#169; 2010\\t\\t\\t\\t\\n\\t  <div style="clear: both;"></div><!-- Clear the divs -->\\n\\t  \', escape=False)\nresponse.write(\'\\n\\n\\t</div><!-- footer -->\\t\\t\\t\\n      </div><!-- wrapper -->\\n    </div><!-- container -->\\t\\t\\n    \\n    <!--[if lt IE 7 ]>\\n\\t<script src="\', escape=False)\nresponse.write(URL(\'static\',\'js/dd_belatedpng.js\'))\nresponse.write(\'"></script>\\n\\t<script> DD_belatedPNG.fix(\\\'img, .png_bg\\\'); //fix any <img> or .png_bg background-images </script>\\n\\t<![endif]-->\\n    \\n    <!-- asynchronous google analytics: mathiasbynens.be/notes/async-analytics-snippet \\n\\t change the UA-XXXXX-X to be your site\\\'s ID -->\\n    <!--   \\n\\t   <script>\\n\\t     var _gaq = [[\\\'_setAccount\\\', \\\'UA-XXXXX-X\\\'], [\\\'_trackPageview\\\']];\\n\\t     (function(d, t) {\\n\\t     var g = d.createElement(t),\\n\\t     s = d.getElementsByTagName(t)[0];\\n\\t     g.async = true;\\n\\t     g.src = \\\'//www.google-analytics.com/ga.js\\\';\\n\\t     s.parentNode.insertBefore(g, s);\\n\\t     })(document, \\\'script\\\');\\n\\t   </script>\\n\\t   -->    \\n  </body>\\n</html>\\n\', escape=False)'
p6
sS'snapshot'
p7
(dp8
S'exception'
p9
(dp10
S'__hash__'
p11
S"<method-wrapper '__hash__' of exceptions.NameError object>"
p12
sS'__setattr__'
p13
S"<method-wrapper '__setattr__' of exceptions.NameError object>"
p14
sS'__reduce_ex__'
p15
S'<built-in method __reduce_ex__ of exceptions.NameError object>'
p16
sS'__getslice__'
p17
S"<method-wrapper '__getslice__' of exceptions.NameError object>"
p18
sS'__getitem__'
p19
S"<method-wrapper '__getitem__' of exceptions.NameError object>"
p20
sS'__setstate__'
p21
S'<built-in method __setstate__ of exceptions.NameError object>'
p22
sS'__reduce__'
p23
S'<built-in method __reduce__ of exceptions.NameError object>'
p24
sS'__str__'
p25
S"<method-wrapper '__str__' of exceptions.NameError object>"
p26
sS'__format__'
p27
S'<built-in method __format__ of exceptions.NameError object>'
p28
sS'__getattribute__'
p29
S"<method-wrapper '__getattribute__' of exceptions.NameError object>"
p30
sS'__class__'
p31
S"<type 'exceptions.NameError'>"
p32
sS'__unicode__'
p33
S'<built-in method __unicode__ of exceptions.NameError object>'
p34
sS'__delattr__'
p35
S"<method-wrapper '__delattr__' of exceptions.NameError object>"
p36
sS'__subclasshook__'
p37
S'<built-in method __subclasshook__ of type object>'
p38
sS'__repr__'
p39
S"<method-wrapper '__repr__' of exceptions.NameError object>"
p40
sS'args'
p41
S'("name \'alumno\' is not defined",)'
p42
sS'__dict__'
p43
S'{}'
p44
sS'__sizeof__'
p45
S'<built-in method __sizeof__ of exceptions.NameError object>'
p46
sS'__doc__'
p47
S"'Name not found globally.'"
p48
sS'__init__'
p49
S"<method-wrapper '__init__' of exceptions.NameError object>"
p50
sS'__new__'
p51
S'<built-in method __new__ of type object>'
p52
ssS'evalue'
p53
S"name 'alumno' is not defined"
p54
sS'request'
p55
ccopy_reg
_reconstructor
p56
(cgluon.html
BEAUTIFY
p57
c__builtin__
object
p58
NtRp59
(dp60
S'attributes'
p61
(dp62
sS'components'
p63
(lp64
g56
(cgluon.html
TABLE
p65
g58
NtRp66
(dp67
g61
(dp68
S'level'
p69
I5
ssS'parent'
p70
Nsg63
(lp71
g56
(cgluon.html
TR
p72
g58
NtRp73
(dp74
g61
(dp75
sg70
g66
sg63
(lp76
g56
(cgluon.html
TD
p77
g58
NtRp78
(dp79
g61
(dp80
S'_style'
p81
S'font-weight:bold;'
p82
ssg70
g73
sg63
(lp83
S'ajax'
p84
asbag56
(g77
g58
NtRp85
(dp86
g61
(dp87
S'_valign'
p88
S'top'
p89
ssg70
g73
sg63
(lp90
S':'
asbag56
(g77
g58
NtRp91
(dp92
g61
(dp93
sg70
g73
sg63
(lp94
g56
(g57
g58
NtRp95
(dp96
g61
(dp97
g69
I5
ssg70
g91
sg63
(lp98
S'False'
p99
asbasbasbag56
(g72
g58
NtRp100
(dp101
g61
(dp102
sg70
g66
sg63
(lp103
g56
(g77
g58
NtRp104
(dp105
g61
(dp106
g81
g82
ssg70
g100
sg63
(lp107
S'application'
p108
asbag56
(g77
g58
NtRp109
(dp110
g61
(dp111
g88
g89
ssg70
g100
sg63
(lp112
S':'
asbag56
(g77
g58
NtRp113
(dp114
g61
(dp115
sg70
g100
sg63
(lp116
g56
(g57
g58
NtRp117
(dp118
g61
(dp119
g69
I5
ssg70
g113
sg63
(lp120
S'datos'
p121
asbasbasbag56
(g72
g58
NtRp122
(dp123
g61
(dp124
sg70
g66
sg63
(lp125
g56
(g77
g58
NtRp126
(dp127
g61
(dp128
g81
g82
ssg70
g122
sg63
(lp129
g41
asbag56
(g77
g58
NtRp130
(dp131
g61
(dp132
g88
g89
ssg70
g122
sg63
(lp133
S':'
asbag56
(g77
g58
NtRp134
(dp135
g61
(dp136
sg70
g122
sg63
(lp137
g56
(g57
g58
NtRp138
(dp139
g61
(dp140
g69
I5
ssg70
g134
sg63
(lp141
g56
(g65
g58
NtRp142
(dp143
g61
(dp144
g69
I4
ssg70
Nsg63
(lp145
sbasbasbasbag56
(g72
g58
NtRp146
(dp147
g61
(dp148
sg70
g66
sg63
(lp149
g56
(g77
g58
NtRp150
(dp151
g61
(dp152
g81
g82
ssg70
g146
sg63
(lp153
S'body'
p154
asbag56
(g77
g58
NtRp155
(dp156
g61
(dp157
g88
g89
ssg70
g146
sg63
(lp158
S':'
asbag56
(g77
g58
NtRp159
(dp160
g61
(dp161
sg70
g146
sg63
(lp162
g56
(g57
g58
NtRp163
(dp164
g61
(dp165
g69
I5
ssg70
g159
sg63
(lp166
S'<cStringIO.StringO object at 0xa4c69a0>'
p167
asbasbasbag56
(g72
g58
NtRp168
(dp169
g61
(dp170
sg70
g66
sg63
(lp171
g56
(g77
g58
NtRp172
(dp173
g61
(dp174
g81
g82
ssg70
g168
sg63
(lp175
S'client'
p176
asbag56
(g77
g58
NtRp177
(dp178
g61
(dp179
g88
g89
ssg70
g168
sg63
(lp180
S':'
asbag56
(g77
g58
NtRp181
(dp182
g61
(dp183
sg70
g168
sg63
(lp184
g56
(g57
g58
NtRp185
(dp186
g61
(dp187
g69
I5
ssg70
g181
sg63
(lp188
S'127.0.0.1'
p189
asbasbasbag56
(g72
g58
NtRp190
(dp191
g61
(dp192
sg70
g66
sg63
(lp193
g56
(g77
g58
NtRp194
(dp195
g61
(dp196
g81
g82
ssg70
g190
sg63
(lp197
S'controller'
p198
asbag56
(g77
g58
NtRp199
(dp200
g61
(dp201
g88
g89
ssg70
g190
sg63
(lp202
S':'
asbag56
(g77
g58
NtRp203
(dp204
g61
(dp205
sg70
g190
sg63
(lp206
g56
(g57
g58
NtRp207
(dp208
g61
(dp209
g69
I5
ssg70
g203
sg63
(lp210
S'default'
p211
asbasbasbag56
(g72
g58
NtRp212
(dp213
g61
(dp214
sg70
g66
sg63
(lp215
g56
(g77
g58
NtRp216
(dp217
g61
(dp218
g81
g82
ssg70
g212
sg63
(lp219
S'cookies'
p220
asbag56
(g77
g58
NtRp221
(dp222
g61
(dp223
g88
g89
ssg70
g212
sg63
(lp224
S':'
asbag56
(g77
g58
NtRp225
(dp226
g61
(dp227
sg70
g212
sg63
(lp228
g56
(g57
g58
NtRp229
(dp230
g61
(dp231
g69
I5
ssg70
g225
sg63
(lp232
g56
(g65
g58
NtRp233
(dp234
g61
(dp235
g69
I4
ssg70
Nsg63
(lp236
g56
(g72
g58
NtRp237
(dp238
g61
(dp239
sg70
g233
sg63
(lp240
g56
(g77
g58
NtRp241
(dp242
g61
(dp243
g81
g82
ssg70
g237
sg63
(lp244
S'session_id_about_me'
p245
asbag56
(g77
g58
NtRp246
(dp247
g61
(dp248
g88
g89
ssg70
g237
sg63
(lp249
S':'
asbag56
(g77
g58
NtRp250
(dp251
g61
(dp252
sg70
g237
sg63
(lp253
g56
(g57
g58
NtRp254
(dp255
g61
(dp256
g69
I4
ssg70
g250
sg63
(lp257
g56
(g65
g58
NtRp258
(dp259
g61
(dp260
g69
I3
ssg70
Nsg63
(lp261
g56
(g72
g58
NtRp262
(dp263
g61
(dp264
sg70
g258
sg63
(lp265
g56
(g77
g58
NtRp266
(dp267
g61
(dp268
g81
g82
ssg70
g262
sg63
(lp269
S'comment'
p270
asbag56
(g77
g58
NtRp271
(dp272
g61
(dp273
g88
g89
ssg70
g262
sg63
(lp274
S':'
asbag56
(g77
g58
NtRp275
(dp276
g61
(dp277
sg70
g262
sg63
(lp278
g56
(g57
g58
NtRp279
(dp280
g61
(dp281
g69
I3
ssg70
g275
sg63
(lp282
S''
asbasbasbag56
(g72
g58
NtRp283
(dp284
g61
(dp285
sg70
g258
sg63
(lp286
g56
(g77
g58
NtRp287
(dp288
g61
(dp289
g81
g82
ssg70
g283
sg63
(lp290
S'domain'
p291
asbag56
(g77
g58
NtRp292
(dp293
g61
(dp294
g88
g89
ssg70
g283
sg63
(lp295
S':'
asbag56
(g77
g58
NtRp296
(dp297
g61
(dp298
sg70
g283
sg63
(lp299
g56
(g57
g58
NtRp300
(dp301
g61
(dp302
g69
I3
ssg70
g296
sg63
(lp303
S''
asbasbasbag56
(g72
g58
NtRp304
(dp305
g61
(dp306
sg70
g258
sg63
(lp307
g56
(g77
g58
NtRp308
(dp309
g61
(dp310
g81
g82
ssg70
g304
sg63
(lp311
S'expires'
p312
asbag56
(g77
g58
NtRp313
(dp314
g61
(dp315
g88
g89
ssg70
g304
sg63
(lp316
S':'
asbag56
(g77
g58
NtRp317
(dp318
g61
(dp319
sg70
g304
sg63
(lp320
g56
(g57
g58
NtRp321
(dp322
g61
(dp323
g69
I3
ssg70
g317
sg63
(lp324
S''
asbasbasbag56
(g72
g58
NtRp325
(dp326
g61
(dp327
sg70
g258
sg63
(lp328
g56
(g77
g58
NtRp329
(dp330
g61
(dp331
g81
g82
ssg70
g325
sg63
(lp332
S'httponly'
p333
asbag56
(g77
g58
NtRp334
(dp335
g61
(dp336
g88
g89
ssg70
g325
sg63
(lp337
S':'
asbag56
(g77
g58
NtRp338
(dp339
g61
(dp340
sg70
g325
sg63
(lp341
g56
(g57
g58
NtRp342
(dp343
g61
(dp344
g69
I3
ssg70
g338
sg63
(lp345
S''
asbasbasbag56
(g72
g58
NtRp346
(dp347
g61
(dp348
sg70
g258
sg63
(lp349
g56
(g77
g58
NtRp350
(dp351
g61
(dp352
g81
g82
ssg70
g346
sg63
(lp353
S'max-age'
p354
asbag56
(g77
g58
NtRp355
(dp356
g61
(dp357
g88
g89
ssg70
g346
sg63
(lp358
S':'
asbag56
(g77
g58
NtRp359
(dp360
g61
(dp361
sg70
g346
sg63
(lp362
g56
(g57
g58
NtRp363
(dp364
g61
(dp365
g69
I3
ssg70
g359
sg63
(lp366
S''
asbasbasbag56
(g72
g58
NtRp367
(dp368
g61
(dp369
sg70
g258
sg63
(lp370
g56
(g77
g58
NtRp371
(dp372
g61
(dp373
g81
g82
ssg70
g367
sg63
(lp374
S'path'
p375
asbag56
(g77
g58
NtRp376
(dp377
g61
(dp378
g88
g89
ssg70
g367
sg63
(lp379
S':'
asbag56
(g77
g58
NtRp380
(dp381
g61
(dp382
sg70
g367
sg63
(lp383
g56
(g57
g58
NtRp384
(dp385
g61
(dp386
g69
I3
ssg70
g380
sg63
(lp387
S''
asbasbasbag56
(g72
g58
NtRp388
(dp389
g61
(dp390
sg70
g258
sg63
(lp391
g56
(g77
g58
NtRp392
(dp393
g61
(dp394
g81
g82
ssg70
g388
sg63
(lp395
S'secure'
p396
asbag56
(g77
g58
NtRp397
(dp398
g61
(dp399
g88
g89
ssg70
g388
sg63
(lp400
S':'
asbag56
(g77
g58
NtRp401
(dp402
g61
(dp403
sg70
g388
sg63
(lp404
g56
(g57
g58
NtRp405
(dp406
g61
(dp407
g69
I3
ssg70
g401
sg63
(lp408
S''
asbasbasbag56
(g72
g58
NtRp409
(dp410
g61
(dp411
sg70
g258
sg63
(lp412
g56
(g77
g58
NtRp413
(dp414
g61
(dp415
g81
g82
ssg70
g409
sg63
(lp416
S'version'
p417
asbag56
(g77
g58
NtRp418
(dp419
g61
(dp420
g88
g89
ssg70
g409
sg63
(lp421
S':'
asbag56
(g77
g58
NtRp422
(dp423
g61
(dp424
sg70
g409
sg63
(lp425
g56
(g57
g58
NtRp426
(dp427
g61
(dp428
g69
I3
ssg70
g422
sg63
(lp429
S''
asbasbasbasbasbasbasbag56
(g72
g58
NtRp430
(dp431
g61
(dp432
sg70
g233
sg63
(lp433
g56
(g77
g58
NtRp434
(dp435
g61
(dp436
g81
g82
ssg70
g430
sg63
(lp437
S'session_id_admin'
p438
asbag56
(g77
g58
NtRp439
(dp440
g61
(dp441
g88
g89
ssg70
g430
sg63
(lp442
S':'
asbag56
(g77
g58
NtRp443
(dp444
g61
(dp445
sg70
g430
sg63
(lp446
g56
(g57
g58
NtRp447
(dp448
g61
(dp449
g69
I4
ssg70
g443
sg63
(lp450
g56
(g65
g58
NtRp451
(dp452
g61
(dp453
g69
I3
ssg70
Nsg63
(lp454
g56
(g72
g58
NtRp455
(dp456
g61
(dp457
sg70
g451
sg63
(lp458
g56
(g77
g58
NtRp459
(dp460
g61
(dp461
g81
g82
ssg70
g455
sg63
(lp462
g270
asbag56
(g77
g58
NtRp463
(dp464
g61
(dp465
g88
g89
ssg70
g455
sg63
(lp466
S':'
asbag56
(g77
g58
NtRp467
(dp468
g61
(dp469
sg70
g455
sg63
(lp470
g56
(g57
g58
NtRp471
(dp472
g61
(dp473
g69
I3
ssg70
g467
sg63
(lp474
S''
asbasbasbag56
(g72
g58
NtRp475
(dp476
g61
(dp477
sg70
g451
sg63
(lp478
g56
(g77
g58
NtRp479
(dp480
g61
(dp481
g81
g82
ssg70
g475
sg63
(lp482
g291
asbag56
(g77
g58
NtRp483
(dp484
g61
(dp485
g88
g89
ssg70
g475
sg63
(lp486
S':'
asbag56
(g77
g58
NtRp487
(dp488
g61
(dp489
sg70
g475
sg63
(lp490
g56
(g57
g58
NtRp491
(dp492
g61
(dp493
g69
I3
ssg70
g487
sg63
(lp494
S''
asbasbasbag56
(g72
g58
NtRp495
(dp496
g61
(dp497
sg70
g451
sg63
(lp498
g56
(g77
g58
NtRp499
(dp500
g61
(dp501
g81
g82
ssg70
g495
sg63
(lp502
g312
asbag56
(g77
g58
NtRp503
(dp504
g61
(dp505
g88
g89
ssg70
g495
sg63
(lp506
S':'
asbag56
(g77
g58
NtRp507
(dp508
g61
(dp509
sg70
g495
sg63
(lp510
g56
(g57
g58
NtRp511
(dp512
g61
(dp513
g69
I3
ssg70
g507
sg63
(lp514
S''
asbasbasbag56
(g72
g58
NtRp515
(dp516
g61
(dp517
sg70
g451
sg63
(lp518
g56
(g77
g58
NtRp519
(dp520
g61
(dp521
g81
g82
ssg70
g515
sg63
(lp522
g333
asbag56
(g77
g58
NtRp523
(dp524
g61
(dp525
g88
g89
ssg70
g515
sg63
(lp526
S':'
asbag56
(g77
g58
NtRp527
(dp528
g61
(dp529
sg70
g515
sg63
(lp530
g56
(g57
g58
NtRp531
(dp532
g61
(dp533
g69
I3
ssg70
g527
sg63
(lp534
S''
asbasbasbag56
(g72
g58
NtRp535
(dp536
g61
(dp537
sg70
g451
sg63
(lp538
g56
(g77
g58
NtRp539
(dp540
g61
(dp541
g81
g82
ssg70
g535
sg63
(lp542
g354
asbag56
(g77
g58
NtRp543
(dp544
g61
(dp545
g88
g89
ssg70
g535
sg63
(lp546
S':'
asbag56
(g77
g58
NtRp547
(dp548
g61
(dp549
sg70
g535
sg63
(lp550
g56
(g57
g58
NtRp551
(dp552
g61
(dp553
g69
I3
ssg70
g547
sg63
(lp554
S''
asbasbasbag56
(g72
g58
NtRp555
(dp556
g61
(dp557
sg70
g451
sg63
(lp558
g56
(g77
g58
NtRp559
(dp560
g61
(dp561
g81
g82
ssg70
g555
sg63
(lp562
g375
asbag56
(g77
g58
NtRp563
(dp564
g61
(dp565
g88
g89
ssg70
g555
sg63
(lp566
S':'
asbag56
(g77
g58
NtRp567
(dp568
g61
(dp569
sg70
g555
sg63
(lp570
g56
(g57
g58
NtRp571
(dp572
g61
(dp573
g69
I3
ssg70
g567
sg63
(lp574
S''
asbasbasbag56
(g72
g58
NtRp575
(dp576
g61
(dp577
sg70
g451
sg63
(lp578
g56
(g77
g58
NtRp579
(dp580
g61
(dp581
g81
g82
ssg70
g575
sg63
(lp582
g396
asbag56
(g77
g58
NtRp583
(dp584
g61
(dp585
g88
g89
ssg70
g575
sg63
(lp586
S':'
asbag56
(g77
g58
NtRp587
(dp588
g61
(dp589
sg70
g575
sg63
(lp590
g56
(g57
g58
NtRp591
(dp592
g61
(dp593
g69
I3
ssg70
g587
sg63
(lp594
S''
asbasbasbag56
(g72
g58
NtRp595
(dp596
g61
(dp597
sg70
g451
sg63
(lp598
g56
(g77
g58
NtRp599
(dp600
g61
(dp601
g81
g82
ssg70
g595
sg63
(lp602
g417
asbag56
(g77
g58
NtRp603
(dp604
g61
(dp605
g88
g89
ssg70
g595
sg63
(lp606
S':'
asbag56
(g77
g58
NtRp607
(dp608
g61
(dp609
sg70
g595
sg63
(lp610
g56
(g57
g58
NtRp611
(dp612
g61
(dp613
g69
I3
ssg70
g607
sg63
(lp614
S''
asbasbasbasbasbasbasbag56
(g72
g58
NtRp615
(dp616
g61
(dp617
sg70
g233
sg63
(lp618
g56
(g77
g58
NtRp619
(dp620
g61
(dp621
g81
g82
ssg70
g615
sg63
(lp622
S'session_id_datos'
p623
asbag56
(g77
g58
NtRp624
(dp625
g61
(dp626
g88
g89
ssg70
g615
sg63
(lp627
S':'
asbag56
(g77
g58
NtRp628
(dp629
g61
(dp630
sg70
g615
sg63
(lp631
g56
(g57
g58
NtRp632
(dp633
g61
(dp634
g69
I4
ssg70
g628
sg63
(lp635
g56
(g65
g58
NtRp636
(dp637
g61
(dp638
g69
I3
ssg70
Nsg63
(lp639
g56
(g72
g58
NtRp640
(dp641
g61
(dp642
sg70
g636
sg63
(lp643
g56
(g77
g58
NtRp644
(dp645
g61
(dp646
g81
g82
ssg70
g640
sg63
(lp647
g270
asbag56
(g77
g58
NtRp648
(dp649
g61
(dp650
g88
g89
ssg70
g640
sg63
(lp651
S':'
asbag56
(g77
g58
NtRp652
(dp653
g61
(dp654
sg70
g640
sg63
(lp655
g56
(g57
g58
NtRp656
(dp657
g61
(dp658
g69
I3
ssg70
g652
sg63
(lp659
S''
asbasbasbag56
(g72
g58
NtRp660
(dp661
g61
(dp662
sg70
g636
sg63
(lp663
g56
(g77
g58
NtRp664
(dp665
g61
(dp666
g81
g82
ssg70
g660
sg63
(lp667
g291
asbag56
(g77
g58
NtRp668
(dp669
g61
(dp670
g88
g89
ssg70
g660
sg63
(lp671
S':'
asbag56
(g77
g58
NtRp672
(dp673
g61
(dp674
sg70
g660
sg63
(lp675
g56
(g57
g58
NtRp676
(dp677
g61
(dp678
g69
I3
ssg70
g672
sg63
(lp679
S''
asbasbasbag56
(g72
g58
NtRp680
(dp681
g61
(dp682
sg70
g636
sg63
(lp683
g56
(g77
g58
NtRp684
(dp685
g61
(dp686
g81
g82
ssg70
g680
sg63
(lp687
g312
asbag56
(g77
g58
NtRp688
(dp689
g61
(dp690
g88
g89
ssg70
g680
sg63
(lp691
S':'
asbag56
(g77
g58
NtRp692
(dp693
g61
(dp694
sg70
g680
sg63
(lp695
g56
(g57
g58
NtRp696
(dp697
g61
(dp698
g69
I3
ssg70
g692
sg63
(lp699
S''
asbasbasbag56
(g72
g58
NtRp700
(dp701
g61
(dp702
sg70
g636
sg63
(lp703
g56
(g77
g58
NtRp704
(dp705
g61
(dp706
g81
g82
ssg70
g700
sg63
(lp707
g333
asbag56
(g77
g58
NtRp708
(dp709
g61
(dp710
g88
g89
ssg70
g700
sg63
(lp711
S':'
asbag56
(g77
g58
NtRp712
(dp713
g61
(dp714
sg70
g700
sg63
(lp715
g56
(g57
g58
NtRp716
(dp717
g61
(dp718
g69
I3
ssg70
g712
sg63
(lp719
S''
asbasbasbag56
(g72
g58
NtRp720
(dp721
g61
(dp722
sg70
g636
sg63
(lp723
g56
(g77
g58
NtRp724
(dp725
g61
(dp726
g81
g82
ssg70
g720
sg63
(lp727
g354
asbag56
(g77
g58
NtRp728
(dp729
g61
(dp730
g88
g89
ssg70
g720
sg63
(lp731
S':'
asbag56
(g77
g58
NtRp732
(dp733
g61
(dp734
sg70
g720
sg63
(lp735
g56
(g57
g58
NtRp736
(dp737
g61
(dp738
g69
I3
ssg70
g732
sg63
(lp739
S''
asbasbasbag56
(g72
g58
NtRp740
(dp741
g61
(dp742
sg70
g636
sg63
(lp743
g56
(g77
g58
NtRp744
(dp745
g61
(dp746
g81
g82
ssg70
g740
sg63
(lp747
g375
asbag56
(g77
g58
NtRp748
(dp749
g61
(dp750
g88
g89
ssg70
g740
sg63
(lp751
S':'
asbag56
(g77
g58
NtRp752
(dp753
g61
(dp754
sg70
g740
sg63
(lp755
g56
(g57
g58
NtRp756
(dp757
g61
(dp758
g69
I3
ssg70
g752
sg63
(lp759
S''
asbasbasbag56
(g72
g58
NtRp760
(dp761
g61
(dp762
sg70
g636
sg63
(lp763
g56
(g77
g58
NtRp764
(dp765
g61
(dp766
g81
g82
ssg70
g760
sg63
(lp767
g396
asbag56
(g77
g58
NtRp768
(dp769
g61
(dp770
g88
g89
ssg70
g760
sg63
(lp771
S':'
asbag56
(g77
g58
NtRp772
(dp773
g61
(dp774
sg70
g760
sg63
(lp775
g56
(g57
g58
NtRp776
(dp777
g61
(dp778
g69
I3
ssg70
g772
sg63
(lp779
S''
asbasbasbag56
(g72
g58
NtRp780
(dp781
g61
(dp782
sg70
g636
sg63
(lp783
g56
(g77
g58
NtRp784
(dp785
g61
(dp786
g81
g82
ssg70
g780
sg63
(lp787
g417
asbag56
(g77
g58
NtRp788
(dp789
g61
(dp790
g88
g89
ssg70
g780
sg63
(lp791
S':'
asbag56
(g77
g58
NtRp792
(dp793
g61
(dp794
sg70
g780
sg63
(lp795
g56
(g57
g58
NtRp796
(dp797
g61
(dp798
g69
I3
ssg70
g792
sg63
(lp799
S''
asbasbasbasbasbasbasbag56
(g72
g58
NtRp800
(dp801
g61
(dp802
sg70
g233
sg63
(lp803
g56
(g77
g58
NtRp804
(dp805
g61
(dp806
g81
g82
ssg70
g800
sg63
(lp807
S'session_id_welcome'
p808
asbag56
(g77
g58
NtRp809
(dp810
g61
(dp811
g88
g89
ssg70
g800
sg63
(lp812
S':'
asbag56
(g77
g58
NtRp813
(dp814
g61
(dp815
sg70
g800
sg63
(lp816
g56
(g57
g58
NtRp817
(dp818
g61
(dp819
g69
I4
ssg70
g813
sg63
(lp820
g56
(g65
g58
NtRp821
(dp822
g61
(dp823
g69
I3
ssg70
Nsg63
(lp824
g56
(g72
g58
NtRp825
(dp826
g61
(dp827
sg70
g821
sg63
(lp828
g56
(g77
g58
NtRp829
(dp830
g61
(dp831
g81
g82
ssg70
g825
sg63
(lp832
g270
asbag56
(g77
g58
NtRp833
(dp834
g61
(dp835
g88
g89
ssg70
g825
sg63
(lp836
S':'
asbag56
(g77
g58
NtRp837
(dp838
g61
(dp839
sg70
g825
sg63
(lp840
g56
(g57
g58
NtRp841
(dp842
g61
(dp843
g69
I3
ssg70
g837
sg63
(lp844
S''
asbasbasbag56
(g72
g58
NtRp845
(dp846
g61
(dp847
sg70
g821
sg63
(lp848
g56
(g77
g58
NtRp849
(dp850
g61
(dp851
g81
g82
ssg70
g845
sg63
(lp852
g291
asbag56
(g77
g58
NtRp853
(dp854
g61
(dp855
g88
g89
ssg70
g845
sg63
(lp856
S':'
asbag56
(g77
g58
NtRp857
(dp858
g61
(dp859
sg70
g845
sg63
(lp860
g56
(g57
g58
NtRp861
(dp862
g61
(dp863
g69
I3
ssg70
g857
sg63
(lp864
S''
asbasbasbag56
(g72
g58
NtRp865
(dp866
g61
(dp867
sg70
g821
sg63
(lp868
g56
(g77
g58
NtRp869
(dp870
g61
(dp871
g81
g82
ssg70
g865
sg63
(lp872
g312
asbag56
(g77
g58
NtRp873
(dp874
g61
(dp875
g88
g89
ssg70
g865
sg63
(lp876
S':'
asbag56
(g77
g58
NtRp877
(dp878
g61
(dp879
sg70
g865
sg63
(lp880
g56
(g57
g58
NtRp881
(dp882
g61
(dp883
g69
I3
ssg70
g877
sg63
(lp884
S''
asbasbasbag56
(g72
g58
NtRp885
(dp886
g61
(dp887
sg70
g821
sg63
(lp888
g56
(g77
g58
NtRp889
(dp890
g61
(dp891
g81
g82
ssg70
g885
sg63
(lp892
g333
asbag56
(g77
g58
NtRp893
(dp894
g61
(dp895
g88
g89
ssg70
g885
sg63
(lp896
S':'
asbag56
(g77
g58
NtRp897
(dp898
g61
(dp899
sg70
g885
sg63
(lp900
g56
(g57
g58
NtRp901
(dp902
g61
(dp903
g69
I3
ssg70
g897
sg63
(lp904
S''
asbasbasbag56
(g72
g58
NtRp905
(dp906
g61
(dp907
sg70
g821
sg63
(lp908
g56
(g77
g58
NtRp909
(dp910
g61
(dp911
g81
g82
ssg70
g905
sg63
(lp912
g354
asbag56
(g77
g58
NtRp913
(dp914
g61
(dp915
g88
g89
ssg70
g905
sg63
(lp916
S':'
asbag56
(g77
g58
NtRp917
(dp918
g61
(dp919
sg70
g905
sg63
(lp920
g56
(g57
g58
NtRp921
(dp922
g61
(dp923
g69
I3
ssg70
g917
sg63
(lp924
S''
asbasbasbag56
(g72
g58
NtRp925
(dp926
g61
(dp927
sg70
g821
sg63
(lp928
g56
(g77
g58
NtRp929
(dp930
g61
(dp931
g81
g82
ssg70
g925
sg63
(lp932
g375
asbag56
(g77
g58
NtRp933
(dp934
g61
(dp935
g88
g89
ssg70
g925
sg63
(lp936
S':'
asbag56
(g77
g58
NtRp937
(dp938
g61
(dp939
sg70
g925
sg63
(lp940
g56
(g57
g58
NtRp941
(dp942
g61
(dp943
g69
I3
ssg70
g937
sg63
(lp944
S''
asbasbasbag56
(g72
g58
NtRp945
(dp946
g61
(dp947
sg70
g821
sg63
(lp948
g56
(g77
g58
NtRp949
(dp950
g61
(dp951
g81
g82
ssg70
g945
sg63
(lp952
g396
asbag56
(g77
g58
NtRp953
(dp954
g61
(dp955
g88
g89
ssg70
g945
sg63
(lp956
S':'
asbag56
(g77
g58
NtRp957
(dp958
g61
(dp959
sg70
g945
sg63
(lp960
g56
(g57
g58
NtRp961
(dp962
g61
(dp963
g69
I3
ssg70
g957
sg63
(lp964
S''
asbasbasbag56
(g72
g58
NtRp965
(dp966
g61
(dp967
sg70
g821
sg63
(lp968
g56
(g77
g58
NtRp969
(dp970
g61
(dp971
g81
g82
ssg70
g965
sg63
(lp972
g417
asbag56
(g77
g58
NtRp973
(dp974
g61
(dp975
g88
g89
ssg70
g965
sg63
(lp976
S':'
asbag56
(g77
g58
NtRp977
(dp978
g61
(dp979
sg70
g965
sg63
(lp980
g56
(g57
g58
NtRp981
(dp982
g61
(dp983
g69
I3
ssg70
g977
sg63
(lp984
S''
asbasbasbasbasbasbasbasbasbasbasbag56
(g72
g58
NtRp985
(dp986
g61
(dp987
sg70
g66
sg63
(lp988
g56
(g77
g58
NtRp989
(dp990
g61
(dp991
g81
g82
ssg70
g985
sg63
(lp992
S'env'
p993
asbag56
(g77
g58
NtRp994
(dp995
g61
(dp996
g88
g89
ssg70
g985
sg63
(lp997
S':'
asbag56
(g77
g58
NtRp998
(dp999
g61
(dp1000
sg70
g985
sg63
(lp1001
g56
(g57
g58
NtRp1002
(dp1003
g61
(dp1004
g69
I5
ssg70
g998
sg63
(lp1005
g56
(g65
g58
NtRp1006
(dp1007
g61
(dp1008
g69
I4
ssg70
Nsg63
(lp1009
g56
(g72
g58
NtRp1010
(dp1011
g61
(dp1012
sg70
g1006
sg63
(lp1013
g56
(g77
g58
NtRp1014
(dp1015
g61
(dp1016
g81
g82
ssg70
g1010
sg63
(lp1017
S'app_folders'
p1018
asbag56
(g77
g58
NtRp1019
(dp1020
g61
(dp1021
g88
g89
ssg70
g1010
sg63
(lp1022
S':'
asbag56
(g77
g58
NtRp1023
(dp1024
g61
(dp1025
sg70
g1010
sg63
(lp1026
g56
(g57
g58
NtRp1027
(dp1028
g61
(dp1029
g69
I4
ssg70
g1023
sg63
(lp1030
S"set(['/home/alumno/web2py/applications/admin/', '/home/alumno/web2py/applications/about_me/', '/home/alumno/web2py/applications/welcome/', '/home/alumno/web2py/applications/datos/'])"
p1031
asbasbasbag56
(g72
g58
NtRp1032
(dp1033
g61
(dp1034
sg70
g1006
sg63
(lp1035
g56
(g77
g58
NtRp1036
(dp1037
g61
(dp1038
g81
g82
ssg70
g1032
sg63
(lp1039
S'applications_parent'
p1040
asbag56
(g77
g58
NtRp1041
(dp1042
g61
(dp1043
g88
g89
ssg70
g1032
sg63
(lp1044
S':'
asbag56
(g77
g58
NtRp1045
(dp1046
g61
(dp1047
sg70
g1032
sg63
(lp1048
g56
(g57
g58
NtRp1049
(dp1050
g61
(dp1051
g69
I4
ssg70
g1045
sg63
(lp1052
S'/home/alumno/web2py'
p1053
asbasbasbag56
(g72
g58
NtRp1054
(dp1055
g61
(dp1056
sg70
g1006
sg63
(lp1057
g56
(g77
g58
NtRp1058
(dp1059
g61
(dp1060
g81
g82
ssg70
g1054
sg63
(lp1061
S'cmd_args'
p1062
asbag56
(g77
g58
NtRp1063
(dp1064
g61
(dp1065
g88
g89
ssg70
g1054
sg63
(lp1066
S':'
asbag56
(g77
g58
NtRp1067
(dp1068
g61
(dp1069
sg70
g1054
sg63
(lp1070
g56
(g57
g58
NtRp1071
(dp1072
g61
(dp1073
g69
I4
ssg70
g1067
sg63
(lp1074
g56
(g65
g58
NtRp1075
(dp1076
g61
(dp1077
g69
I3
ssg70
Nsg63
(lp1078
sbasbasbasbag56
(g72
g58
NtRp1079
(dp1080
g61
(dp1081
sg70
g1006
sg63
(lp1082
g56
(g77
g58
NtRp1083
(dp1084
g61
(dp1085
g81
g82
ssg70
g1079
sg63
(lp1086
S'cmd_options'
p1087
asbag56
(g77
g58
NtRp1088
(dp1089
g61
(dp1090
g88
g89
ssg70
g1079
sg63
(lp1091
S':'
asbag56
(g77
g58
NtRp1092
(dp1093
g61
(dp1094
sg70
g1079
sg63
(lp1095
g56
(g57
g58
NtRp1096
(dp1097
g61
(dp1098
g69
I4
ssg70
g1092
sg63
(lp1099
S"<Values at 0x9716ecc: {'verbose': False, 'ip': '127.0.0.1', 'shutdown_timeout': 5, 'taskbar': False, 'port': 8000, 'maxthreads': None, 'softcron': False, 'server_name': 'ubuntu-dev', 'bpython': False, 'nogui': False, 'nocron': False, 'extcron': False, 'debuglevel': 30, 'test': None, 'folder': '/home/alumno/web2py', 'config': '', 'import_models': False, 'winservice': '', 'shell': None, 'run': '', 'log_filename': 'httpserver.log', 'args': [''], 'profiler_filename': None, 'ssl_private_key': '', 'password': 'toor', 'request_queue_size': 5, 'ssl_certificate': '', 'cronjob': False, 'plain': False, 'quiet': False, 'interfaces': None, 'minthreads': None, 'timeout': 10, 'numthreads': None, 'nobanner': False, 'pid_filename': 'httpserver.pid'}>"
p1100
asbasbasbag56
(g72
g58
NtRp1101
(dp1102
g61
(dp1103
sg70
g1006
sg63
(lp1104
g56
(g77
g58
NtRp1105
(dp1106
g61
(dp1107
g81
g82
ssg70
g1101
sg63
(lp1108
S'db_sessions'
p1109
asbag56
(g77
g58
NtRp1110
(dp1111
g61
(dp1112
g88
g89
ssg70
g1101
sg63
(lp1113
S':'
asbag56
(g77
g58
NtRp1114
(dp1115
g61
(dp1116
sg70
g1101
sg63
(lp1117
g56
(g57
g58
NtRp1118
(dp1119
g61
(dp1120
g69
I4
ssg70
g1114
sg63
(lp1121
S'set([])'
p1122
asbasbasbag56
(g72
g58
NtRp1123
(dp1124
g61
(dp1125
sg70
g1006
sg63
(lp1126
g56
(g77
g58
NtRp1127
(dp1128
g61
(dp1129
g81
g82
ssg70
g1123
sg63
(lp1130
S'debugging'
p1131
asbag56
(g77
g58
NtRp1132
(dp1133
g61
(dp1134
g88
g89
ssg70
g1123
sg63
(lp1135
S':'
asbag56
(g77
g58
NtRp1136
(dp1137
g61
(dp1138
sg70
g1123
sg63
(lp1139
g56
(g57
g58
NtRp1140
(dp1141
g61
(dp1142
g69
I4
ssg70
g1136
sg63
(lp1143
g99
asbasbasbag56
(g72
g58
NtRp1144
(dp1145
g61
(dp1146
sg70
g1006
sg63
(lp1147
g56
(g77
g58
NtRp1148
(dp1149
g61
(dp1150
g81
g82
ssg70
g1144
sg63
(lp1151
S'gluon_parent'
p1152
asbag56
(g77
g58
NtRp1153
(dp1154
g61
(dp1155
g88
g89
ssg70
g1144
sg63
(lp1156
S':'
asbag56
(g77
g58
NtRp1157
(dp1158
g61
(dp1159
sg70
g1144
sg63
(lp1160
g56
(g57
g58
NtRp1161
(dp1162
g61
(dp1163
g69
I4
ssg70
g1157
sg63
(lp1164
S'/home/alumno/web2py'
p1165
asbasbasbag56
(g72
g58
NtRp1166
(dp1167
g61
(dp1168
sg70
g1006
sg63
(lp1169
g56
(g77
g58
NtRp1170
(dp1171
g61
(dp1172
g81
g82
ssg70
g1166
sg63
(lp1173
S'http_accept'
p1174
asbag56
(g77
g58
NtRp1175
(dp1176
g61
(dp1177
g88
g89
ssg70
g1166
sg63
(lp1178
S':'
asbag56
(g77
g58
NtRp1179
(dp1180
g61
(dp1181
sg70
g1166
sg63
(lp1182
g56
(g57
g58
NtRp1183
(dp1184
g61
(dp1185
g69
I4
ssg70
g1179
sg63
(lp1186
S'text/html,application/xhtml+xml,application/xml;q=0.9,*/*;q=0.8'
p1187
asbasbasbag56
(g72
g58
NtRp1188
(dp1189
g61
(dp1190
sg70
g1006
sg63
(lp1191
g56
(g77
g58
NtRp1192
(dp1193
g61
(dp1194
g81
g82
ssg70
g1188
sg63
(lp1195
S'http_accept_charset'
p1196
asbag56
(g77
g58
NtRp1197
(dp1198
g61
(dp1199
g88
g89
ssg70
g1188
sg63
(lp1200
S':'
asbag56
(g77
g58
NtRp1201
(dp1202
g61
(dp1203
sg70
g1188
sg63
(lp1204
g56
(g57
g58
NtRp1205
(dp1206
g61
(dp1207
g69
I4
ssg70
g1201
sg63
(lp1208
S'ISO-8859-1,utf-8;q=0.7,*;q=0.7'
p1209
asbasbasbag56
(g72
g58
NtRp1210
(dp1211
g61
(dp1212
sg70
g1006
sg63
(lp1213
g56
(g77
g58
NtRp1214
(dp1215
g61
(dp1216
g81
g82
ssg70
g1210
sg63
(lp1217
S'http_accept_encoding'
p1218
asbag56
(g77
g58
NtRp1219
(dp1220
g61
(dp1221
g88
g89
ssg70
g1210
sg63
(lp1222
S':'
asbag56
(g77
g58
NtRp1223
(dp1224
g61
(dp1225
sg70
g1210
sg63
(lp1226
g56
(g57
g58
NtRp1227
(dp1228
g61
(dp1229
g69
I4
ssg70
g1223
sg63
(lp1230
S'gzip, deflate'
p1231
asbasbasbag56
(g72
g58
NtRp1232
(dp1233
g61
(dp1234
sg70
g1006
sg63
(lp1235
g56
(g77
g58
NtRp1236
(dp1237
g61
(dp1238
g81
g82
ssg70
g1232
sg63
(lp1239
S'http_accept_language'
p1240
asbag56
(g77
g58
NtRp1241
(dp1242
g61
(dp1243
g88
g89
ssg70
g1232
sg63
(lp1244
S':'
asbag56
(g77
g58
NtRp1245
(dp1246
g61
(dp1247
sg70
g1232
sg63
(lp1248
g56
(g57
g58
NtRp1249
(dp1250
g61
(dp1251
g69
I4
ssg70
g1245
sg63
(lp1252
S'es-ar,es;q=0.8,en-us;q=0.5,en;q=0.3'
p1253
asbasbasbag56
(g72
g58
NtRp1254
(dp1255
g61
(dp1256
sg70
g1006
sg63
(lp1257
g56
(g77
g58
NtRp1258
(dp1259
g61
(dp1260
g81
g82
ssg70
g1254
sg63
(lp1261
S'http_cache_control'
p1262
asbag56
(g77
g58
NtRp1263
(dp1264
g61
(dp1265
g88
g89
ssg70
g1254
sg63
(lp1266
S':'
asbag56
(g77
g58
NtRp1267
(dp1268
g61
(dp1269
sg70
g1254
sg63
(lp1270
g56
(g57
g58
NtRp1271
(dp1272
g61
(dp1273
g69
I4
ssg70
g1267
sg63
(lp1274
S'max-age=0'
p1275
asbasbasbag56
(g72
g58
NtRp1276
(dp1277
g61
(dp1278
sg70
g1006
sg63
(lp1279
g56
(g77
g58
NtRp1280
(dp1281
g61
(dp1282
g81
g82
ssg70
g1276
sg63
(lp1283
S'http_connection'
p1284
asbag56
(g77
g58
NtRp1285
(dp1286
g61
(dp1287
g88
g89
ssg70
g1276
sg63
(lp1288
S':'
asbag56
(g77
g58
NtRp1289
(dp1290
g61
(dp1291
sg70
g1276
sg63
(lp1292
g56
(g57
g58
NtRp1293
(dp1294
g61
(dp1295
g69
I4
ssg70
g1289
sg63
(lp1296
S'keep-alive'
p1297
asbasbasbag56
(g72
g58
NtRp1298
(dp1299
g61
(dp1300
sg70
g1006
sg63
(lp1301
g56
(g77
g58
NtRp1302
(dp1303
g61
(dp1304
g81
g82
ssg70
g1298
sg63
(lp1305
S'http_cookie'
p1306
asbag56
(g77
g58
NtRp1307
(dp1308
g61
(dp1309
g88
g89
ssg70
g1298
sg63
(lp1310
S':'
asbag56
(g77
g58
NtRp1311
(dp1312
g61
(dp1313
sg70
g1298
sg63
(lp1314
g56
(g57
g58
NtRp1315
(dp1316
g61
(dp1317
g69
I4
ssg70
g1311
sg63
(lp1318
S'session_id_welcome=127.0.0.1-9a64e71a-71c9-4c62-b046-090ea7d45525; session_id_admin=127.0.0.1-fd47075d-a50d-4307-a71d-53fd6091c621; session_id_about_me=127.0.0.1-7001d55b-0853-4806-9a34-cb98dbab722d; session_id_datos=127.0.0.1-cd811d2b-4b1e-4778-9b0e-2b7f0d822087'
p1319
asbasbasbag56
(g72
g58
NtRp1320
(dp1321
g61
(dp1322
sg70
g1006
sg63
(lp1323
g56
(g77
g58
NtRp1324
(dp1325
g61
(dp1326
g81
g82
ssg70
g1320
sg63
(lp1327
S'http_host'
p1328
asbag56
(g77
g58
NtRp1329
(dp1330
g61
(dp1331
g88
g89
ssg70
g1320
sg63
(lp1332
S':'
asbag56
(g77
g58
NtRp1333
(dp1334
g61
(dp1335
sg70
g1320
sg63
(lp1336
g56
(g57
g58
NtRp1337
(dp1338
g61
(dp1339
g69
I4
ssg70
g1333
sg63
(lp1340
S'127.0.0.1:8000'
p1341
asbasbasbag56
(g72
g58
NtRp1342
(dp1343
g61
(dp1344
sg70
g1006
sg63
(lp1345
g56
(g77
g58
NtRp1346
(dp1347
g61
(dp1348
g81
g82
ssg70
g1342
sg63
(lp1349
S'http_referer'
p1350
asbag56
(g77
g58
NtRp1351
(dp1352
g61
(dp1353
g88
g89
ssg70
g1342
sg63
(lp1354
S':'
asbag56
(g77
g58
NtRp1355
(dp1356
g61
(dp1357
sg70
g1342
sg63
(lp1358
g56
(g57
g58
NtRp1359
(dp1360
g61
(dp1361
g69
I4
ssg70
g1355
sg63
(lp1362
S'http://127.0.0.1:8000/admin/default/design/datos'
p1363
asbasbasbag56
(g72
g58
NtRp1364
(dp1365
g61
(dp1366
sg70
g1006
sg63
(lp1367
g56
(g77
g58
NtRp1368
(dp1369
g61
(dp1370
g81
g82
ssg70
g1364
sg63
(lp1371
S'http_user_agent'
p1372
asbag56
(g77
g58
NtRp1373
(dp1374
g61
(dp1375
g88
g89
ssg70
g1364
sg63
(lp1376
S':'
asbag56
(g77
g58
NtRp1377
(dp1378
g61
(dp1379
sg70
g1364
sg63
(lp1380
g56
(g57
g58
NtRp1381
(dp1382
g61
(dp1383
g69
I4
ssg70
g1377
sg63
(lp1384
S'Mozilla/5.0 (X11; Linux i686; rv:6.0) Gecko/20100101 Firefox/6.0'
p1385
asbasbasbag56
(g72
g58
NtRp1386
(dp1387
g61
(dp1388
sg70
g1006
sg63
(lp1389
g56
(g77
g58
NtRp1390
(dp1391
g61
(dp1392
g81
g82
ssg70
g1386
sg63
(lp1393
S'path_info'
p1394
asbag56
(g77
g58
NtRp1395
(dp1396
g61
(dp1397
g88
g89
ssg70
g1386
sg63
(lp1398
S':'
asbag56
(g77
g58
NtRp1399
(dp1400
g61
(dp1401
sg70
g1386
sg63
(lp1402
g56
(g57
g58
NtRp1403
(dp1404
g61
(dp1405
g69
I4
ssg70
g1399
sg63
(lp1406
S'/datos/default/index'
p1407
asbasbasbag56
(g72
g58
NtRp1408
(dp1409
g61
(dp1410
sg70
g1006
sg63
(lp1411
g56
(g77
g58
NtRp1412
(dp1413
g61
(dp1414
g81
g82
ssg70
g1408
sg63
(lp1415
S'query_string'
p1416
asbag56
(g77
g58
NtRp1417
(dp1418
g61
(dp1419
g88
g89
ssg70
g1408
sg63
(lp1420
S':'
asbag56
(g77
g58
NtRp1421
(dp1422
g61
(dp1423
sg70
g1408
sg63
(lp1424
g56
(g57
g58
NtRp1425
(dp1426
g61
(dp1427
g69
I4
ssg70
g1421
sg63
(lp1428
S''
asbasbasbag56
(g72
g58
NtRp1429
(dp1430
g61
(dp1431
sg70
g1006
sg63
(lp1432
g56
(g77
g58
NtRp1433
(dp1434
g61
(dp1435
g81
g82
ssg70
g1429
sg63
(lp1436
S'remote_addr'
p1437
asbag56
(g77
g58
NtRp1438
(dp1439
g61
(dp1440
g88
g89
ssg70
g1429
sg63
(lp1441
S':'
asbag56
(g77
g58
NtRp1442
(dp1443
g61
(dp1444
sg70
g1429
sg63
(lp1445
g56
(g57
g58
NtRp1446
(dp1447
g61
(dp1448
g69
I4
ssg70
g1442
sg63
(lp1449
g189
asbasbasbag56
(g72
g58
NtRp1450
(dp1451
g61
(dp1452
sg70
g1006
sg63
(lp1453
g56
(g77
g58
NtRp1454
(dp1455
g61
(dp1456
g81
g82
ssg70
g1450
sg63
(lp1457
S'remote_port'
p1458
asbag56
(g77
g58
NtRp1459
(dp1460
g61
(dp1461
g88
g89
ssg70
g1450
sg63
(lp1462
S':'
asbag56
(g77
g58
NtRp1463
(dp1464
g61
(dp1465
sg70
g1450
sg63
(lp1466
g56
(g57
g58
NtRp1467
(dp1468
g61
(dp1469
g69
I4
ssg70
g1463
sg63
(lp1470
S'48852'
p1471
asbasbasbag56
(g72
g58
NtRp1472
(dp1473
g61
(dp1474
sg70
g1006
sg63
(lp1475
g56
(g77
g58
NtRp1476
(dp1477
g61
(dp1478
g81
g82
ssg70
g1472
sg63
(lp1479
S'request_method'
p1480
asbag56
(g77
g58
NtRp1481
(dp1482
g61
(dp1483
g88
g89
ssg70
g1472
sg63
(lp1484
S':'
asbag56
(g77
g58
NtRp1485
(dp1486
g61
(dp1487
sg70
g1472
sg63
(lp1488
g56
(g57
g58
NtRp1489
(dp1490
g61
(dp1491
g69
I4
ssg70
g1485
sg63
(lp1492
S'GET'
p1493
asbasbasbag56
(g72
g58
NtRp1494
(dp1495
g61
(dp1496
sg70
g1006
sg63
(lp1497
g56
(g77
g58
NtRp1498
(dp1499
g61
(dp1500
g81
g82
ssg70
g1494
sg63
(lp1501
S'script_name'
p1502
asbag56
(g77
g58
NtRp1503
(dp1504
g61
(dp1505
g88
g89
ssg70
g1494
sg63
(lp1506
S':'
asbag56
(g77
g58
NtRp1507
(dp1508
g61
(dp1509
sg70
g1494
sg63
(lp1510
g56
(g57
g58
NtRp1511
(dp1512
g61
(dp1513
g69
I4
ssg70
g1507
sg63
(lp1514
S''
asbasbasbag56
(g72
g58
NtRp1515
(dp1516
g61
(dp1517
sg70
g1006
sg63
(lp1518
g56
(g77
g58
NtRp1519
(dp1520
g61
(dp1521
g81
g82
ssg70
g1515
sg63
(lp1522
S'server_name'
p1523
asbag56
(g77
g58
NtRp1524
(dp1525
g61
(dp1526
g88
g89
ssg70
g1515
sg63
(lp1527
S':'
asbag56
(g77
g58
NtRp1528
(dp1529
g61
(dp1530
sg70
g1515
sg63
(lp1531
g56
(g57
g58
NtRp1532
(dp1533
g61
(dp1534
g69
I4
ssg70
g1528
sg63
(lp1535
S'ubuntu-dev'
p1536
asbasbasbag56
(g72
g58
NtRp1537
(dp1538
g61
(dp1539
sg70
g1006
sg63
(lp1540
g56
(g77
g58
NtRp1541
(dp1542
g61
(dp1543
g81
g82
ssg70
g1537
sg63
(lp1544
S'server_port'
p1545
asbag56
(g77
g58
NtRp1546
(dp1547
g61
(dp1548
g88
g89
ssg70
g1537
sg63
(lp1549
S':'
asbag56
(g77
g58
NtRp1550
(dp1551
g61
(dp1552
sg70
g1537
sg63
(lp1553
g56
(g57
g58
NtRp1554
(dp1555
g61
(dp1556
g69
I4
ssg70
g1550
sg63
(lp1557
S'8000'
p1558
asbasbasbag56
(g72
g58
NtRp1559
(dp1560
g61
(dp1561
sg70
g1006
sg63
(lp1562
g56
(g77
g58
NtRp1563
(dp1564
g61
(dp1565
g81
g82
ssg70
g1559
sg63
(lp1566
S'server_protocol'
p1567
asbag56
(g77
g58
NtRp1568
(dp1569
g61
(dp1570
g88
g89
ssg70
g1559
sg63
(lp1571
S':'
asbag56
(g77
g58
NtRp1572
(dp1573
g61
(dp1574
sg70
g1559
sg63
(lp1575
g56
(g57
g58
NtRp1576
(dp1577
g61
(dp1578
g69
I4
ssg70
g1572
sg63
(lp1579
S'HTTP/1.1'
p1580
asbasbasbag56
(g72
g58
NtRp1581
(dp1582
g61
(dp1583
sg70
g1006
sg63
(lp1584
g56
(g77
g58
NtRp1585
(dp1586
g61
(dp1587
g81
g82
ssg70
g1581
sg63
(lp1588
S'server_software'
p1589
asbag56
(g77
g58
NtRp1590
(dp1591
g61
(dp1592
g88
g89
ssg70
g1581
sg63
(lp1593
S':'
asbag56
(g77
g58
NtRp1594
(dp1595
g61
(dp1596
sg70
g1581
sg63
(lp1597
g56
(g57
g58
NtRp1598
(dp1599
g61
(dp1600
g69
I4
ssg70
g1594
sg63
(lp1601
S'Rocket 1.2.2'
p1602
asbasbasbag56
(g72
g58
NtRp1603
(dp1604
g61
(dp1605
sg70
g1006
sg63
(lp1606
g56
(g77
g58
NtRp1607
(dp1608
g61
(dp1609
g81
g82
ssg70
g1603
sg63
(lp1610
S'web2py_crontype'
p1611
asbag56
(g77
g58
NtRp1612
(dp1613
g61
(dp1614
g88
g89
ssg70
g1603
sg63
(lp1615
S':'
asbag56
(g77
g58
NtRp1616
(dp1617
g61
(dp1618
sg70
g1603
sg63
(lp1619
g56
(g57
g58
NtRp1620
(dp1621
g61
(dp1622
g69
I4
ssg70
g1616
sg63
(lp1623
S'hard'
p1624
asbasbasbag56
(g72
g58
NtRp1625
(dp1626
g61
(dp1627
sg70
g1006
sg63
(lp1628
g56
(g77
g58
NtRp1629
(dp1630
g61
(dp1631
g81
g82
ssg70
g1625
sg63
(lp1632
S'web2py_path'
p1633
asbag56
(g77
g58
NtRp1634
(dp1635
g61
(dp1636
g88
g89
ssg70
g1625
sg63
(lp1637
S':'
asbag56
(g77
g58
NtRp1638
(dp1639
g61
(dp1640
sg70
g1625
sg63
(lp1641
g56
(g57
g58
NtRp1642
(dp1643
g61
(dp1644
g69
I4
ssg70
g1638
sg63
(lp1645
g1053
asbasbasbag56
(g72
g58
NtRp1646
(dp1647
g61
(dp1648
sg70
g1006
sg63
(lp1649
g56
(g77
g58
NtRp1650
(dp1651
g61
(dp1652
g81
g82
ssg70
g1646
sg63
(lp1653
S'web2py_version'
p1654
asbag56
(g77
g58
NtRp1655
(dp1656
g61
(dp1657
g88
g89
ssg70
g1646
sg63
(lp1658
S':'
asbag56
(g77
g58
NtRp1659
(dp1660
g61
(dp1661
sg70
g1646
sg63
(lp1662
g56
(g57
g58
NtRp1663
(dp1664
g61
(dp1665
g69
I4
ssg70
g1659
sg63
(lp1666
S'Version 1.96.4 (2011-06-18 21:34:53)\n'
p1667
asbasbasbag56
(g72
g58
NtRp1668
(dp1669
g61
(dp1670
sg70
g1006
sg63
(lp1671
g56
(g77
g58
NtRp1672
(dp1673
g61
(dp1674
g81
g82
ssg70
g1668
sg63
(lp1675
S'wsgi_errors'
p1676
asbag56
(g77
g58
NtRp1677
(dp1678
g61
(dp1679
g88
g89
ssg70
g1668
sg63
(lp1680
S':'
asbag56
(g77
g58
NtRp1681
(dp1682
g61
(dp1683
sg70
g1668
sg63
(lp1684
g56
(g57
g58
NtRp1685
(dp1686
g61
(dp1687
g69
I4
ssg70
g1681
sg63
(lp1688
S"<open file '<stderr>', mode 'w' at 0xb78200d0>"
p1689
asbasbasbag56
(g72
g58
NtRp1690
(dp1691
g61
(dp1692
sg70
g1006
sg63
(lp1693
g56
(g77
g58
NtRp1694
(dp1695
g61
(dp1696
g81
g82
ssg70
g1690
sg63
(lp1697
S'wsgi_file_wrapper'
p1698
asbag56
(g77
g58
NtRp1699
(dp1700
g61
(dp1701
g88
g89
ssg70
g1690
sg63
(lp1702
S':'
asbag56
(g77
g58
NtRp1703
(dp1704
g61
(dp1705
sg70
g1690
sg63
(lp1706
g56
(g57
g58
NtRp1707
(dp1708
g61
(dp1709
g69
I4
ssg70
g1703
sg63
(lp1710
S'<class gluon.rocket.FileWrapper at 0x969cb9c>'
p1711
asbasbasbag56
(g72
g58
NtRp1712
(dp1713
g61
(dp1714
sg70
g1006
sg63
(lp1715
g56
(g77
g58
NtRp1716
(dp1717
g61
(dp1718
g81
g82
ssg70
g1712
sg63
(lp1719
S'wsgi_input'
p1720
asbag56
(g77
g58
NtRp1721
(dp1722
g61
(dp1723
g88
g89
ssg70
g1712
sg63
(lp1724
S':'
asbag56
(g77
g58
NtRp1725
(dp1726
g61
(dp1727
sg70
g1712
sg63
(lp1728
g56
(g57
g58
NtRp1729
(dp1730
g61
(dp1731
g69
I4
ssg70
g1725
sg63
(lp1732
S'<socket._fileobject object at 0x9d768ec>'
p1733
asbasbasbag56
(g72
g58
NtRp1734
(dp1735
g61
(dp1736
sg70
g1006
sg63
(lp1737
g56
(g77
g58
NtRp1738
(dp1739
g61
(dp1740
g81
g82
ssg70
g1734
sg63
(lp1741
S'wsgi_multiprocess'
p1742
asbag56
(g77
g58
NtRp1743
(dp1744
g61
(dp1745
g88
g89
ssg70
g1734
sg63
(lp1746
S':'
asbag56
(g77
g58
NtRp1747
(dp1748
g61
(dp1749
sg70
g1734
sg63
(lp1750
g56
(g57
g58
NtRp1751
(dp1752
g61
(dp1753
g69
I4
ssg70
g1747
sg63
(lp1754
g99
asbasbasbag56
(g72
g58
NtRp1755
(dp1756
g61
(dp1757
sg70
g1006
sg63
(lp1758
g56
(g77
g58
NtRp1759
(dp1760
g61
(dp1761
g81
g82
ssg70
g1755
sg63
(lp1762
S'wsgi_multithread'
p1763
asbag56
(g77
g58
NtRp1764
(dp1765
g61
(dp1766
g88
g89
ssg70
g1755
sg63
(lp1767
S':'
asbag56
(g77
g58
NtRp1768
(dp1769
g61
(dp1770
sg70
g1755
sg63
(lp1771
g56
(g57
g58
NtRp1772
(dp1773
g61
(dp1774
g69
I4
ssg70
g1768
sg63
(lp1775
S'True'
p1776
asbasbasbag56
(g72
g58
NtRp1777
(dp1778
g61
(dp1779
sg70
g1006
sg63
(lp1780
g56
(g77
g58
NtRp1781
(dp1782
g61
(dp1783
g81
g82
ssg70
g1777
sg63
(lp1784
S'wsgi_run_once'
p1785
asbag56
(g77
g58
NtRp1786
(dp1787
g61
(dp1788
g88
g89
ssg70
g1777
sg63
(lp1789
S':'
asbag56
(g77
g58
NtRp1790
(dp1791
g61
(dp1792
sg70
g1777
sg63
(lp1793
g56
(g57
g58
NtRp1794
(dp1795
g61
(dp1796
g69
I4
ssg70
g1790
sg63
(lp1797
g99
asbasbasbag56
(g72
g58
NtRp1798
(dp1799
g61
(dp1800
sg70
g1006
sg63
(lp1801
g56
(g77
g58
NtRp1802
(dp1803
g61
(dp1804
g81
g82
ssg70
g1798
sg63
(lp1805
S'wsgi_url_scheme'
p1806
asbag56
(g77
g58
NtRp1807
(dp1808
g61
(dp1809
g88
g89
ssg70
g1798
sg63
(lp1810
S':'
asbag56
(g77
g58
NtRp1811
(dp1812
g61
(dp1813
sg70
g1798
sg63
(lp1814
g56
(g57
g58
NtRp1815
(dp1816
g61
(dp1817
g69
I4
ssg70
g1811
sg63
(lp1818
S'http'
p1819
asbasbasbag56
(g72
g58
NtRp1820
(dp1821
g61
(dp1822
sg70
g1006
sg63
(lp1823
g56
(g77
g58
NtRp1824
(dp1825
g61
(dp1826
g81
g82
ssg70
g1820
sg63
(lp1827
S'wsgi_version'
p1828
asbag56
(g77
g58
NtRp1829
(dp1830
g61
(dp1831
g88
g89
ssg70
g1820
sg63
(lp1832
S':'
asbag56
(g77
g58
NtRp1833
(dp1834
g61
(dp1835
sg70
g1820
sg63
(lp1836
g56
(g57
g58
NtRp1837
(dp1838
g61
(dp1839
g69
I4
ssg70
g1833
sg63
(lp1840
g56
(g65
g58
NtRp1841
(dp1842
g61
(dp1843
g69
I3
ssg70
Nsg63
(lp1844
g56
(g72
g58
NtRp1845
(dp1846
g61
(dp1847
sg70
g1841
sg63
(lp1848
g56
(g77
g58
NtRp1849
(dp1850
g61
(dp1851
sg70
g1845
sg63
(lp1852
g56
(g57
g58
NtRp1853
(dp1854
g61
(dp1855
g69
I3
ssg70
g1849
sg63
(lp1856
S'1'
asbasbasbag56
(g72
g58
NtRp1857
(dp1858
g61
(dp1859
sg70
g1841
sg63
(lp1860
g56
(g77
g58
NtRp1861
(dp1862
g61
(dp1863
sg70
g1857
sg63
(lp1864
g56
(g57
g58
NtRp1865
(dp1866
g61
(dp1867
g69
I3
ssg70
g1861
sg63
(lp1868
S'0'
asbasbasbasbasbasbasbasbasbasbasbag56
(g72
g58
NtRp1869
(dp1870
g61
(dp1871
sg70
g66
sg63
(lp1872
g56
(g77
g58
NtRp1873
(dp1874
g61
(dp1875
g81
g82
ssg70
g1869
sg63
(lp1876
S'extension'
p1877
asbag56
(g77
g58
NtRp1878
(dp1879
g61
(dp1880
g88
g89
ssg70
g1869
sg63
(lp1881
S':'
asbag56
(g77
g58
NtRp1882
(dp1883
g61
(dp1884
sg70
g1869
sg63
(lp1885
g56
(g57
g58
NtRp1886
(dp1887
g61
(dp1888
g69
I5
ssg70
g1882
sg63
(lp1889
S'html'
p1890
asbasbasbag56
(g72
g58
NtRp1891
(dp1892
g61
(dp1893
sg70
g66
sg63
(lp1894
g56
(g77
g58
NtRp1895
(dp1896
g61
(dp1897
g81
g82
ssg70
g1891
sg63
(lp1898
S'folder'
p1899
asbag56
(g77
g58
NtRp1900
(dp1901
g61
(dp1902
g88
g89
ssg70
g1891
sg63
(lp1903
S':'
asbag56
(g77
g58
NtRp1904
(dp1905
g61
(dp1906
sg70
g1891
sg63
(lp1907
g56
(g57
g58
NtRp1908
(dp1909
g61
(dp1910
g69
I5
ssg70
g1904
sg63
(lp1911
S'/home/alumno/web2py/applications/datos/'
p1912
asbasbasbag56
(g72
g58
NtRp1913
(dp1914
g61
(dp1915
sg70
g66
sg63
(lp1916
g56
(g77
g58
NtRp1917
(dp1918
g61
(dp1919
g81
g82
ssg70
g1913
sg63
(lp1920
S'function'
p1921
asbag56
(g77
g58
NtRp1922
(dp1923
g61
(dp1924
g88
g89
ssg70
g1913
sg63
(lp1925
S':'
asbag56
(g77
g58
NtRp1926
(dp1927
g61
(dp1928
sg70
g1913
sg63
(lp1929
g56
(g57
g58
NtRp1930
(dp1931
g61
(dp1932
g69
I5
ssg70
g1926
sg63
(lp1933
S'index'
p1934
asbasbasbag56
(g72
g58
NtRp1935
(dp1936
g61
(dp1937
sg70
g66
sg63
(lp1938
g56
(g77
g58
NtRp1939
(dp1940
g61
(dp1941
g81
g82
ssg70
g1935
sg63
(lp1942
S'get_vars'
p1943
asbag56
(g77
g58
NtRp1944
(dp1945
g61
(dp1946
g88
g89
ssg70
g1935
sg63
(lp1947
S':'
asbag56
(g77
g58
NtRp1948
(dp1949
g61
(dp1950
sg70
g1935
sg63
(lp1951
g56
(g57
g58
NtRp1952
(dp1953
g61
(dp1954
g69
I5
ssg70
g1948
sg63
(lp1955
g56
(g65
g58
NtRp1956
(dp1957
g61
(dp1958
g69
I4
ssg70
Nsg63
(lp1959
sbasbasbasbag56
(g72
g58
NtRp1960
(dp1961
g61
(dp1962
sg70
g66
sg63
(lp1963
g56
(g77
g58
NtRp1964
(dp1965
g61
(dp1966
g81
g82
ssg70
g1960
sg63
(lp1967
S'is_https'
p1968
asbag56
(g77
g58
NtRp1969
(dp1970
g61
(dp1971
g88
g89
ssg70
g1960
sg63
(lp1972
S':'
asbag56
(g77
g58
NtRp1973
(dp1974
g61
(dp1975
sg70
g1960
sg63
(lp1976
g56
(g57
g58
NtRp1977
(dp1978
g61
(dp1979
g69
I5
ssg70
g1973
sg63
(lp1980
g99
asbasbasbag56
(g72
g58
NtRp1981
(dp1982
g61
(dp1983
sg70
g66
sg63
(lp1984
g56
(g77
g58
NtRp1985
(dp1986
g61
(dp1987
g81
g82
ssg70
g1981
sg63
(lp1988
S'is_local'
p1989
asbag56
(g77
g58
NtRp1990
(dp1991
g61
(dp1992
g88
g89
ssg70
g1981
sg63
(lp1993
S':'
asbag56
(g77
g58
NtRp1994
(dp1995
g61
(dp1996
sg70
g1981
sg63
(lp1997
g56
(g57
g58
NtRp1998
(dp1999
g61
(dp2000
g69
I5
ssg70
g1994
sg63
(lp2001
g1776
asbasbasbag56
(g72
g58
NtRp2002
(dp2003
g61
(dp2004
sg70
g66
sg63
(lp2005
g56
(g77
g58
NtRp2006
(dp2007
g61
(dp2008
g81
g82
ssg70
g2002
sg63
(lp2009
S'is_restful'
p2010
asbag56
(g77
g58
NtRp2011
(dp2012
g61
(dp2013
g88
g89
ssg70
g2002
sg63
(lp2014
S':'
asbag56
(g77
g58
NtRp2015
(dp2016
g61
(dp2017
sg70
g2002
sg63
(lp2018
g56
(g57
g58
NtRp2019
(dp2020
g61
(dp2021
g69
I5
ssg70
g2015
sg63
(lp2022
g99
asbasbasbag56
(g72
g58
NtRp2023
(dp2024
g61
(dp2025
sg70
g66
sg63
(lp2026
g56
(g77
g58
NtRp2027
(dp2028
g61
(dp2029
g81
g82
ssg70
g2023
sg63
(lp2030
S'now'
p2031
asbag56
(g77
g58
NtRp2032
(dp2033
g61
(dp2034
g88
g89
ssg70
g2023
sg63
(lp2035
S':'
asbag56
(g77
g58
NtRp2036
(dp2037
g61
(dp2038
sg70
g2023
sg63
(lp2039
g56
(g57
g58
NtRp2040
(dp2041
g61
(dp2042
g69
I5
ssg70
g2036
sg63
(lp2043
S'datetime.datetime(2011, 9, 7, 20, 11, 5, 62140)'
p2044
asbasbasbag56
(g72
g58
NtRp2045
(dp2046
g61
(dp2047
sg70
g66
sg63
(lp2048
g56
(g77
g58
NtRp2049
(dp2050
g61
(dp2051
g81
g82
ssg70
g2045
sg63
(lp2052
S'post_vars'
p2053
asbag56
(g77
g58
NtRp2054
(dp2055
g61
(dp2056
g88
g89
ssg70
g2045
sg63
(lp2057
S':'
asbag56
(g77
g58
NtRp2058
(dp2059
g61
(dp2060
sg70
g2045
sg63
(lp2061
g56
(g57
g58
NtRp2062
(dp2063
g61
(dp2064
g69
I5
ssg70
g2058
sg63
(lp2065
g56
(g65
g58
NtRp2066
(dp2067
g61
(dp2068
g69
I4
ssg70
Nsg63
(lp2069
sbasbasbasbag56
(g72
g58
NtRp2070
(dp2071
g61
(dp2072
sg70
g66
sg63
(lp2073
g56
(g77
g58
NtRp2074
(dp2075
g61
(dp2076
g81
g82
ssg70
g2070
sg63
(lp2077
S'url'
p2078
asbag56
(g77
g58
NtRp2079
(dp2080
g61
(dp2081
g88
g89
ssg70
g2070
sg63
(lp2082
S':'
asbag56
(g77
g58
NtRp2083
(dp2084
g61
(dp2085
sg70
g2070
sg63
(lp2086
g56
(g57
g58
NtRp2087
(dp2088
g61
(dp2089
g69
I5
ssg70
g2083
sg63
(lp2090
S'/datos/default/index'
p2091
asbasbasbag56
(g72
g58
NtRp2092
(dp2093
g61
(dp2094
sg70
g66
sg63
(lp2095
g56
(g77
g58
NtRp2096
(dp2097
g61
(dp2098
g81
g82
ssg70
g2092
sg63
(lp2099
S'uuid'
p2100
asbag56
(g77
g58
NtRp2101
(dp2102
g61
(dp2103
g88
g89
ssg70
g2092
sg63
(lp2104
S':'
asbag56
(g77
g58
NtRp2105
(dp2106
g61
(dp2107
sg70
g2092
sg63
(lp2108
g56
(g57
g58
NtRp2109
(dp2110
g61
(dp2111
g69
I5
ssg70
g2105
sg63
(lp2112
S'datos/127.0.0.1.2011-09-07.20-11-05.0170b50c-058d-4bca-b78e-d0326ea6c3f2'
p2113
asbasbasbag56
(g72
g58
NtRp2114
(dp2115
g61
(dp2116
sg70
g66
sg63
(lp2117
g56
(g77
g58
NtRp2118
(dp2119
g61
(dp2120
g81
g82
ssg70
g2114
sg63
(lp2121
S'vars'
p2122
asbag56
(g77
g58
NtRp2123
(dp2124
g61
(dp2125
g88
g89
ssg70
g2114
sg63
(lp2126
S':'
asbag56
(g77
g58
NtRp2127
(dp2128
g61
(dp2129
sg70
g2114
sg63
(lp2130
g56
(g57
g58
NtRp2131
(dp2132
g61
(dp2133
g69
I5
ssg70
g2127
sg63
(lp2134
g56
(g65
g58
NtRp2135
(dp2136
g61
(dp2137
g69
I4
ssg70
Nsg63
(lp2138
sbasbasbasbag56
(g72
g58
NtRp2139
(dp2140
g61
(dp2141
sg70
g66
sg63
(lp2142
g56
(g77
g58
NtRp2143
(dp2144
g61
(dp2145
g81
g82
ssg70
g2139
sg63
(lp2146
S'wsgi'
p2147
asbag56
(g77
g58
NtRp2148
(dp2149
g61
(dp2150
g88
g89
ssg70
g2139
sg63
(lp2151
S':'
asbag56
(g77
g58
NtRp2152
(dp2153
g61
(dp2154
sg70
g2139
sg63
(lp2155
g56
(g57
g58
NtRp2156
(dp2157
g61
(dp2158
g69
I5
ssg70
g2152
sg63
(lp2159
g56
(g65
g58
NtRp2160
(dp2161
g61
(dp2162
g69
I4
ssg70
Nsg63
(lp2163
g56
(g72
g58
NtRp2164
(dp2165
g61
(dp2166
sg70
g2160
sg63
(lp2167
g56
(g77
g58
NtRp2168
(dp2169
g61
(dp2170
g81
g82
ssg70
g2164
sg63
(lp2171
S'environ'
p2172
asbag56
(g77
g58
NtRp2173
(dp2174
g61
(dp2175
g88
g89
ssg70
g2164
sg63
(lp2176
S':'
asbag56
(g77
g58
NtRp2177
(dp2178
g61
(dp2179
sg70
g2164
sg63
(lp2180
g56
(g57
g58
NtRp2181
(dp2182
g61
(dp2183
g69
I4
ssg70
g2177
sg63
(lp2184
g56
(g65
g58
NtRp2185
(dp2186
g61
(dp2187
g69
I3
ssg70
Nsg63
(lp2188
g56
(g72
g58
NtRp2189
(dp2190
g61
(dp2191
sg70
g2185
sg63
(lp2192
g56
(g77
g58
NtRp2193
(dp2194
g61
(dp2195
g81
g82
ssg70
g2189
sg63
(lp2196
S'HTTP_ACCEPT'
p2197
asbag56
(g77
g58
NtRp2198
(dp2199
g61
(dp2200
g88
g89
ssg70
g2189
sg63
(lp2201
S':'
asbag56
(g77
g58
NtRp2202
(dp2203
g61
(dp2204
sg70
g2189
sg63
(lp2205
g56
(g57
g58
NtRp2206
(dp2207
g61
(dp2208
g69
I3
ssg70
g2202
sg63
(lp2209
g1187
asbasbasbag56
(g72
g58
NtRp2210
(dp2211
g61
(dp2212
sg70
g2185
sg63
(lp2213
g56
(g77
g58
NtRp2214
(dp2215
g61
(dp2216
g81
g82
ssg70
g2210
sg63
(lp2217
S'HTTP_ACCEPT_CHARSET'
p2218
asbag56
(g77
g58
NtRp2219
(dp2220
g61
(dp2221
g88
g89
ssg70
g2210
sg63
(lp2222
S':'
asbag56
(g77
g58
NtRp2223
(dp2224
g61
(dp2225
sg70
g2210
sg63
(lp2226
g56
(g57
g58
NtRp2227
(dp2228
g61
(dp2229
g69
I3
ssg70
g2223
sg63
(lp2230
g1209
asbasbasbag56
(g72
g58
NtRp2231
(dp2232
g61
(dp2233
sg70
g2185
sg63
(lp2234
g56
(g77
g58
NtRp2235
(dp2236
g61
(dp2237
g81
g82
ssg70
g2231
sg63
(lp2238
S'HTTP_ACCEPT_ENCODING'
p2239
asbag56
(g77
g58
NtRp2240
(dp2241
g61
(dp2242
g88
g89
ssg70
g2231
sg63
(lp2243
S':'
asbag56
(g77
g58
NtRp2244
(dp2245
g61
(dp2246
sg70
g2231
sg63
(lp2247
g56
(g57
g58
NtRp2248
(dp2249
g61
(dp2250
g69
I3
ssg70
g2244
sg63
(lp2251
g1231
asbasbasbag56
(g72
g58
NtRp2252
(dp2253
g61
(dp2254
sg70
g2185
sg63
(lp2255
g56
(g77
g58
NtRp2256
(dp2257
g61
(dp2258
g81
g82
ssg70
g2252
sg63
(lp2259
S'HTTP_ACCEPT_LANGUAGE'
p2260
asbag56
(g77
g58
NtRp2261
(dp2262
g61
(dp2263
g88
g89
ssg70
g2252
sg63
(lp2264
S':'
asbag56
(g77
g58
NtRp2265
(dp2266
g61
(dp2267
sg70
g2252
sg63
(lp2268
g56
(g57
g58
NtRp2269
(dp2270
g61
(dp2271
g69
I3
ssg70
g2265
sg63
(lp2272
g1253
asbasbasbag56
(g72
g58
NtRp2273
(dp2274
g61
(dp2275
sg70
g2185
sg63
(lp2276
g56
(g77
g58
NtRp2277
(dp2278
g61
(dp2279
g81
g82
ssg70
g2273
sg63
(lp2280
S'HTTP_CACHE_CONTROL'
p2281
asbag56
(g77
g58
NtRp2282
(dp2283
g61
(dp2284
g88
g89
ssg70
g2273
sg63
(lp2285
S':'
asbag56
(g77
g58
NtRp2286
(dp2287
g61
(dp2288
sg70
g2273
sg63
(lp2289
g56
(g57
g58
NtRp2290
(dp2291
g61
(dp2292
g69
I3
ssg70
g2286
sg63
(lp2293
g1275
asbasbasbag56
(g72
g58
NtRp2294
(dp2295
g61
(dp2296
sg70
g2185
sg63
(lp2297
g56
(g77
g58
NtRp2298
(dp2299
g61
(dp2300
g81
g82
ssg70
g2294
sg63
(lp2301
S'HTTP_CONNECTION'
p2302
asbag56
(g77
g58
NtRp2303
(dp2304
g61
(dp2305
g88
g89
ssg70
g2294
sg63
(lp2306
S':'
asbag56
(g77
g58
NtRp2307
(dp2308
g61
(dp2309
sg70
g2294
sg63
(lp2310
g56
(g57
g58
NtRp2311
(dp2312
g61
(dp2313
g69
I3
ssg70
g2307
sg63
(lp2314
g1297
asbasbasbag56
(g72
g58
NtRp2315
(dp2316
g61
(dp2317
sg70
g2185
sg63
(lp2318
g56
(g77
g58
NtRp2319
(dp2320
g61
(dp2321
g81
g82
ssg70
g2315
sg63
(lp2322
S'HTTP_COOKIE'
p2323
asbag56
(g77
g58
NtRp2324
(dp2325
g61
(dp2326
g88
g89
ssg70
g2315
sg63
(lp2327
S':'
asbag56
(g77
g58
NtRp2328
(dp2329
g61
(dp2330
sg70
g2315
sg63
(lp2331
g56
(g57
g58
NtRp2332
(dp2333
g61
(dp2334
g69
I3
ssg70
g2328
sg63
(lp2335
g1319
asbasbasbag56
(g72
g58
NtRp2336
(dp2337
g61
(dp2338
sg70
g2185
sg63
(lp2339
g56
(g77
g58
NtRp2340
(dp2341
g61
(dp2342
g81
g82
ssg70
g2336
sg63
(lp2343
S'HTTP_HOST'
p2344
asbag56
(g77
g58
NtRp2345
(dp2346
g61
(dp2347
g88
g89
ssg70
g2336
sg63
(lp2348
S':'
asbag56
(g77
g58
NtRp2349
(dp2350
g61
(dp2351
sg70
g2336
sg63
(lp2352
g56
(g57
g58
NtRp2353
(dp2354
g61
(dp2355
g69
I3
ssg70
g2349
sg63
(lp2356
g1341
asbasbasbag56
(g72
g58
NtRp2357
(dp2358
g61
(dp2359
sg70
g2185
sg63
(lp2360
g56
(g77
g58
NtRp2361
(dp2362
g61
(dp2363
g81
g82
ssg70
g2357
sg63
(lp2364
S'HTTP_REFERER'
p2365
asbag56
(g77
g58
NtRp2366
(dp2367
g61
(dp2368
g88
g89
ssg70
g2357
sg63
(lp2369
S':'
asbag56
(g77
g58
NtRp2370
(dp2371
g61
(dp2372
sg70
g2357
sg63
(lp2373
g56
(g57
g58
NtRp2374
(dp2375
g61
(dp2376
g69
I3
ssg70
g2370
sg63
(lp2377
g1363
asbasbasbag56
(g72
g58
NtRp2378
(dp2379
g61
(dp2380
sg70
g2185
sg63
(lp2381
g56
(g77
g58
NtRp2382
(dp2383
g61
(dp2384
g81
g82
ssg70
g2378
sg63
(lp2385
S'HTTP_USER_AGENT'
p2386
asbag56
(g77
g58
NtRp2387
(dp2388
g61
(dp2389
g88
g89
ssg70
g2378
sg63
(lp2390
S':'
asbag56
(g77
g58
NtRp2391
(dp2392
g61
(dp2393
sg70
g2378
sg63
(lp2394
g56
(g57
g58
NtRp2395
(dp2396
g61
(dp2397
g69
I3
ssg70
g2391
sg63
(lp2398
g1385
asbasbasbag56
(g72
g58
NtRp2399
(dp2400
g61
(dp2401
sg70
g2185
sg63
(lp2402
g56
(g77
g58
NtRp2403
(dp2404
g61
(dp2405
g81
g82
ssg70
g2399
sg63
(lp2406
S'PATH_INFO'
p2407
asbag56
(g77
g58
NtRp2408
(dp2409
g61
(dp2410
g88
g89
ssg70
g2399
sg63
(lp2411
S':'
asbag56
(g77
g58
NtRp2412
(dp2413
g61
(dp2414
sg70
g2399
sg63
(lp2415
g56
(g57
g58
NtRp2416
(dp2417
g61
(dp2418
g69
I3
ssg70
g2412
sg63
(lp2419
g1407
asbasbasbag56
(g72
g58
NtRp2420
(dp2421
g61
(dp2422
sg70
g2185
sg63
(lp2423
g56
(g77
g58
NtRp2424
(dp2425
g61
(dp2426
g81
g82
ssg70
g2420
sg63
(lp2427
S'QUERY_STRING'
p2428
asbag56
(g77
g58
NtRp2429
(dp2430
g61
(dp2431
g88
g89
ssg70
g2420
sg63
(lp2432
S':'
asbag56
(g77
g58
NtRp2433
(dp2434
g61
(dp2435
sg70
g2420
sg63
(lp2436
g56
(g57
g58
NtRp2437
(dp2438
g61
(dp2439
g69
I3
ssg70
g2433
sg63
(lp2440
S''
asbasbasbag56
(g72
g58
NtRp2441
(dp2442
g61
(dp2443
sg70
g2185
sg63
(lp2444
g56
(g77
g58
NtRp2445
(dp2446
g61
(dp2447
g81
g82
ssg70
g2441
sg63
(lp2448
S'REMOTE_ADDR'
p2449
asbag56
(g77
g58
NtRp2450
(dp2451
g61
(dp2452
g88
g89
ssg70
g2441
sg63
(lp2453
S':'
asbag56
(g77
g58
NtRp2454
(dp2455
g61
(dp2456
sg70
g2441
sg63
(lp2457
g56
(g57
g58
NtRp2458
(dp2459
g61
(dp2460
g69
I3
ssg70
g2454
sg63
(lp2461
g189
asbasbasbag56
(g72
g58
NtRp2462
(dp2463
g61
(dp2464
sg70
g2185
sg63
(lp2465
g56
(g77
g58
NtRp2466
(dp2467
g61
(dp2468
g81
g82
ssg70
g2462
sg63
(lp2469
S'REMOTE_PORT'
p2470
asbag56
(g77
g58
NtRp2471
(dp2472
g61
(dp2473
g88
g89
ssg70
g2462
sg63
(lp2474
S':'
asbag56
(g77
g58
NtRp2475
(dp2476
g61
(dp2477
sg70
g2462
sg63
(lp2478
g56
(g57
g58
NtRp2479
(dp2480
g61
(dp2481
g69
I3
ssg70
g2475
sg63
(lp2482
g1471
asbasbasbag56
(g72
g58
NtRp2483
(dp2484
g61
(dp2485
sg70
g2185
sg63
(lp2486
g56
(g77
g58
NtRp2487
(dp2488
g61
(dp2489
g81
g82
ssg70
g2483
sg63
(lp2490
S'REQUEST_METHOD'
p2491
asbag56
(g77
g58
NtRp2492
(dp2493
g61
(dp2494
g88
g89
ssg70
g2483
sg63
(lp2495
S':'
asbag56
(g77
g58
NtRp2496
(dp2497
g61
(dp2498
sg70
g2483
sg63
(lp2499
g56
(g57
g58
NtRp2500
(dp2501
g61
(dp2502
g69
I3
ssg70
g2496
sg63
(lp2503
g1493
asbasbasbag56
(g72
g58
NtRp2504
(dp2505
g61
(dp2506
sg70
g2185
sg63
(lp2507
g56
(g77
g58
NtRp2508
(dp2509
g61
(dp2510
g81
g82
ssg70
g2504
sg63
(lp2511
S'SCRIPT_NAME'
p2512
asbag56
(g77
g58
NtRp2513
(dp2514
g61
(dp2515
g88
g89
ssg70
g2504
sg63
(lp2516
S':'
asbag56
(g77
g58
NtRp2517
(dp2518
g61
(dp2519
sg70
g2504
sg63
(lp2520
g56
(g57
g58
NtRp2521
(dp2522
g61
(dp2523
g69
I3
ssg70
g2517
sg63
(lp2524
S''
asbasbasbag56
(g72
g58
NtRp2525
(dp2526
g61
(dp2527
sg70
g2185
sg63
(lp2528
g56
(g77
g58
NtRp2529
(dp2530
g61
(dp2531
g81
g82
ssg70
g2525
sg63
(lp2532
S'SERVER_NAME'
p2533
asbag56
(g77
g58
NtRp2534
(dp2535
g61
(dp2536
g88
g89
ssg70
g2525
sg63
(lp2537
S':'
asbag56
(g77
g58
NtRp2538
(dp2539
g61
(dp2540
sg70
g2525
sg63
(lp2541
g56
(g57
g58
NtRp2542
(dp2543
g61
(dp2544
g69
I3
ssg70
g2538
sg63
(lp2545
g1536
asbasbasbag56
(g72
g58
NtRp2546
(dp2547
g61
(dp2548
sg70
g2185
sg63
(lp2549
g56
(g77
g58
NtRp2550
(dp2551
g61
(dp2552
g81
g82
ssg70
g2546
sg63
(lp2553
S'SERVER_PORT'
p2554
asbag56
(g77
g58
NtRp2555
(dp2556
g61
(dp2557
g88
g89
ssg70
g2546
sg63
(lp2558
S':'
asbag56
(g77
g58
NtRp2559
(dp2560
g61
(dp2561
sg70
g2546
sg63
(lp2562
g56
(g57
g58
NtRp2563
(dp2564
g61
(dp2565
g69
I3
ssg70
g2559
sg63
(lp2566
g1558
asbasbasbag56
(g72
g58
NtRp2567
(dp2568
g61
(dp2569
sg70
g2185
sg63
(lp2570
g56
(g77
g58
NtRp2571
(dp2572
g61
(dp2573
g81
g82
ssg70
g2567
sg63
(lp2574
S'SERVER_PROTOCOL'
p2575
asbag56
(g77
g58
NtRp2576
(dp2577
g61
(dp2578
g88
g89
ssg70
g2567
sg63
(lp2579
S':'
asbag56
(g77
g58
NtRp2580
(dp2581
g61
(dp2582
sg70
g2567
sg63
(lp2583
g56
(g57
g58
NtRp2584
(dp2585
g61
(dp2586
g69
I3
ssg70
g2580
sg63
(lp2587
g1580
asbasbasbag56
(g72
g58
NtRp2588
(dp2589
g61
(dp2590
sg70
g2185
sg63
(lp2591
g56
(g77
g58
NtRp2592
(dp2593
g61
(dp2594
g81
g82
ssg70
g2588
sg63
(lp2595
S'SERVER_SOFTWARE'
p2596
asbag56
(g77
g58
NtRp2597
(dp2598
g61
(dp2599
g88
g89
ssg70
g2588
sg63
(lp2600
S':'
asbag56
(g77
g58
NtRp2601
(dp2602
g61
(dp2603
sg70
g2588
sg63
(lp2604
g56
(g57
g58
NtRp2605
(dp2606
g61
(dp2607
g69
I3
ssg70
g2601
sg63
(lp2608
g1602
asbasbasbag56
(g72
g58
NtRp2609
(dp2610
g61
(dp2611
sg70
g2185
sg63
(lp2612
g56
(g77
g58
NtRp2613
(dp2614
g61
(dp2615
g81
g82
ssg70
g2609
sg63
(lp2616
S'wsgi.errors'
p2617
asbag56
(g77
g58
NtRp2618
(dp2619
g61
(dp2620
g88
g89
ssg70
g2609
sg63
(lp2621
S':'
asbag56
(g77
g58
NtRp2622
(dp2623
g61
(dp2624
sg70
g2609
sg63
(lp2625
g56
(g57
g58
NtRp2626
(dp2627
g61
(dp2628
g69
I3
ssg70
g2622
sg63
(lp2629
S"<open file '<stderr>', mode 'w' at 0xb78200d0>"
p2630
asbasbasbag56
(g72
g58
NtRp2631
(dp2632
g61
(dp2633
sg70
g2185
sg63
(lp2634
g56
(g77
g58
NtRp2635
(dp2636
g61
(dp2637
g81
g82
ssg70
g2631
sg63
(lp2638
S'wsgi.file_wrapper'
p2639
asbag56
(g77
g58
NtRp2640
(dp2641
g61
(dp2642
g88
g89
ssg70
g2631
sg63
(lp2643
S':'
asbag56
(g77
g58
NtRp2644
(dp2645
g61
(dp2646
sg70
g2631
sg63
(lp2647
g56
(g57
g58
NtRp2648
(dp2649
g61
(dp2650
g69
I3
ssg70
g2644
sg63
(lp2651
S'<class gluon.rocket.FileWrapper at 0x969cb9c>'
p2652
asbasbasbag56
(g72
g58
NtRp2653
(dp2654
g61
(dp2655
sg70
g2185
sg63
(lp2656
g56
(g77
g58
NtRp2657
(dp2658
g61
(dp2659
g81
g82
ssg70
g2653
sg63
(lp2660
S'wsgi.input'
p2661
asbag56
(g77
g58
NtRp2662
(dp2663
g61
(dp2664
g88
g89
ssg70
g2653
sg63
(lp2665
S':'
asbag56
(g77
g58
NtRp2666
(dp2667
g61
(dp2668
sg70
g2653
sg63
(lp2669
g56
(g57
g58
NtRp2670
(dp2671
g61
(dp2672
g69
I3
ssg70
g2666
sg63
(lp2673
S'<cStringIO.StringO object at 0xa4c69a0>'
p2674
asbasbasbag56
(g72
g58
NtRp2675
(dp2676
g61
(dp2677
sg70
g2185
sg63
(lp2678
g56
(g77
g58
NtRp2679
(dp2680
g61
(dp2681
g81
g82
ssg70
g2675
sg63
(lp2682
S'wsgi.multiprocess'
p2683
asbag56
(g77
g58
NtRp2684
(dp2685
g61
(dp2686
g88
g89
ssg70
g2675
sg63
(lp2687
S':'
asbag56
(g77
g58
NtRp2688
(dp2689
g61
(dp2690
sg70
g2675
sg63
(lp2691
g56
(g57
g58
NtRp2692
(dp2693
g61
(dp2694
g69
I3
ssg70
g2688
sg63
(lp2695
g99
asbasbasbag56
(g72
g58
NtRp2696
(dp2697
g61
(dp2698
sg70
g2185
sg63
(lp2699
g56
(g77
g58
NtRp2700
(dp2701
g61
(dp2702
g81
g82
ssg70
g2696
sg63
(lp2703
S'wsgi.multithread'
p2704
asbag56
(g77
g58
NtRp2705
(dp2706
g61
(dp2707
g88
g89
ssg70
g2696
sg63
(lp2708
S':'
asbag56
(g77
g58
NtRp2709
(dp2710
g61
(dp2711
sg70
g2696
sg63
(lp2712
g56
(g57
g58
NtRp2713
(dp2714
g61
(dp2715
g69
I3
ssg70
g2709
sg63
(lp2716
g1776
asbasbasbag56
(g72
g58
NtRp2717
(dp2718
g61
(dp2719
sg70
g2185
sg63
(lp2720
g56
(g77
g58
NtRp2721
(dp2722
g61
(dp2723
g81
g82
ssg70
g2717
sg63
(lp2724
S'wsgi.run_once'
p2725
asbag56
(g77
g58
NtRp2726
(dp2727
g61
(dp2728
g88
g89
ssg70
g2717
sg63
(lp2729
S':'
asbag56
(g77
g58
NtRp2730
(dp2731
g61
(dp2732
sg70
g2717
sg63
(lp2733
g56
(g57
g58
NtRp2734
(dp2735
g61
(dp2736
g69
I3
ssg70
g2730
sg63
(lp2737
g99
asbasbasbag56
(g72
g58
NtRp2738
(dp2739
g61
(dp2740
sg70
g2185
sg63
(lp2741
g56
(g77
g58
NtRp2742
(dp2743
g61
(dp2744
g81
g82
ssg70
g2738
sg63
(lp2745
S'wsgi.url_scheme'
p2746
asbag56
(g77
g58
NtRp2747
(dp2748
g61
(dp2749
g88
g89
ssg70
g2738
sg63
(lp2750
S':'
asbag56
(g77
g58
NtRp2751
(dp2752
g61
(dp2753
sg70
g2738
sg63
(lp2754
g56
(g57
g58
NtRp2755
(dp2756
g61
(dp2757
g69
I3
ssg70
g2751
sg63
(lp2758
g1819
asbasbasbag56
(g72
g58
NtRp2759
(dp2760
g61
(dp2761
sg70
g2185
sg63
(lp2762
g56
(g77
g58
NtRp2763
(dp2764
g61
(dp2765
g81
g82
ssg70
g2759
sg63
(lp2766
S'wsgi.version'
p2767
asbag56
(g77
g58
NtRp2768
(dp2769
g61
(dp2770
g88
g89
ssg70
g2759
sg63
(lp2771
S':'
asbag56
(g77
g58
NtRp2772
(dp2773
g61
(dp2774
sg70
g2759
sg63
(lp2775
g56
(g57
g58
NtRp2776
(dp2777
g61
(dp2778
g69
I3
ssg70
g2772
sg63
(lp2779
S'1'
asbasbasbasbasbasbasbasbasbasbasbasbasbsS'frames'
p2780
(lp2781
(dp2782
S'file'
p2783
S'/home/alumno/web2py/gluon/restricted.py'
p2784
sS'dump'
p2785
(dp2786
S'environment'
p2787
S"{'A': <class 'gluon.html.A'>, 'B': <class 'gluon.html.B'>, 'BEAUTIFY': <class 'gluon.html.BEAUTIFY'>, 'BODY': <class 'gluon.html.BODY'>, 'BR': <class 'gluon.html.BR'>, 'CENTER': <class 'gluon.html.CENTER'>, 'CLEANUP': <class 'gluon.validators.CLEANUP'>, 'CODE': <class 'gluon.html.CODE'>, 'CRYPT': <class 'gluon.validators.CRYPT'>, 'DAL': <class 'gluon.dal.DAL'>, ...}"
p2788
sS'ccode'
p2789
S'<code object <module> at 0xa38c188, file "/home/...ications/datos/views/default/index.html", line 1>'
p2790
ssS'lnum'
p2791
I192
sS'lines'
p2792
(dp2793
I192
S'        exec ccode in environment'
p2794
sI193
S'    except HTTP:'
p2795
sI194
S'        raise'
p2796
sI195
S'    except Exception:'
p2797
sI196
S'        # XXX Show exception in Wing IDE if running in debugger'
p2798
sI187
S'    try:'
p2799
sI188
S'        if type(code) == types.CodeType:'
p2800
sI189
S'            ccode = code'
p2801
sI190
S'        else:'
p2802
sI191
S'            ccode = compile2(code,layer)'
p2803
ssS'call'
p2804
S'(code=\'response.write(\\\'<!DOCTYPE html>\\\\n<html lang="\\\', ...t   -->    \\\\n  </body>\\\\n</html>\\\\n\\\', escape=False)\', environment={\'A\': <class \'gluon.html.A\'>, \'B\': <class \'gluon.html.B\'>, \'BEAUTIFY\': <class \'gluon.html.BEAUTIFY\'>, \'BODY\': <class \'gluon.html.BODY\'>, \'BR\': <class \'gluon.html.BR\'>, \'CENTER\': <class \'gluon.html.CENTER\'>, \'CLEANUP\': <class \'gluon.validators.CLEANUP\'>, \'CODE\': <class \'gluon.html.CODE\'>, \'CRYPT\': <class \'gluon.validators.CRYPT\'>, \'DAL\': <class \'gluon.dal.DAL\'>, ...}, layer=\'/home/alumno/web2py/applications/datos/views/default/index.html\')'
p2805
sS'func'
p2806
S'restricted'
p2807
sa(dp2808
g2783
S'/home/alumno/web2py/applications/datos/views/default/index.html'
p2809
sg2785
(dp2810
sg2791
I101
sg2792
(dp2811
I96
S'    pass'
p2812
sI97
S'response.write(\'\\n\\n\\t  <!-- content -->\\n\\t  <div id="content" \', escape=False)'
p2813
sI98
S'response.write(XML(style_content))'
p2814
sI99
S"response.write(' >\\n\\t    ', escape=False)"
p2815
sI100
S"response.write('\\n<h1>Alumnos</h1>\\n<p>este es el registro de alumnos en el sistema\\n\\n', escape=False)"
p2816
sI101
S'for alumnos in alumno:'
p2817
sI102
S"    response.write('\\n<ul>\\n    <li><em>', escape=False)"
p2818
sI103
S'    response.write(alumno.nombre)'
p2819
sI104
S"    response.write('</em> <strong>', escape=False)"
p2820
sI105
S'    response.write(alumno.apellidos)'
p2821
sI106
S"    response.write('</strong></li>\\n</ul>    \\n', escape=False)"
p2822
sI107
S'    pass'
p2823
sI108
S"response.write('\\n\\n</p>\\n', escape=False)"
p2824
sI109
S"response.write('\\t\\n\\t  </div>\\n\\t  <!-- content -->\\n\\n\\t  ', escape=False)"
p2825
sI110
S'if right_sidebar_enabled:'
p2826
sI111
S'    response.write(\'\\n          <div id="right_sidebar" \', escape=False)'
p2827
sI92
S'    response.write(XML(left_sidebar_style))'
p2828
sI93
S'    response.write(\' >\\n            <div style="padding: 4px;">\\n\\t      \', escape=False)'
p2829
sI94
S"    response.write('Content Left Sidebar', escape=False)"
p2830
sI95
S"    response.write('\\t\\t  \\n            </div>\\n          </div><!-- left_sidebar -->\\n\\t  ', escape=False)"
p2831
ssg2804
S'()'
p2832
sg2806
S'<module>'
p2833
sasS'pyver'
p2834
S'Python 2.6.6: /usr/bin/python'
p2835
sS'session'
p2836
g56
(g57
g58
NtRp2837
(dp2838
g61
(dp2839
sg63
(lp2840
g56
(g65
g58
NtRp2841
(dp2842
g61
(dp2843
g69
I5
ssg70
Nsg63
(lp2844
g56
(g72
g58
NtRp2845
(dp2846
g61
(dp2847
sg70
g2841
sg63
(lp2848
g56
(g77
g58
NtRp2849
(dp2850
g61
(dp2851
g81
g82
ssg70
g2845
sg63
(lp2852
S'last_query'
p2853
asbag56
(g77
g58
NtRp2854
(dp2855
g61
(dp2856
g88
g89
ssg70
g2845
sg63
(lp2857
S':'
asbag56
(g77
g58
NtRp2858
(dp2859
g61
(dp2860
sg70
g2845
sg63
(lp2861
g56
(g57
g58
NtRp2862
(dp2863
g61
(dp2864
g69
I5
ssg70
g2858
sg63
(lp2865
S'db.profesor.id>0'
p2866
asbasbasbasbasbsS'etype'
p2867
S"<type 'exceptions.NameError'>"
p2868
sS'date'
p2869
S'Wed Sep  7 20:11:05 2011'
p2870
sS'response'
p2871
g56
(g57
g58
NtRp2872
(dp2873
g61
(dp2874
sg63
(lp2875
g56
(g65
g58
NtRp2876
(dp2877
g61
(dp2878
g69
I5
ssg70
Nsg63
(lp2879
g56
(g72
g58
NtRp2880
(dp2881
g61
(dp2882
sg70
g2876
sg63
(lp2883
g56
(g77
g58
NtRp2884
(dp2885
g61
(dp2886
g81
g82
ssg70
g2880
sg63
(lp2887
g154
asbag56
(g77
g58
NtRp2888
(dp2889
g61
(dp2890
g88
g89
ssg70
g2880
sg63
(lp2891
S':'
asbag56
(g77
g58
NtRp2892
(dp2893
g61
(dp2894
sg70
g2880
sg63
(lp2895
g56
(g57
g58
NtRp2896
(dp2897
g61
(dp2898
g69
I5
ssg70
g2892
sg63
(lp2899
S'<cStringIO.StringO object at 0x9d68760>'
p2900
asbasbasbag56
(g72
g58
NtRp2901
(dp2902
g61
(dp2903
sg70
g2876
sg63
(lp2904
g56
(g77
g58
NtRp2905
(dp2906
g61
(dp2907
g81
g82
ssg70
g2901
sg63
(lp2908
g220
asbag56
(g77
g58
NtRp2909
(dp2910
g61
(dp2911
g88
g89
ssg70
g2901
sg63
(lp2912
S':'
asbag56
(g77
g58
NtRp2913
(dp2914
g61
(dp2915
sg70
g2901
sg63
(lp2916
g56
(g57
g58
NtRp2917
(dp2918
g61
(dp2919
g69
I5
ssg70
g2913
sg63
(lp2920
g56
(g65
g58
NtRp2921
(dp2922
g61
(dp2923
g69
I4
ssg70
Nsg63
(lp2924
g56
(g72
g58
NtRp2925
(dp2926
g61
(dp2927
sg70
g2921
sg63
(lp2928
g56
(g77
g58
NtRp2929
(dp2930
g61
(dp2931
g81
g82
ssg70
g2925
sg63
(lp2932
S'session_id_datos'
p2933
asbag56
(g77
g58
NtRp2934
(dp2935
g61
(dp2936
g88
g89
ssg70
g2925
sg63
(lp2937
S':'
asbag56
(g77
g58
NtRp2938
(dp2939
g61
(dp2940
sg70
g2925
sg63
(lp2941
g56
(g57
g58
NtRp2942
(dp2943
g61
(dp2944
g69
I4
ssg70
g2938
sg63
(lp2945
g56
(g65
g58
NtRp2946
(dp2947
g61
(dp2948
g69
I3
ssg70
Nsg63
(lp2949
g56
(g72
g58
NtRp2950
(dp2951
g61
(dp2952
sg70
g2946
sg63
(lp2953
g56
(g77
g58
NtRp2954
(dp2955
g61
(dp2956
g81
g82
ssg70
g2950
sg63
(lp2957
g270
asbag56
(g77
g58
NtRp2958
(dp2959
g61
(dp2960
g88
g89
ssg70
g2950
sg63
(lp2961
S':'
asbag56
(g77
g58
NtRp2962
(dp2963
g61
(dp2964
sg70
g2950
sg63
(lp2965
g56
(g57
g58
NtRp2966
(dp2967
g61
(dp2968
g69
I3
ssg70
g2962
sg63
(lp2969
S''
asbasbasbag56
(g72
g58
NtRp2970
(dp2971
g61
(dp2972
sg70
g2946
sg63
(lp2973
g56
(g77
g58
NtRp2974
(dp2975
g61
(dp2976
g81
g82
ssg70
g2970
sg63
(lp2977
g291
asbag56
(g77
g58
NtRp2978
(dp2979
g61
(dp2980
g88
g89
ssg70
g2970
sg63
(lp2981
S':'
asbag56
(g77
g58
NtRp2982
(dp2983
g61
(dp2984
sg70
g2970
sg63
(lp2985
g56
(g57
g58
NtRp2986
(dp2987
g61
(dp2988
g69
I3
ssg70
g2982
sg63
(lp2989
S''
asbasbasbag56
(g72
g58
NtRp2990
(dp2991
g61
(dp2992
sg70
g2946
sg63
(lp2993
g56
(g77
g58
NtRp2994
(dp2995
g61
(dp2996
g81
g82
ssg70
g2990
sg63
(lp2997
g312
asbag56
(g77
g58
NtRp2998
(dp2999
g61
(dp3000
g88
g89
ssg70
g2990
sg63
(lp3001
S':'
asbag56
(g77
g58
NtRp3002
(dp3003
g61
(dp3004
sg70
g2990
sg63
(lp3005
g56
(g57
g58
NtRp3006
(dp3007
g61
(dp3008
g69
I3
ssg70
g3002
sg63
(lp3009
S''
asbasbasbag56
(g72
g58
NtRp3010
(dp3011
g61
(dp3012
sg70
g2946
sg63
(lp3013
g56
(g77
g58
NtRp3014
(dp3015
g61
(dp3016
g81
g82
ssg70
g3010
sg63
(lp3017
g333
asbag56
(g77
g58
NtRp3018
(dp3019
g61
(dp3020
g88
g89
ssg70
g3010
sg63
(lp3021
S':'
asbag56
(g77
g58
NtRp3022
(dp3023
g61
(dp3024
sg70
g3010
sg63
(lp3025
g56
(g57
g58
NtRp3026
(dp3027
g61
(dp3028
g69
I3
ssg70
g3022
sg63
(lp3029
S''
asbasbasbag56
(g72
g58
NtRp3030
(dp3031
g61
(dp3032
sg70
g2946
sg63
(lp3033
g56
(g77
g58
NtRp3034
(dp3035
g61
(dp3036
g81
g82
ssg70
g3030
sg63
(lp3037
g354
asbag56
(g77
g58
NtRp3038
(dp3039
g61
(dp3040
g88
g89
ssg70
g3030
sg63
(lp3041
S':'
asbag56
(g77
g58
NtRp3042
(dp3043
g61
(dp3044
sg70
g3030
sg63
(lp3045
g56
(g57
g58
NtRp3046
(dp3047
g61
(dp3048
g69
I3
ssg70
g3042
sg63
(lp3049
S''
asbasbasbag56
(g72
g58
NtRp3050
(dp3051
g61
(dp3052
sg70
g2946
sg63
(lp3053
g56
(g77
g58
NtRp3054
(dp3055
g61
(dp3056
g81
g82
ssg70
g3050
sg63
(lp3057
g375
asbag56
(g77
g58
NtRp3058
(dp3059
g61
(dp3060
g88
g89
ssg70
g3050
sg63
(lp3061
S':'
asbag56
(g77
g58
NtRp3062
(dp3063
g61
(dp3064
sg70
g3050
sg63
(lp3065
g56
(g57
g58
NtRp3066
(dp3067
g61
(dp3068
g69
I3
ssg70
g3062
sg63
(lp3069
S'/'
asbasbasbag56
(g72
g58
NtRp3070
(dp3071
g61
(dp3072
sg70
g2946
sg63
(lp3073
g56
(g77
g58
NtRp3074
(dp3075
g61
(dp3076
g81
g82
ssg70
g3070
sg63
(lp3077
g396
asbag56
(g77
g58
NtRp3078
(dp3079
g61
(dp3080
g88
g89
ssg70
g3070
sg63
(lp3081
S':'
asbag56
(g77
g58
NtRp3082
(dp3083
g61
(dp3084
sg70
g3070
sg63
(lp3085
g56
(g57
g58
NtRp3086
(dp3087
g61
(dp3088
g69
I3
ssg70
g3082
sg63
(lp3089
S''
asbasbasbag56
(g72
g58
NtRp3090
(dp3091
g61
(dp3092
sg70
g2946
sg63
(lp3093
g56
(g77
g58
NtRp3094
(dp3095
g61
(dp3096
g81
g82
ssg70
g3090
sg63
(lp3097
g417
asbag56
(g77
g58
NtRp3098
(dp3099
g61
(dp3100
g88
g89
ssg70
g3090
sg63
(lp3101
S':'
asbag56
(g77
g58
NtRp3102
(dp3103
g61
(dp3104
sg70
g3090
sg63
(lp3105
g56
(g57
g58
NtRp3106
(dp3107
g61
(dp3108
g69
I3
ssg70
g3102
sg63
(lp3109
S''
asbasbasbasbasbasbasbasbasbasbasbag56
(g72
g58
NtRp3110
(dp3111
g61
(dp3112
sg70
g2876
sg63
(lp3113
g56
(g77
g58
NtRp3114
(dp3115
g61
(dp3116
g81
g82
ssg70
g3110
sg63
(lp3117
S'files'
p3118
asbag56
(g77
g58
NtRp3119
(dp3120
g61
(dp3121
g88
g89
ssg70
g3110
sg63
(lp3122
S':'
asbag56
(g77
g58
NtRp3123
(dp3124
g61
(dp3125
sg70
g3110
sg63
(lp3126
g56
(g57
g58
NtRp3127
(dp3128
g61
(dp3129
g69
I5
ssg70
g3123
sg63
(lp3130
g56
(g65
g58
NtRp3131
(dp3132
g61
(dp3133
g69
I4
ssg70
Nsg63
(lp3134
g56
(g72
g58
NtRp3135
(dp3136
g61
(dp3137
sg70
g3131
sg63
(lp3138
g56
(g77
g58
NtRp3139
(dp3140
g61
(dp3141
sg70
g3135
sg63
(lp3142
g56
(g57
g58
NtRp3143
(dp3144
g61
(dp3145
g69
I4
ssg70
g3139
sg63
(lp3146
S'/datos/static/js/jquery.js'
p3147
asbasbasbag56
(g72
g58
NtRp3148
(dp3149
g61
(dp3150
sg70
g3131
sg63
(lp3151
g56
(g77
g58
NtRp3152
(dp3153
g61
(dp3154
sg70
g3148
sg63
(lp3155
g56
(g57
g58
NtRp3156
(dp3157
g61
(dp3158
g69
I4
ssg70
g3152
sg63
(lp3159
S'/datos/static/css/calendar.css'
p3160
asbasbasbag56
(g72
g58
NtRp3161
(dp3162
g61
(dp3163
sg70
g3131
sg63
(lp3164
g56
(g77
g58
NtRp3165
(dp3166
g61
(dp3167
sg70
g3161
sg63
(lp3168
g56
(g57
g58
NtRp3169
(dp3170
g61
(dp3171
g69
I4
ssg70
g3165
sg63
(lp3172
S'/datos/static/js/calendar.js'
p3173
asbasbasbag56
(g72
g58
NtRp3174
(dp3175
g61
(dp3176
sg70
g3131
sg63
(lp3177
g56
(g77
g58
NtRp3178
(dp3179
g61
(dp3180
sg70
g3174
sg63
(lp3181
g56
(g57
g58
NtRp3182
(dp3183
g61
(dp3184
g69
I4
ssg70
g3178
sg63
(lp3185
S'/datos/static/css/base.css'
p3186
asbasbasbag56
(g72
g58
NtRp3187
(dp3188
g61
(dp3189
sg70
g3131
sg63
(lp3190
g56
(g77
g58
NtRp3191
(dp3192
g61
(dp3193
sg70
g3187
sg63
(lp3194
g56
(g57
g58
NtRp3195
(dp3196
g61
(dp3197
g69
I4
ssg70
g3191
sg63
(lp3198
S'/datos/static/css/superfish.css'
p3199
asbasbasbag56
(g72
g58
NtRp3200
(dp3201
g61
(dp3202
sg70
g3131
sg63
(lp3203
g56
(g77
g58
NtRp3204
(dp3205
g61
(dp3206
sg70
g3200
sg63
(lp3207
g56
(g57
g58
NtRp3208
(dp3209
g61
(dp3210
g69
I4
ssg70
g3204
sg63
(lp3211
S'/datos/static/js/superfish.js'
p3212
asbasbasbasbasbasbasbag56
(g72
g58
NtRp3213
(dp3214
g61
(dp3215
sg70
g2876
sg63
(lp3216
g56
(g77
g58
NtRp3217
(dp3218
g61
(dp3219
g81
g82
ssg70
g3213
sg63
(lp3220
S'flash'
p3221
asbag56
(g77
g58
NtRp3222
(dp3223
g61
(dp3224
g88
g89
ssg70
g3213
sg63
(lp3225
S':'
asbag56
(g77
g58
NtRp3226
(dp3227
g61
(dp3228
sg70
g3213
sg63
(lp3229
g56
(g57
g58
NtRp3230
(dp3231
g61
(dp3232
g69
I5
ssg70
g3226
sg63
(lp3233
S''
asbasbasbag56
(g72
g58
NtRp3234
(dp3235
g61
(dp3236
sg70
g2876
sg63
(lp3237
g56
(g77
g58
NtRp3238
(dp3239
g61
(dp3240
g81
g82
ssg70
g3234
sg63
(lp3241
S'headers'
p3242
asbag56
(g77
g58
NtRp3243
(dp3244
g61
(dp3245
g88
g89
ssg70
g3234
sg63
(lp3246
S':'
asbag56
(g77
g58
NtRp3247
(dp3248
g61
(dp3249
sg70
g3234
sg63
(lp3250
g56
(g57
g58
NtRp3251
(dp3252
g61
(dp3253
g69
I5
ssg70
g3247
sg63
(lp3254
g56
(g65
g58
NtRp3255
(dp3256
g61
(dp3257
g69
I4
ssg70
Nsg63
(lp3258
g56
(g72
g58
NtRp3259
(dp3260
g61
(dp3261
sg70
g3255
sg63
(lp3262
g56
(g77
g58
NtRp3263
(dp3264
g61
(dp3265
g81
g82
ssg70
g3259
sg63
(lp3266
S'Cache-Control'
p3267
asbag56
(g77
g58
NtRp3268
(dp3269
g61
(dp3270
g88
g89
ssg70
g3259
sg63
(lp3271
S':'
asbag56
(g77
g58
NtRp3272
(dp3273
g61
(dp3274
sg70
g3259
sg63
(lp3275
g56
(g57
g58
NtRp3276
(dp3277
g61
(dp3278
g69
I4
ssg70
g3272
sg63
(lp3279
S'no-store, no-cache, must-revalidate, post-check=0, pre-check=0'
p3280
asbasbasbag56
(g72
g58
NtRp3281
(dp3282
g61
(dp3283
sg70
g3255
sg63
(lp3284
g56
(g77
g58
NtRp3285
(dp3286
g61
(dp3287
g81
g82
ssg70
g3281
sg63
(lp3288
S'Content-Type'
p3289
asbag56
(g77
g58
NtRp3290
(dp3291
g61
(dp3292
g88
g89
ssg70
g3281
sg63
(lp3293
S':'
asbag56
(g77
g58
NtRp3294
(dp3295
g61
(dp3296
sg70
g3281
sg63
(lp3297
g56
(g57
g58
NtRp3298
(dp3299
g61
(dp3300
g69
I4
ssg70
g3294
sg63
(lp3301
S'text/html; charset=utf-8'
p3302
asbasbasbag56
(g72
g58
NtRp3303
(dp3304
g61
(dp3305
sg70
g3255
sg63
(lp3306
g56
(g77
g58
NtRp3307
(dp3308
g61
(dp3309
g81
g82
ssg70
g3303
sg63
(lp3310
S'Expires'
p3311
asbag56
(g77
g58
NtRp3312
(dp3313
g61
(dp3314
g88
g89
ssg70
g3303
sg63
(lp3315
S':'
asbag56
(g77
g58
NtRp3316
(dp3317
g61
(dp3318
sg70
g3303
sg63
(lp3319
g56
(g57
g58
NtRp3320
(dp3321
g61
(dp3322
g69
I4
ssg70
g3316
sg63
(lp3323
S'Thu, 08 Sep 2011 01:11:05 GMT'
p3324
asbasbasbag56
(g72
g58
NtRp3325
(dp3326
g61
(dp3327
sg70
g3255
sg63
(lp3328
g56
(g77
g58
NtRp3329
(dp3330
g61
(dp3331
g81
g82
ssg70
g3325
sg63
(lp3332
S'Pragma'
p3333
asbag56
(g77
g58
NtRp3334
(dp3335
g61
(dp3336
g88
g89
ssg70
g3325
sg63
(lp3337
S':'
asbag56
(g77
g58
NtRp3338
(dp3339
g61
(dp3340
sg70
g3325
sg63
(lp3341
g56
(g57
g58
NtRp3342
(dp3343
g61
(dp3344
g69
I4
ssg70
g3338
sg63
(lp3345
S'no-cache'
p3346
asbasbasbag56
(g72
g58
NtRp3347
(dp3348
g61
(dp3349
sg70
g3255
sg63
(lp3350
g56
(g77
g58
NtRp3351
(dp3352
g61
(dp3353
g81
g82
ssg70
g3347
sg63
(lp3354
S'X-Powered-By'
p3355
asbag56
(g77
g58
NtRp3356
(dp3357
g61
(dp3358
g88
g89
ssg70
g3347
sg63
(lp3359
S':'
asbag56
(g77
g58
NtRp3360
(dp3361
g61
(dp3362
sg70
g3347
sg63
(lp3363
g56
(g57
g58
NtRp3364
(dp3365
g61
(dp3366
g69
I4
ssg70
g3360
sg63
(lp3367
S'web2py'
p3368
asbasbasbasbasbasbasbag56
(g72
g58
NtRp3369
(dp3370
g61
(dp3371
sg70
g2876
sg63
(lp3372
g56
(g77
g58
NtRp3373
(dp3374
g61
(dp3375
g81
g82
ssg70
g3369
sg63
(lp3376
S'menu'
p3377
asbag56
(g77
g58
NtRp3378
(dp3379
g61
(dp3380
g88
g89
ssg70
g3369
sg63
(lp3381
S':'
asbag56
(g77
g58
NtRp3382
(dp3383
g61
(dp3384
sg70
g3369
sg63
(lp3385
g56
(g57
g58
NtRp3386
(dp3387
g61
(dp3388
g69
I5
ssg70
g3382
sg63
(lp3389
g56
(g65
g58
NtRp3390
(dp3391
g61
(dp3392
g69
I4
ssg70
Nsg63
(lp3393
g56
(g72
g58
NtRp3394
(dp3395
g61
(dp3396
sg70
g3390
sg63
(lp3397
g56
(g77
g58
NtRp3398
(dp3399
g61
(dp3400
sg70
g3394
sg63
(lp3401
g56
(g57
g58
NtRp3402
(dp3403
g61
(dp3404
g69
I4
ssg70
g3398
sg63
(lp3405
g56
(g65
g58
NtRp3406
(dp3407
g61
(dp3408
g69
I3
ssg70
Nsg63
(lp3409
g56
(g72
g58
NtRp3410
(dp3411
g61
(dp3412
sg70
g3406
sg63
(lp3413
g56
(g77
g58
NtRp3414
(dp3415
g61
(dp3416
sg70
g3410
sg63
(lp3417
g56
(g57
g58
NtRp3418
(dp3419
g61
(dp3420
g69
I3
ssg70
g3414
sg63
(lp3421
cgluon.languages
lazyT_unpickle
p3422
(S's\x04\x00\x00\x00Home'
tRp3423
asbasbasbag56
(g72
g58
NtRp3424
(dp3425
g61
(dp3426
sg70
g3406
sg63
(lp3427
g56
(g77
g58
NtRp3428
(dp3429
g61
(dp3430
sg70
g3424
sg63
(lp3431
g56
(g57
g58
NtRp3432
(dp3433
g61
(dp3434
g69
I3
ssg70
g3428
sg63
(lp3435
g99
asbasbasbag56
(g72
g58
NtRp3436
(dp3437
g61
(dp3438
sg70
g3406
sg63
(lp3439
g56
(g77
g58
NtRp3440
(dp3441
g61
(dp3442
sg70
g3436
sg63
(lp3443
g56
(g57
g58
NtRp3444
(dp3445
g61
(dp3446
g69
I3
ssg70
g3440
sg63
(lp3447
S'/datos/default/index'
p3448
asbasbasbag56
(g72
g58
NtRp3449
(dp3450
g61
(dp3451
sg70
g3406
sg63
(lp3452
g56
(g77
g58
NtRp3453
(dp3454
g61
(dp3455
sg70
g3449
sg63
(lp3456
g56
(g57
g58
NtRp3457
(dp3458
g61
(dp3459
g69
I3
ssg70
g3453
sg63
(lp3460
g56
(g65
g58
NtRp3461
(dp3462
g61
(dp3463
g69
I2
ssg70
Nsg63
(lp3464
sbasbasbasbasbasbasbasbag56
(g72
g58
NtRp3465
(dp3466
g61
(dp3467
sg70
g3390
sg63
(lp3468
g56
(g77
g58
NtRp3469
(dp3470
g61
(dp3471
sg70
g3465
sg63
(lp3472
g56
(g57
g58
NtRp3473
(dp3474
g61
(dp3475
g69
I4
ssg70
g3469
sg63
(lp3476
g56
(g65
g58
NtRp3477
(dp3478
g61
(dp3479
g69
I3
ssg70
Nsg63
(lp3480
g56
(g72
g58
NtRp3481
(dp3482
g61
(dp3483
sg70
g3477
sg63
(lp3484
g56
(g77
g58
NtRp3485
(dp3486
g61
(dp3487
sg70
g3481
sg63
(lp3488
g56
(g57
g58
NtRp3489
(dp3490
g61
(dp3491
g69
I3
ssg70
g3485
sg63
(lp3492
g3422
(S's\x08\x00\x00\x00This App'
tRp3493
asbasbasbag56
(g72
g58
NtRp3494
(dp3495
g61
(dp3496
sg70
g3477
sg63
(lp3497
g56
(g77
g58
NtRp3498
(dp3499
g61
(dp3500
sg70
g3494
sg63
(lp3501
g56
(g57
g58
NtRp3502
(dp3503
g61
(dp3504
g69
I3
ssg70
g3498
sg63
(lp3505
g99
asbasbasbag56
(g72
g58
NtRp3506
(dp3507
g61
(dp3508
sg70
g3477
sg63
(lp3509
g56
(g77
g58
NtRp3510
(dp3511
g61
(dp3512
sg70
g3506
sg63
(lp3513
g56
(g57
g58
NtRp3514
(dp3515
g61
(dp3516
g69
I3
ssg70
g3510
sg63
(lp3517
S'/admin/default/design/datos'
p3518
asbasbasbag56
(g72
g58
NtRp3519
(dp3520
g61
(dp3521
sg70
g3477
sg63
(lp3522
g56
(g77
g58
NtRp3523
(dp3524
g61
(dp3525
sg70
g3519
sg63
(lp3526
g56
(g57
g58
NtRp3527
(dp3528
g61
(dp3529
g69
I3
ssg70
g3523
sg63
(lp3530
g56
(g65
g58
NtRp3531
(dp3532
g61
(dp3533
g69
I2
ssg70
Nsg63
(lp3534
g56
(g72
g58
NtRp3535
(dp3536
g61
(dp3537
sg70
g3531
sg63
(lp3538
g56
(g77
g58
NtRp3539
(dp3540
g61
(dp3541
sg70
g3535
sg63
(lp3542
g56
(g57
g58
NtRp3543
(dp3544
g61
(dp3545
g69
I2
ssg70
g3539
sg63
(lp3546
g56
(g65
g58
NtRp3547
(dp3548
g61
(dp3549
g69
I1
ssg70
Nsg63
(lp3550
g56
(g72
g58
NtRp3551
(dp3552
g61
(dp3553
sg70
g3547
sg63
(lp3554
g56
(g77
g58
NtRp3555
(dp3556
g61
(dp3557
sg70
g3551
sg63
(lp3558
g56
(g57
g58
NtRp3559
(dp3560
g61
(dp3561
g69
I1
ssg70
g3555
sg63
(lp3562
g3422
(S's\n\x00\x00\x00Controller'
tRp3563
asbasbasbag56
(g72
g58
NtRp3564
(dp3565
g61
(dp3566
sg70
g3547
sg63
(lp3567
g56
(g77
g58
NtRp3568
(dp3569
g61
(dp3570
sg70
g3564
sg63
(lp3571
g56
(g57
g58
NtRp3572
(dp3573
g61
(dp3574
g69
I1
ssg70
g3568
sg63
(lp3575
I00
asbasbasbag56
(g72
g58
NtRp3576
(dp3577
g61
(dp3578
sg70
g3547
sg63
(lp3579
g56
(g77
g58
NtRp3580
(dp3581
g61
(dp3582
sg70
g3576
sg63
(lp3583
g56
(g57
g58
NtRp3584
(dp3585
g61
(dp3586
g69
I1
ssg70
g3580
sg63
(lp3587
S'/admin/default/edit/datos/controllers/default.py'
p3588
asbasbasbasbasbasbasbag56
(g72
g58
NtRp3589
(dp3590
g61
(dp3591
sg70
g3531
sg63
(lp3592
g56
(g77
g58
NtRp3593
(dp3594
g61
(dp3595
sg70
g3589
sg63
(lp3596
g56
(g57
g58
NtRp3597
(dp3598
g61
(dp3599
g69
I2
ssg70
g3593
sg63
(lp3600
g56
(g65
g58
NtRp3601
(dp3602
g61
(dp3603
g69
I1
ssg70
Nsg63
(lp3604
g56
(g72
g58
NtRp3605
(dp3606
g61
(dp3607
sg70
g3601
sg63
(lp3608
g56
(g77
g58
NtRp3609
(dp3610
g61
(dp3611
sg70
g3605
sg63
(lp3612
g56
(g57
g58
NtRp3613
(dp3614
g61
(dp3615
g69
I1
ssg70
g3609
sg63
(lp3616
g3422
(S's\x04\x00\x00\x00View'
tRp3617
asbasbasbag56
(g72
g58
NtRp3618
(dp3619
g61
(dp3620
sg70
g3601
sg63
(lp3621
g56
(g77
g58
NtRp3622
(dp3623
g61
(dp3624
sg70
g3618
sg63
(lp3625
g56
(g57
g58
NtRp3626
(dp3627
g61
(dp3628
g69
I1
ssg70
g3622
sg63
(lp3629
I00
asbasbasbag56
(g72
g58
NtRp3630
(dp3631
g61
(dp3632
sg70
g3601
sg63
(lp3633
g56
(g77
g58
NtRp3634
(dp3635
g61
(dp3636
sg70
g3630
sg63
(lp3637
g56
(g57
g58
NtRp3638
(dp3639
g61
(dp3640
g69
I1
ssg70
g3634
sg63
(lp3641
S'/admin/default/edit/datos/views/default/index.html'
p3642
asbasbasbasbasbasbasbag56
(g72
g58
NtRp3643
(dp3644
g61
(dp3645
sg70
g3531
sg63
(lp3646
g56
(g77
g58
NtRp3647
(dp3648
g61
(dp3649
sg70
g3643
sg63
(lp3650
g56
(g57
g58
NtRp3651
(dp3652
g61
(dp3653
g69
I2
ssg70
g3647
sg63
(lp3654
g56
(g65
g58
NtRp3655
(dp3656
g61
(dp3657
g69
I1
ssg70
Nsg63
(lp3658
g56
(g72
g58
NtRp3659
(dp3660
g61
(dp3661
sg70
g3655
sg63
(lp3662
g56
(g77
g58
NtRp3663
(dp3664
g61
(dp3665
sg70
g3659
sg63
(lp3666
g56
(g57
g58
NtRp3667
(dp3668
g61
(dp3669
g69
I1
ssg70
g3663
sg63
(lp3670
g3422
(S's\x06\x00\x00\x00Layout'
tRp3671
asbasbasbag56
(g72
g58
NtRp3672
(dp3673
g61
(dp3674
sg70
g3655
sg63
(lp3675
g56
(g77
g58
NtRp3676
(dp3677
g61
(dp3678
sg70
g3672
sg63
(lp3679
g56
(g57
g58
NtRp3680
(dp3681
g61
(dp3682
g69
I1
ssg70
g3676
sg63
(lp3683
I00
asbasbasbag56
(g72
g58
NtRp3684
(dp3685
g61
(dp3686
sg70
g3655
sg63
(lp3687
g56
(g77
g58
NtRp3688
(dp3689
g61
(dp3690
sg70
g3684
sg63
(lp3691
g56
(g57
g58
NtRp3692
(dp3693
g61
(dp3694
g69
I1
ssg70
g3688
sg63
(lp3695
S'/admin/default/edit/datos/views/layout.html'
p3696
asbasbasbasbasbasbasbag56
(g72
g58
NtRp3697
(dp3698
g61
(dp3699
sg70
g3531
sg63
(lp3700
g56
(g77
g58
NtRp3701
(dp3702
g61
(dp3703
sg70
g3697
sg63
(lp3704
g56
(g57
g58
NtRp3705
(dp3706
g61
(dp3707
g69
I2
ssg70
g3701
sg63
(lp3708
g56
(g65
g58
NtRp3709
(dp3710
g61
(dp3711
g69
I1
ssg70
Nsg63
(lp3712
g56
(g72
g58
NtRp3713
(dp3714
g61
(dp3715
sg70
g3709
sg63
(lp3716
g56
(g77
g58
NtRp3717
(dp3718
g61
(dp3719
sg70
g3713
sg63
(lp3720
g56
(g57
g58
NtRp3721
(dp3722
g61
(dp3723
g69
I1
ssg70
g3717
sg63
(lp3724
g3422
(S's\n\x00\x00\x00Stylesheet'
tRp3725
asbasbasbag56
(g72
g58
NtRp3726
(dp3727
g61
(dp3728
sg70
g3709
sg63
(lp3729
g56
(g77
g58
NtRp3730
(dp3731
g61
(dp3732
sg70
g3726
sg63
(lp3733
g56
(g57
g58
NtRp3734
(dp3735
g61
(dp3736
g69
I1
ssg70
g3730
sg63
(lp3737
I00
asbasbasbag56
(g72
g58
NtRp3738
(dp3739
g61
(dp3740
sg70
g3709
sg63
(lp3741
g56
(g77
g58
NtRp3742
(dp3743
g61
(dp3744
sg70
g3738
sg63
(lp3745
g56
(g57
g58
NtRp3746
(dp3747
g61
(dp3748
g69
I1
ssg70
g3742
sg63
(lp3749
S'/admin/default/edit/datos/static/base.css'
p3750
asbasbasbasbasbasbasbag56
(g72
g58
NtRp3751
(dp3752
g61
(dp3753
sg70
g3531
sg63
(lp3754
g56
(g77
g58
NtRp3755
(dp3756
g61
(dp3757
sg70
g3751
sg63
(lp3758
g56
(g57
g58
NtRp3759
(dp3760
g61
(dp3761
g69
I2
ssg70
g3755
sg63
(lp3762
g56
(g65
g58
NtRp3763
(dp3764
g61
(dp3765
g69
I1
ssg70
Nsg63
(lp3766
g56
(g72
g58
NtRp3767
(dp3768
g61
(dp3769
sg70
g3763
sg63
(lp3770
g56
(g77
g58
NtRp3771
(dp3772
g61
(dp3773
sg70
g3767
sg63
(lp3774
g56
(g57
g58
NtRp3775
(dp3776
g61
(dp3777
g69
I1
ssg70
g3771
sg63
(lp3778
g3422
(S's\x08\x00\x00\x00DB Model'
tRp3779
asbasbasbag56
(g72
g58
NtRp3780
(dp3781
g61
(dp3782
sg70
g3763
sg63
(lp3783
g56
(g77
g58
NtRp3784
(dp3785
g61
(dp3786
sg70
g3780
sg63
(lp3787
g56
(g57
g58
NtRp3788
(dp3789
g61
(dp3790
g69
I1
ssg70
g3784
sg63
(lp3791
I00
asbasbasbag56
(g72
g58
NtRp3792
(dp3793
g61
(dp3794
sg70
g3763
sg63
(lp3795
g56
(g77
g58
NtRp3796
(dp3797
g61
(dp3798
sg70
g3792
sg63
(lp3799
g56
(g57
g58
NtRp3800
(dp3801
g61
(dp3802
g69
I1
ssg70
g3796
sg63
(lp3803
S'/admin/default/edit/datos/models/db.py'
p3804
asbasbasbasbasbasbasbag56
(g72
g58
NtRp3805
(dp3806
g61
(dp3807
sg70
g3531
sg63
(lp3808
g56
(g77
g58
NtRp3809
(dp3810
g61
(dp3811
sg70
g3805
sg63
(lp3812
g56
(g57
g58
NtRp3813
(dp3814
g61
(dp3815
g69
I2
ssg70
g3809
sg63
(lp3816
g56
(g65
g58
NtRp3817
(dp3818
g61
(dp3819
g69
I1
ssg70
Nsg63
(lp3820
g56
(g72
g58
NtRp3821
(dp3822
g61
(dp3823
sg70
g3817
sg63
(lp3824
g56
(g77
g58
NtRp3825
(dp3826
g61
(dp3827
sg70
g3821
sg63
(lp3828
g56
(g57
g58
NtRp3829
(dp3830
g61
(dp3831
g69
I1
ssg70
g3825
sg63
(lp3832
g3422
(S's\n\x00\x00\x00Menu Model'
tRp3833
asbasbasbag56
(g72
g58
NtRp3834
(dp3835
g61
(dp3836
sg70
g3817
sg63
(lp3837
g56
(g77
g58
NtRp3838
(dp3839
g61
(dp3840
sg70
g3834
sg63
(lp3841
g56
(g57
g58
NtRp3842
(dp3843
g61
(dp3844
g69
I1
ssg70
g3838
sg63
(lp3845
I00
asbasbasbag56
(g72
g58
NtRp3846
(dp3847
g61
(dp3848
sg70
g3817
sg63
(lp3849
g56
(g77
g58
NtRp3850
(dp3851
g61
(dp3852
sg70
g3846
sg63
(lp3853
g56
(g57
g58
NtRp3854
(dp3855
g61
(dp3856
g69
I1
ssg70
g3850
sg63
(lp3857
S'/admin/default/edit/datos/models/menu.py'
p3858
asbasbasbasbasbasbasbag56
(g72
g58
NtRp3859
(dp3860
g61
(dp3861
sg70
g3531
sg63
(lp3862
g56
(g77
g58
NtRp3863
(dp3864
g61
(dp3865
sg70
g3859
sg63
(lp3866
g56
(g57
g58
NtRp3867
(dp3868
g61
(dp3869
g69
I2
ssg70
g3863
sg63
(lp3870
g56
(g65
g58
NtRp3871
(dp3872
g61
(dp3873
g69
I1
ssg70
Nsg63
(lp3874
g56
(g72
g58
NtRp3875
(dp3876
g61
(dp3877
sg70
g3871
sg63
(lp3878
g56
(g77
g58
NtRp3879
(dp3880
g61
(dp3881
sg70
g3875
sg63
(lp3882
g56
(g57
g58
NtRp3883
(dp3884
g61
(dp3885
g69
I1
ssg70
g3879
sg63
(lp3886
g3422
(S's\x08\x00\x00\x00Database'
tRp3887
asbasbasbag56
(g72
g58
NtRp3888
(dp3889
g61
(dp3890
sg70
g3871
sg63
(lp3891
g56
(g77
g58
NtRp3892
(dp3893
g61
(dp3894
sg70
g3888
sg63
(lp3895
g56
(g57
g58
NtRp3896
(dp3897
g61
(dp3898
g69
I1
ssg70
g3892
sg63
(lp3899
I00
asbasbasbag56
(g72
g58
NtRp3900
(dp3901
g61
(dp3902
sg70
g3871
sg63
(lp3903
g56
(g77
g58
NtRp3904
(dp3905
g61
(dp3906
sg70
g3900
sg63
(lp3907
g56
(g57
g58
NtRp3908
(dp3909
g61
(dp3910
g69
I1
ssg70
g3904
sg63
(lp3911
S'/datos/appadmin/index'
p3912
asbasbasbasbasbasbasbag56
(g72
g58
NtRp3913
(dp3914
g61
(dp3915
sg70
g3531
sg63
(lp3916
g56
(g77
g58
NtRp3917
(dp3918
g61
(dp3919
sg70
g3913
sg63
(lp3920
g56
(g57
g58
NtRp3921
(dp3922
g61
(dp3923
g69
I2
ssg70
g3917
sg63
(lp3924
g56
(g65
g58
NtRp3925
(dp3926
g61
(dp3927
g69
I1
ssg70
Nsg63
(lp3928
g56
(g72
g58
NtRp3929
(dp3930
g61
(dp3931
sg70
g3925
sg63
(lp3932
g56
(g77
g58
NtRp3933
(dp3934
g61
(dp3935
sg70
g3929
sg63
(lp3936
g56
(g57
g58
NtRp3937
(dp3938
g61
(dp3939
g69
I1
ssg70
g3933
sg63
(lp3940
g3422
(S's\x06\x00\x00\x00Errors'
tRp3941
asbasbasbag56
(g72
g58
NtRp3942
(dp3943
g61
(dp3944
sg70
g3925
sg63
(lp3945
g56
(g77
g58
NtRp3946
(dp3947
g61
(dp3948
sg70
g3942
sg63
(lp3949
g56
(g57
g58
NtRp3950
(dp3951
g61
(dp3952
g69
I1
ssg70
g3946
sg63
(lp3953
I00
asbasbasbag56
(g72
g58
NtRp3954
(dp3955
g61
(dp3956
sg70
g3925
sg63
(lp3957
g56
(g77
g58
NtRp3958
(dp3959
g61
(dp3960
sg70
g3954
sg63
(lp3961
g56
(g57
g58
NtRp3962
(dp3963
g61
(dp3964
g69
I1
ssg70
g3958
sg63
(lp3965
S'/admin/default/errors/datos'
p3966
asbasbasbasbasbasbasbag56
(g72
g58
NtRp3967
(dp3968
g61
(dp3969
sg70
g3531
sg63
(lp3970
g56
(g77
g58
NtRp3971
(dp3972
g61
(dp3973
sg70
g3967
sg63
(lp3974
g56
(g57
g58
NtRp3975
(dp3976
g61
(dp3977
g69
I2
ssg70
g3971
sg63
(lp3978
g56
(g65
g58
NtRp3979
(dp3980
g61
(dp3981
g69
I1
ssg70
Nsg63
(lp3982
g56
(g72
g58
NtRp3983
(dp3984
g61
(dp3985
sg70
g3979
sg63
(lp3986
g56
(g77
g58
NtRp3987
(dp3988
g61
(dp3989
sg70
g3983
sg63
(lp3990
g56
(g57
g58
NtRp3991
(dp3992
g61
(dp3993
g69
I1
ssg70
g3987
sg63
(lp3994
g3422
(S's\x05\x00\x00\x00About'
tRp3995
asbasbasbag56
(g72
g58
NtRp3996
(dp3997
g61
(dp3998
sg70
g3979
sg63
(lp3999
g56
(g77
g58
NtRp4000
(dp4001
g61
(dp4002
sg70
g3996
sg63
(lp4003
g56
(g57
g58
NtRp4004
(dp4005
g61
(dp4006
g69
I1
ssg70
g4000
sg63
(lp4007
I00
asbasbasbag56
(g72
g58
NtRp4008
(dp4009
g61
(dp4010
sg70
g3979
sg63
(lp4011
g56
(g77
g58
NtRp4012
(dp4013
g61
(dp4014
sg70
g4008
sg63
(lp4015
g56
(g57
g58
NtRp4016
(dp4017
g61
(dp4018
g69
I1
ssg70
g4012
sg63
(lp4019
S'/admin/default/about/datos'
p4020
asbasbasbasbasbasbasbasbasbasbasbasbasbasbasbag56
(g72
g58
NtRp4021
(dp4022
g61
(dp4023
sg70
g3390
sg63
(lp4024
g56
(g77
g58
NtRp4025
(dp4026
g61
(dp4027
sg70
g4021
sg63
(lp4028
g56
(g57
g58
NtRp4029
(dp4030
g61
(dp4031
g69
I4
ssg70
g4025
sg63
(lp4032
g56
(g65
g58
NtRp4033
(dp4034
g61
(dp4035
g69
I3
ssg70
Nsg63
(lp4036
g56
(g72
g58
NtRp4037
(dp4038
g61
(dp4039
sg70
g4033
sg63
(lp4040
g56
(g77
g58
NtRp4041
(dp4042
g61
(dp4043
sg70
g4037
sg63
(lp4044
g56
(g57
g58
NtRp4045
(dp4046
g61
(dp4047
g69
I3
ssg70
g4041
sg63
(lp4048
g3422
(S's\t\x00\x00\x00Resources'
tRp4049
asbasbasbag56
(g72
g58
NtRp4050
(dp4051
g61
(dp4052
sg70
g4033
sg63
(lp4053
g56
(g77
g58
NtRp4054
(dp4055
g61
(dp4056
sg70
g4050
sg63
(lp4057
g56
(g57
g58
NtRp4058
(dp4059
g61
(dp4060
g69
I3
ssg70
g4054
sg63
(lp4061
g99
asbasbasbag56
(g72
g58
NtRp4062
(dp4063
g61
(dp4064
sg70
g4033
sg63
(lp4065
g56
(g77
g58
NtRp4066
(dp4067
g61
(dp4068
sg70
g4062
sg63
(lp4069
g56
(g57
g58
NtRp4070
(dp4071
g61
(dp4072
g69
I3
ssg70
g4066
sg63
(lp4073
S'None'
p4074
asbasbasbag56
(g72
g58
NtRp4075
(dp4076
g61
(dp4077
sg70
g4033
sg63
(lp4078
g56
(g77
g58
NtRp4079
(dp4080
g61
(dp4081
sg70
g4075
sg63
(lp4082
g56
(g57
g58
NtRp4083
(dp4084
g61
(dp4085
g69
I3
ssg70
g4079
sg63
(lp4086
g56
(g65
g58
NtRp4087
(dp4088
g61
(dp4089
g69
I2
ssg70
Nsg63
(lp4090
g56
(g72
g58
NtRp4091
(dp4092
g61
(dp4093
sg70
g4087
sg63
(lp4094
g56
(g77
g58
NtRp4095
(dp4096
g61
(dp4097
sg70
g4091
sg63
(lp4098
g56
(g57
g58
NtRp4099
(dp4100
g61
(dp4101
g69
I2
ssg70
g4095
sg63
(lp4102
g56
(g65
g58
NtRp4103
(dp4104
g61
(dp4105
g69
I1
ssg70
Nsg63
(lp4106
g56
(g72
g58
NtRp4107
(dp4108
g61
(dp4109
sg70
g4103
sg63
(lp4110
g56
(g77
g58
NtRp4111
(dp4112
g61
(dp4113
sg70
g4107
sg63
(lp4114
g56
(g57
g58
NtRp4115
(dp4116
g61
(dp4117
g69
I1
ssg70
g4111
sg63
(lp4118
g3422
(S's\r\x00\x00\x00Documentation'
tRp4119
asbasbasbag56
(g72
g58
NtRp4120
(dp4121
g61
(dp4122
sg70
g4103
sg63
(lp4123
g56
(g77
g58
NtRp4124
(dp4125
g61
(dp4126
sg70
g4120
sg63
(lp4127
g56
(g57
g58
NtRp4128
(dp4129
g61
(dp4130
g69
I1
ssg70
g4124
sg63
(lp4131
I00
asbasbasbag56
(g72
g58
NtRp4132
(dp4133
g61
(dp4134
sg70
g4103
sg63
(lp4135
g56
(g77
g58
NtRp4136
(dp4137
g61
(dp4138
sg70
g4132
sg63
(lp4139
g56
(g57
g58
NtRp4140
(dp4141
g61
(dp4142
g69
I1
ssg70
g4136
sg63
(lp4143
S'http://www.web2py.com/book'
p4144
asbasbasbag56
(g72
g58
NtRp4145
(dp4146
g61
(dp4147
sg70
g4103
sg63
(lp4148
g56
(g77
g58
NtRp4149
(dp4150
g61
(dp4151
sg70
g4145
sg63
(lp4152
g56
(g57
g58
NtRp4153
(dp4154
g61
(dp4155
g69
I1
ssg70
g4149
sg63
(lp4156
(lp4157
(g3422
(S's\x07\x00\x00\x00Preface'
tRp4158
I00
S'http://www.web2py.com/book/default/chapter/00'
tp4159
a(g3422
(S's\x0c\x00\x00\x00Introduction'
tRp4160
I00
S'http://www.web2py.com/book/default/chapter/01'
tp4161
a(g3422
(S's\x06\x00\x00\x00Python'
tRp4162
I00
S'http://www.web2py.com/book/default/chapter/02'
tp4163
a(g3422
(S's\x08\x00\x00\x00Overview'
tRp4164
I00
S'http://www.web2py.com/book/default/chapter/03'
tp4165
a(g3422
(S's\x08\x00\x00\x00The Core'
tRp4166
I00
S'http://www.web2py.com/book/default/chapter/04'
tp4167
a(g3422
(S's\t\x00\x00\x00The Views'
tRp4168
I00
S'http://www.web2py.com/book/default/chapter/05'
tp4169
a(g3422
(S's\x08\x00\x00\x00Database'
tRp4170
I00
S'http://www.web2py.com/book/default/chapter/06'
tp4171
a(g3422
(S's\x14\x00\x00\x00Forms and Validators'
tRp4172
I00
S'http://www.web2py.com/book/default/chapter/07'
tp4173
a(g3422
(S's\x0e\x00\x00\x00Access Control'
tRp4174
I00
S'http://www.web2py.com/book/default/chapter/08'
tp4175
a(g3422
(S's\x08\x00\x00\x00Services'
tRp4176
I00
S'http://www.web2py.com/book/default/chapter/09'
tp4177
a(g3422
(S's\x0c\x00\x00\x00Ajax Recipes'
tRp4178
I00
S'http://www.web2py.com/book/default/chapter/10'
tp4179
a(g3422
(S's\x12\x00\x00\x00Deployment Recipes'
tRp4180
I00
S'http://www.web2py.com/book/default/chapter/11'
tp4181
a(g3422
(S's\r\x00\x00\x00Other Recipes'
tRp4182
I00
S'http://www.web2py.com/book/default/chapter/12'
tp4183
a(g3422
(S's\r\x00\x00\x00Buy this book'
tRp4184
I00
S'http://stores.lulu.com/web2py'
tp4185
aasbasbasbasbasbasbasbag56
(g72
g58
NtRp4186
(dp4187
g61
(dp4188
sg70
g4087
sg63
(lp4189
g56
(g77
g58
NtRp4190
(dp4191
g61
(dp4192
sg70
g4186
sg63
(lp4193
g56
(g57
g58
NtRp4194
(dp4195
g61
(dp4196
g69
I2
ssg70
g4190
sg63
(lp4197
g56
(g65
g58
NtRp4198
(dp4199
g61
(dp4200
g69
I1
ssg70
Nsg63
(lp4201
g56
(g72
g58
NtRp4202
(dp4203
g61
(dp4204
sg70
g4198
sg63
(lp4205
g56
(g77
g58
NtRp4206
(dp4207
g61
(dp4208
sg70
g4202
sg63
(lp4209
g56
(g57
g58
NtRp4210
(dp4211
g61
(dp4212
g69
I1
ssg70
g4206
sg63
(lp4213
g3422
(S's\t\x00\x00\x00Community'
tRp4214
asbasbasbag56
(g72
g58
NtRp4215
(dp4216
g61
(dp4217
sg70
g4198
sg63
(lp4218
g56
(g77
g58
NtRp4219
(dp4220
g61
(dp4221
sg70
g4215
sg63
(lp4222
g56
(g57
g58
NtRp4223
(dp4224
g61
(dp4225
g69
I1
ssg70
g4219
sg63
(lp4226
I00
asbasbasbag56
(g72
g58
NtRp4227
(dp4228
g61
(dp4229
sg70
g4198
sg63
(lp4230
g56
(g77
g58
NtRp4231
(dp4232
g61
(dp4233
sg70
g4227
sg63
(lp4234
g56
(g57
g58
NtRp4235
(dp4236
g61
(dp4237
g69
I1
ssg70
g4231
sg63
(lp4238
Nasbasbasbag56
(g72
g58
NtRp4239
(dp4240
g61
(dp4241
sg70
g4198
sg63
(lp4242
g56
(g77
g58
NtRp4243
(dp4244
g61
(dp4245
sg70
g4239
sg63
(lp4246
g56
(g57
g58
NtRp4247
(dp4248
g61
(dp4249
g69
I1
ssg70
g4243
sg63
(lp4250
(lp4251
(g3422
(S's\x06\x00\x00\x00Groups'
tRp4252
I00
S'http://www.web2py.com/examples/default/usergroups'
tp4253
a(g3422
(S's\x07\x00\x00\x00Twitter'
tRp4254
I00
S'http://twitter.com/web2py'
tp4255
a(g3422
(S's\t\x00\x00\x00Live chat'
tRp4256
I00
S'http://mibbit.com/?channel=%23web2py&server=irc.mibbit.net'
tp4257
a(g3422
(S's\n\x00\x00\x00User Voice'
tRp4258
I00
S'http://web2py.uservoice.com/'
tp4259
aasbasbasbasbasbasbasbag56
(g72
g58
NtRp4260
(dp4261
g61
(dp4262
sg70
g4087
sg63
(lp4263
g56
(g77
g58
NtRp4264
(dp4265
g61
(dp4266
sg70
g4260
sg63
(lp4267
g56
(g57
g58
NtRp4268
(dp4269
g61
(dp4270
g69
I2
ssg70
g4264
sg63
(lp4271
g56
(g65
g58
NtRp4272
(dp4273
g61
(dp4274
g69
I1
ssg70
Nsg63
(lp4275
g56
(g72
g58
NtRp4276
(dp4277
g61
(dp4278
sg70
g4272
sg63
(lp4279
g56
(g77
g58
NtRp4280
(dp4281
g61
(dp4282
sg70
g4276
sg63
(lp4283
g56
(g57
g58
NtRp4284
(dp4285
g61
(dp4286
g69
I1
ssg70
g4280
sg63
(lp4287
g3422
(S's\x06\x00\x00\x00Web2py'
tRp4288
asbasbasbag56
(g72
g58
NtRp4289
(dp4290
g61
(dp4291
sg70
g4272
sg63
(lp4292
g56
(g77
g58
NtRp4293
(dp4294
g61
(dp4295
sg70
g4289
sg63
(lp4296
g56
(g57
g58
NtRp4297
(dp4298
g61
(dp4299
g69
I1
ssg70
g4293
sg63
(lp4300
I00
asbasbasbag56
(g72
g58
NtRp4301
(dp4302
g61
(dp4303
sg70
g4272
sg63
(lp4304
g56
(g77
g58
NtRp4305
(dp4306
g61
(dp4307
sg70
g4301
sg63
(lp4308
g56
(g57
g58
NtRp4309
(dp4310
g61
(dp4311
g69
I1
ssg70
g4305
sg63
(lp4312
S'http://www.web2py.com'
p4313
asbasbasbag56
(g72
g58
NtRp4314
(dp4315
g61
(dp4316
sg70
g4272
sg63
(lp4317
g56
(g77
g58
NtRp4318
(dp4319
g61
(dp4320
sg70
g4314
sg63
(lp4321
g56
(g57
g58
NtRp4322
(dp4323
g61
(dp4324
g69
I1
ssg70
g4318
sg63
(lp4325
(lp4326
(g3422
(S's\x08\x00\x00\x00Download'
tRp4327
I00
S'http://www.web2py.com/examples/default/download'
tp4328
a(g3422
(S's\x07\x00\x00\x00Support'
tRp4329
I00
S'http://www.web2py.com/examples/default/support'
tp4330
a(g3422
(S's\x0e\x00\x00\x00Quick Examples'
tRp4331
I00
S'http://web2py.com/examples/default/examples'
tp4332
a(g3422
(S's\x03\x00\x00\x00FAQ'
tRp4333
I00
S'http://web2py.com/AlterEgo'
tp4334
a(g3422
(S's\x11\x00\x00\x00Free Applications'
tRp4335
I00
S'http://web2py.com/appliances'
tp4336
a(g3422
(S's\x07\x00\x00\x00Plugins'
tRp4337
I00
S'http://web2py.com/plugins'
tp4338
a(g3422
(S's\x07\x00\x00\x00Recipes'
tRp4339
I00
S'http://web2pyslices.com/'
tp4340
a(g3422
(S's\x04\x00\x00\x00Demo'
tRp4341
I00
S'http://web2py.com/demo_admin'
tp4342
a(g3422
(S's\x08\x00\x00\x00Semantic'
tRp4343
I00
S'http://web2py.com/semantic'
tp4344
a(g3422
(S's\x07\x00\x00\x00Layouts'
tRp4345
I00
S'http://web2py.com/layouts'
tp4346
a(g3422
(S's\x06\x00\x00\x00Videos'
tRp4347
I00
S'http://www.web2py.com/examples/default/videos/'
tp4348
aasbasbasbasbasbasbasbasbasbasbasbasbasbasbasbasbasbasbasbag56
(g72
g58
NtRp4349
(dp4350
g61
(dp4351
sg70
g2876
sg63
(lp4352
g56
(g77
g58
NtRp4353
(dp4354
g61
(dp4355
g81
g82
ssg70
g4349
sg63
(lp4356
S'meta'
p4357
asbag56
(g77
g58
NtRp4358
(dp4359
g61
(dp4360
g88
g89
ssg70
g4349
sg63
(lp4361
S':'
asbag56
(g77
g58
NtRp4362
(dp4363
g61
(dp4364
sg70
g4349
sg63
(lp4365
g56
(g57
g58
NtRp4366
(dp4367
g61
(dp4368
g69
I5
ssg70
g4362
sg63
(lp4369
g56
(g65
g58
NtRp4370
(dp4371
g61
(dp4372
g69
I4
ssg70
Nsg63
(lp4373
g56
(g72
g58
NtRp4374
(dp4375
g61
(dp4376
sg70
g4370
sg63
(lp4377
g56
(g77
g58
NtRp4378
(dp4379
g61
(dp4380
g81
g82
ssg70
g4374
sg63
(lp4381
S'author'
p4382
asbag56
(g77
g58
NtRp4383
(dp4384
g61
(dp4385
g88
g89
ssg70
g4374
sg63
(lp4386
S':'
asbag56
(g77
g58
NtRp4387
(dp4388
g61
(dp4389
sg70
g4374
sg63
(lp4390
g56
(g57
g58
NtRp4391
(dp4392
g61
(dp4393
g69
I4
ssg70
g4387
sg63
(lp4394
S'you'
p4395
asbasbasbag56
(g72
g58
NtRp4396
(dp4397
g61
(dp4398
sg70
g4370
sg63
(lp4399
g56
(g77
g58
NtRp4400
(dp4401
g61
(dp4402
g81
g82
ssg70
g4396
sg63
(lp4403
S'copyright'
p4404
asbag56
(g77
g58
NtRp4405
(dp4406
g61
(dp4407
g88
g89
ssg70
g4396
sg63
(lp4408
S':'
asbag56
(g77
g58
NtRp4409
(dp4410
g61
(dp4411
sg70
g4396
sg63
(lp4412
g56
(g57
g58
NtRp4413
(dp4414
g61
(dp4415
g69
I4
ssg70
g4409
sg63
(lp4416
S'Copyright 2007-2010'
p4417
asbasbasbag56
(g72
g58
NtRp4418
(dp4419
g61
(dp4420
sg70
g4370
sg63
(lp4421
g56
(g77
g58
NtRp4422
(dp4423
g61
(dp4424
g81
g82
ssg70
g4418
sg63
(lp4425
S'description'
p4426
asbag56
(g77
g58
NtRp4427
(dp4428
g61
(dp4429
g88
g89
ssg70
g4418
sg63
(lp4430
S':'
asbag56
(g77
g58
NtRp4431
(dp4432
g61
(dp4433
sg70
g4418
sg63
(lp4434
g56
(g57
g58
NtRp4435
(dp4436
g61
(dp4437
g69
I4
ssg70
g4431
sg63
(lp4438
S'Free and open source full-stack enterprise framework for agile development of fast, scalable, secure and portable database-driven web-based applications. Written and programmable in Python'
p4439
asbasbasbag56
(g72
g58
NtRp4440
(dp4441
g61
(dp4442
sg70
g4370
sg63
(lp4443
g56
(g77
g58
NtRp4444
(dp4445
g61
(dp4446
g81
g82
ssg70
g4440
sg63
(lp4447
S'generator'
p4448
asbag56
(g77
g58
NtRp4449
(dp4450
g61
(dp4451
g88
g89
ssg70
g4440
sg63
(lp4452
S':'
asbag56
(g77
g58
NtRp4453
(dp4454
g61
(dp4455
sg70
g4440
sg63
(lp4456
g56
(g57
g58
NtRp4457
(dp4458
g61
(dp4459
g69
I4
ssg70
g4453
sg63
(lp4460
S'Web2py Enterprise Framework'
p4461
asbasbasbag56
(g72
g58
NtRp4462
(dp4463
g61
(dp4464
sg70
g4370
sg63
(lp4465
g56
(g77
g58
NtRp4466
(dp4467
g61
(dp4468
g81
g82
ssg70
g4462
sg63
(lp4469
S'keywords'
p4470
asbag56
(g77
g58
NtRp4471
(dp4472
g61
(dp4473
g88
g89
ssg70
g4462
sg63
(lp4474
S':'
asbag56
(g77
g58
NtRp4475
(dp4476
g61
(dp4477
sg70
g4462
sg63
(lp4478
g56
(g57
g58
NtRp4479
(dp4480
g61
(dp4481
g69
I4
ssg70
g4475
sg63
(lp4482
S'web2py, python, framework'
p4483
asbasbasbasbasbasbasbag56
(g72
g58
NtRp4484
(dp4485
g61
(dp4486
sg70
g2876
sg63
(lp4487
g56
(g77
g58
NtRp4488
(dp4489
g61
(dp4490
g81
g82
ssg70
g4484
sg63
(lp4491
S'postprocessing'
p4492
asbag56
(g77
g58
NtRp4493
(dp4494
g61
(dp4495
g88
g89
ssg70
g4484
sg63
(lp4496
S':'
asbag56
(g77
g58
NtRp4497
(dp4498
g61
(dp4499
sg70
g4484
sg63
(lp4500
g56
(g57
g58
NtRp4501
(dp4502
g61
(dp4503
g69
I5
ssg70
g4497
sg63
(lp4504
g56
(g65
g58
NtRp4505
(dp4506
g61
(dp4507
g69
I4
ssg70
Nsg63
(lp4508
sbasbasbasbag56
(g72
g58
NtRp4509
(dp4510
g61
(dp4511
sg70
g2876
sg63
(lp4512
g56
(g77
g58
NtRp4513
(dp4514
g61
(dp4515
g81
g82
ssg70
g4509
sg63
(lp4516
S'session_file'
p4517
asbag56
(g77
g58
NtRp4518
(dp4519
g61
(dp4520
g88
g89
ssg70
g4509
sg63
(lp4521
S':'
asbag56
(g77
g58
NtRp4522
(dp4523
g61
(dp4524
sg70
g4509
sg63
(lp4525
g56
(g57
g58
NtRp4526
(dp4527
g61
(dp4528
g69
I5
ssg70
g4522
sg63
(lp4529
S"<open file '/home/alumno/web2py/applications/datos/sessions/127.0.0.1-cd811d2b-4b1e-4778-9b0e-2b7f0d822087', mode 'rb+' at 0xa4afa70>"
p4530
asbasbasbag56
(g72
g58
NtRp4531
(dp4532
g61
(dp4533
sg70
g2876
sg63
(lp4534
g56
(g77
g58
NtRp4535
(dp4536
g61
(dp4537
g81
g82
ssg70
g4531
sg63
(lp4538
S'session_filename'
p4539
asbag56
(g77
g58
NtRp4540
(dp4541
g61
(dp4542
g88
g89
ssg70
g4531
sg63
(lp4543
S':'
asbag56
(g77
g58
NtRp4544
(dp4545
g61
(dp4546
sg70
g4531
sg63
(lp4547
g56
(g57
g58
NtRp4548
(dp4549
g61
(dp4550
g69
I5
ssg70
g4544
sg63
(lp4551
S'/home/alumno/web2py/applications/datos/sessions/127.0.0.1-cd811d2b-4b1e-4778-9b0e-2b7f0d822087'
p4552
asbasbasbag56
(g72
g58
NtRp4553
(dp4554
g61
(dp4555
sg70
g2876
sg63
(lp4556
g56
(g77
g58
NtRp4557
(dp4558
g61
(dp4559
g81
g82
ssg70
g4553
sg63
(lp4560
S'session_id'
p4561
asbag56
(g77
g58
NtRp4562
(dp4563
g61
(dp4564
g88
g89
ssg70
g4553
sg63
(lp4565
S':'
asbag56
(g77
g58
NtRp4566
(dp4567
g61
(dp4568
sg70
g4553
sg63
(lp4569
g56
(g57
g58
NtRp4570
(dp4571
g61
(dp4572
g69
I5
ssg70
g4566
sg63
(lp4573
S'127.0.0.1-cd811d2b-4b1e-4778-9b0e-2b7f0d822087'
p4574
asbasbasbag56
(g72
g58
NtRp4575
(dp4576
g61
(dp4577
sg70
g2876
sg63
(lp4578
g56
(g77
g58
NtRp4579
(dp4580
g61
(dp4581
g81
g82
ssg70
g4575
sg63
(lp4582
S'session_id_name'
p4583
asbag56
(g77
g58
NtRp4584
(dp4585
g61
(dp4586
g88
g89
ssg70
g4575
sg63
(lp4587
S':'
asbag56
(g77
g58
NtRp4588
(dp4589
g61
(dp4590
sg70
g4575
sg63
(lp4591
g56
(g57
g58
NtRp4592
(dp4593
g61
(dp4594
g69
I5
ssg70
g4588
sg63
(lp4595
g2933
asbasbasbag56
(g72
g58
NtRp4596
(dp4597
g61
(dp4598
sg70
g2876
sg63
(lp4599
g56
(g77
g58
NtRp4600
(dp4601
g61
(dp4602
g81
g82
ssg70
g4596
sg63
(lp4603
S'session_locked'
p4604
asbag56
(g77
g58
NtRp4605
(dp4606
g61
(dp4607
g88
g89
ssg70
g4596
sg63
(lp4608
S':'
asbag56
(g77
g58
NtRp4609
(dp4610
g61
(dp4611
sg70
g4596
sg63
(lp4612
g56
(g57
g58
NtRp4613
(dp4614
g61
(dp4615
g69
I5
ssg70
g4609
sg63
(lp4616
g1776
asbasbasbag56
(g72
g58
NtRp4617
(dp4618
g61
(dp4619
sg70
g2876
sg63
(lp4620
g56
(g77
g58
NtRp4621
(dp4622
g61
(dp4623
g81
g82
ssg70
g4617
sg63
(lp4624
S'session_new'
p4625
asbag56
(g77
g58
NtRp4626
(dp4627
g61
(dp4628
g88
g89
ssg70
g4617
sg63
(lp4629
S':'
asbag56
(g77
g58
NtRp4630
(dp4631
g61
(dp4632
sg70
g4617
sg63
(lp4633
g56
(g57
g58
NtRp4634
(dp4635
g61
(dp4636
g69
I5
ssg70
g4630
sg63
(lp4637
g99
asbasbasbag56
(g72
g58
NtRp4638
(dp4639
g61
(dp4640
sg70
g2876
sg63
(lp4641
g56
(g77
g58
NtRp4642
(dp4643
g61
(dp4644
g81
g82
ssg70
g4638
sg63
(lp4645
S'status'
p4646
asbag56
(g77
g58
NtRp4647
(dp4648
g61
(dp4649
g88
g89
ssg70
g4638
sg63
(lp4650
S':'
asbag56
(g77
g58
NtRp4651
(dp4652
g61
(dp4653
sg70
g4638
sg63
(lp4654
g56
(g57
g58
NtRp4655
(dp4656
g61
(dp4657
g69
I5
ssg70
g4651
sg63
(lp4658
S'200'
p4659
asbasbasbag56
(g72
g58
NtRp4660
(dp4661
g61
(dp4662
sg70
g2876
sg63
(lp4663
g56
(g77
g58
NtRp4664
(dp4665
g61
(dp4666
g81
g82
ssg70
g4660
sg63
(lp4667
S'subtitle'
p4668
asbag56
(g77
g58
NtRp4669
(dp4670
g61
(dp4671
g88
g89
ssg70
g4660
sg63
(lp4672
S':'
asbag56
(g77
g58
NtRp4673
(dp4674
g61
(dp4675
sg70
g4660
sg63
(lp4676
g56
(g57
g58
NtRp4677
(dp4678
g61
(dp4679
g69
I5
ssg70
g4673
sg63
(lp4680
g3422
(S's\r\x00\x00\x00customize me!'
tRp4681
asbasbasbag56
(g72
g58
NtRp4682
(dp4683
g61
(dp4684
sg70
g2876
sg63
(lp4685
g56
(g77
g58
NtRp4686
(dp4687
g61
(dp4688
g81
g82
ssg70
g4682
sg63
(lp4689
S'title'
p4690
asbag56
(g77
g58
NtRp4691
(dp4692
g61
(dp4693
g88
g89
ssg70
g4682
sg63
(lp4694
S':'
asbag56
(g77
g58
NtRp4695
(dp4696
g61
(dp4697
sg70
g4682
sg63
(lp4698
g56
(g57
g58
NtRp4699
(dp4700
g61
(dp4701
g69
I5
ssg70
g4695
sg63
(lp4702
g121
asbasbasbag56
(g72
g58
NtRp4703
(dp4704
g61
(dp4705
sg70
g2876
sg63
(lp4706
g56
(g77
g58
NtRp4707
(dp4708
g61
(dp4709
g81
g82
ssg70
g4703
sg63
(lp4710
g2100
asbag56
(g77
g58
NtRp4711
(dp4712
g61
(dp4713
g88
g89
ssg70
g4703
sg63
(lp4714
S':'
asbag56
(g77
g58
NtRp4715
(dp4716
g61
(dp4717
sg70
g4703
sg63
(lp4718
g56
(g57
g58
NtRp4719
(dp4720
g61
(dp4721
g69
I5
ssg70
g4715
sg63
(lp4722
g2113
asbasbasbag56
(g72
g58
NtRp4723
(dp4724
g61
(dp4725
sg70
g2876
sg63
(lp4726
g56
(g77
g58
NtRp4727
(dp4728
g61
(dp4729
g81
g82
ssg70
g4723
sg63
(lp4730
S'view'
p4731
asbag56
(g77
g58
NtRp4732
(dp4733
g61
(dp4734
g88
g89
ssg70
g4723
sg63
(lp4735
S':'
asbag56
(g77
g58
NtRp4736
(dp4737
g61
(dp4738
sg70
g4723
sg63
(lp4739
g56
(g57
g58
NtRp4740
(dp4741
g61
(dp4742
g69
I5
ssg70
g4736
sg63
(lp4743
S'default/index.html'
p4744
asbasbasbasbasbsS'locals'
p4745
(dp4746
S'OBJECT'
p4747
S"<class 'gluon.html.OBJECT'>"
p4748
sS'_file'
p4749
S"'/datos/static/js/superfish.js'"
p4750
sS'SQLDB'
p4751
S"<class 'gluon.dal.DAL'>"
p4752
sg2836
S"<Storage {'_formkey[profesor/create]': '61c400d8...reate]': '585b2528-ed77-47fa-bd0e-82749c4051ab'}>"
p4753
sS'LINK'
p4754
S"<class 'gluon.html.LINK'>"
p4755
sS'BR'
p4756
S"<class 'gluon.html.BR'>"
p4757
sS'local_import'
p4758
S'<function <lambda>>'
p4759
sS'OPTGROUP'
p4760
S"<class 'gluon.html.OPTGROUP'>"
p4761
sS'PRE'
p4762
S"<class 'gluon.html.PRE'>"
p4763
sS'IS_INT_IN_RANGE'
p4764
S"<class 'gluon.validators.IS_INT_IN_RANGE'>"
p4765
sS'left_sidebar_enabled'
p4766
g99
sS'IS_LOWER'
p4767
S"<class 'gluon.validators.IS_LOWER'>"
p4768
sS'IS_STRONG'
p4769
S"<class 'gluon.validators.IS_STRONG'>"
p4770
sS'cache'
p4771
S'<gluon.cache.Cache object>'
p4772
sS'IS_IN_DB'
p4773
S"<class 'gluon.validators.IS_IN_DB'>"
p4774
sS'TAG'
p4775
S'<gluon.html.__TAG__ object>'
p4776
sS'_k'
p4777
S'5'
sS'SQLField'
p4778
S"<class 'gluon.dal.Field'>"
p4779
sS'BODY'
p4780
S"<class 'gluon.html.BODY'>"
p4781
sS'IS_DATE_IN_RANGE'
p4782
S"<class 'gluon.validators.IS_DATE_IN_RANGE'>"
p4783
sS'TH'
p4784
S"<class 'gluon.html.TH'>"
p4785
sS'URL'
p4786
S'<function URL>'
p4787
sS'__file__'
p4788
S"'/home/alumno/web2py/applications/datos/views/default/index.html'"
p4789
sS'db'
p4790
S"<DAL {'_migrate_enabled': True, '_lastsql': 'SEL...'_uri_hash': 'eb1dad4d662ce09be948e804719cfbad'}>"
p4791
sS'P'
S"<class 'gluon.html.P'>"
p4792
sS'TFOOT'
p4793
S"<class 'gluon.html.TFOOT'>"
p4794
sS'XHTML'
p4795
S"<class 'gluon.html.XHTML'>"
p4796
sS'ON'
p4797
g1776
sS'OL'
p4798
S"<class 'gluon.html.OL'>"
p4799
sS'TEXTAREA'
p4800
S"<class 'gluon.html.TEXTAREA'>"
p4801
sS'MENU'
p4802
S"<class 'gluon.html.MENU'>"
p4803
sS'_file0'
p4804
S"'/datos/static/js/superfish.js'"
p4805
sS'LOAD'
p4806
S'<gluon.compileapp.LoadFactory object>'
p4807
sS'CODE'
p4808
S"<class 'gluon.html.CODE'>"
p4809
sS'HTTP'
p4810
S"<class 'gluon.http.HTTP'>"
p4811
sS'HR'
p4812
S"<class 'gluon.html.HR'>"
p4813
sS'IS_DATETIME'
p4814
S"<class 'gluon.validators.IS_DATETIME'>"
p4815
sS'HEAD'
p4816
S"<class 'gluon.html.HEAD'>"
p4817
sS'LABEL'
p4818
S"<class 'gluon.html.LABEL'>"
p4819
sS'CLEANUP'
p4820
S"<class 'gluon.validators.CLEANUP'>"
p4821
sS'SELECT'
p4822
S"<class 'gluon.html.SELECT'>"
p4823
sS'CENTER'
p4824
S"<class 'gluon.html.CENTER'>"
p4825
sS'left_sidebar_style'
p4826
S'\'style="display: none;"\''
p4827
sS'alumnos'
p4828
S'<gluon.dal.Rows object>'
p4829
sS'__builtins__'
p4830
S"{'ArithmeticError': <type 'exceptions.ArithmeticError'>, 'AssertionError': <type 'exceptions.AssertionError'>, 'AttributeError': <type 'exceptions.AttributeError'>, 'BaseException': <type 'exceptions.BaseException'>, 'BufferError': <type 'exceptions.BufferError'>, 'BytesWarning': <type 'exceptions.BytesWarning'>, 'DeprecationWarning': <type 'exceptions.DeprecationWarning'>, 'EOFError': <type 'exceptions.EOFError'>, 'Ellipsis': Ellipsis, 'EnvironmentError': <type 'exceptions.EnvironmentError'>, ...}"
p4831
sS'IS_LIST_OF'
p4832
S"<class 'gluon.validators.IS_LIST_OF'>"
p4833
sS'SQLFORM'
p4834
S"<class 'gluon.sqlhtml.SQLFORM'>"
p4835
sS'_item'
p4836
S"'author'"
p4837
sS'EM'
p4838
S"<class 'gluon.html.EM'>"
p4839
sS'redirect'
p4840
S'<function redirect>'
p4841
sS'FIELDSET'
p4842
S"<class 'gluon.html.FIELDSET'>"
p4843
sS'IS_EQUAL_TO'
p4844
S"<class 'gluon.validators.IS_EQUAL_TO'>"
p4845
sS'embed64'
p4846
S'<function embed64>'
p4847
sS'INPUT'
p4848
S"<class 'gluon.html.INPUT'>"
p4849
sS'EMBED'
p4850
S"<class 'gluon.html.EMBED'>"
p4851
sS'FORM'
p4852
S"<class 'gluon.html.FORM'>"
p4853
sS'width_content'
p4854
S"'100%'"
p4855
sS'H2'
p4856
S"<class 'gluon.html.H2'>"
p4857
sS'H3'
p4858
S"<class 'gluon.html.H3'>"
p4859
sS'H1'
p4860
S"<class 'gluon.html.H1'>"
p4861
sS'H6'
p4862
S"<class 'gluon.html.H6'>"
p4863
sS'H4'
p4864
S"<class 'gluon.html.H4'>"
p4865
sS'H5'
p4866
S"<class 'gluon.html.H5'>"
p4867
sS'UL'
p4868
S"<class 'gluon.html.UL'>"
p4869
sS'IS_UPPER'
p4870
S"<class 'gluon.validators.IS_UPPER'>"
p4871
sS'xmlescape'
p4872
S'<function xmlescape>'
p4873
sS'IS_TIME'
p4874
S"<class 'gluon.validators.IS_TIME'>"
p4875
sS'OPTION'
p4876
S"<class 'gluon.html.OPTION'>"
p4877
sS'TITLE'
p4878
S"<class 'gluon.html.TITLE'>"
p4879
sS'CRYPT'
p4880
S"<class 'gluon.validators.CRYPT'>"
p4881
sS'IS_EMPTY_OR'
p4882
S"<class 'gluon.validators.IS_EMPTY_OR'>"
p4883
sS'MARKMIN'
p4884
S"<class 'gluon.html.MARKMIN'>"
p4885
sS'SCRIPT'
p4886
S"<class 'gluon.html.SCRIPT'>"
p4887
sS'TABLE'
p4888
S"<class 'gluon.html.TABLE'>"
p4889
sS'IS_IPV4'
p4890
S"<class 'gluon.validators.IS_IPV4'>"
p4891
sS'IS_LENGTH'
p4892
S"<class 'gluon.validators.IS_LENGTH'>"
p4893
sS'XML'
p4894
S"<class 'gluon.html.XML'>"
p4895
sS'B'
S"<class 'gluon.html.B'>"
p4896
sS'IMG'
p4897
S"<class 'gluon.html.IMG'>"
p4898
sS'SQLTABLE'
p4899
S"<class 'gluon.sqlhtml.SQLTABLE'>"
p4900
sS'IS_MATCH'
p4901
S"<class 'gluon.validators.IS_MATCH'>"
p4902
sS'IS_ALPHANUMERIC'
p4903
S"<class 'gluon.validators.IS_ALPHANUMERIC'>"
p4904
sS'SPAN'
p4905
S"<class 'gluon.html.SPAN'>"
p4906
sS'IS_SLUG'
p4907
S"<class 'gluon.validators.IS_SLUG'>"
p4908
sS'BEAUTIFY'
p4909
S"<class 'gluon.html.BEAUTIFY'>"
p4910
sS'META'
p4911
S"<class 'gluon.html.META'>"
p4912
sS'IS_DATE'
p4913
S"<class 'gluon.validators.IS_DATE'>"
p4914
sS'IS_EMAIL'
p4915
S"<class 'gluon.validators.IS_EMAIL'>"
p4916
sS'IS_NOT_EMPTY'
p4917
S"<class 'gluon.validators.IS_NOT_EMPTY'>"
p4918
sg55
S"<Storage {'is_local': True, 'function': 'index',....20-11-05.0170b50c-058d-4bca-b78e-d0326ea6c3f2'}>"
p4919
sS'TBODY'
p4920
S"<class 'gluon.html.TBODY'>"
p4921
sS'Field'
p4922
S"<class 'gluon.dal.Field'>"
p4923
sS'DIV'
p4924
S"<class 'gluon.html.DIV'>"
p4925
sS'LEGEND'
p4926
S"<class 'gluon.html.LEGEND'>"
p4927
sS'DAL'
p4928
S"<class 'gluon.dal.DAL'>"
p4929
sS'TT'
p4930
S"<class 'gluon.html.TT'>"
p4931
sS'TR'
p4932
S"<class 'gluon.html.TR'>"
p4933
sS'LI'
p4934
S"<class 'gluon.html.LI'>"
p4935
sS'right_sidebar_enabled'
p4936
g99
sS'IFRAME'
p4937
S"<class 'gluon.html.IFRAME'>"
p4938
sS'TD'
p4939
S"<class 'gluon.html.TD'>"
p4940
sS'IS_URL'
p4941
S"<class 'gluon.validators.IS_URL'>"
p4942
sS'A'
S"<class 'gluon.html.A'>"
p4943
sS'STYLE'
p4944
S"<class 'gluon.html.STYLE'>"
p4945
sS'IS_DATETIME_IN_RANGE'
p4946
S"<class 'gluon.validators.IS_DATETIME_IN_RANGE'>"
p4947
sS'HTML'
p4948
S"<class 'gluon.html.HTML'>"
p4949
sS'IS_IMAGE'
p4950
S"<class 'gluon.validators.IS_IMAGE'>"
p4951
sS'I'
S"<class 'gluon.html.I'>"
p4952
sS'right_sidebar_style'
p4953
S'\'style="display: none;"\''
p4954
sS'IS_NOT_IN_DB'
p4955
S"<class 'gluon.validators.IS_NOT_IN_DB'>"
p4956
sg2871
S"<Storage {'body': <cStringIO.StringO object at 0...da> at 0xa4b30d4>, 'view': 'default/index.html'}>"
p4957
sS'THEAD'
p4958
S"<class 'gluon.html.THEAD'>"
p4959
sS'IS_NULL_OR'
p4960
S"<class 'gluon.validators.IS_EMPTY_OR'>"
p4961
sS'IS_FLOAT_IN_RANGE'
p4962
S"<class 'gluon.validators.IS_FLOAT_IN_RANGE'>"
p4963
sS'IS_EXPR'
p4964
S"<class 'gluon.validators.IS_EXPR'>"
p4965
sS'T'
S'<gluon.languages.translator object>'
p4966
sS'IS_IN_SET'
p4967
S"<class 'gluon.validators.IS_IN_SET'>"
p4968
sS'IS_UPLOAD_FILENAME'
p4969
S"<class 'gluon.validators.IS_UPLOAD_FILENAME'>"
p4970
sS'style_content'
p4971
S'\'style="width: 100%"\''
p4972
sS'IS_DECIMAL_IN_RANGE'
p4973
S"<class 'gluon.validators.IS_DECIMAL_IN_RANGE'>"
p4974
sssS'traceback'
p4975
S'Traceback (most recent call last):\n  File "/home/alumno/web2py/gluon/restricted.py", line 192, in restricted\n    exec ccode in environment\n  File "/home/alumno/web2py/applications/datos/views/default/index.html", line 101, in <module>\nNameError: name \'alumno\' is not defined\n'
p4976
s.