(dp1
S'output'
p2
S''
sS'layer'
p3
S'/home/alumno/web2py/applications/datos/views/default/detalle.html'
p4
sS'code'
p5
S'response.write(\'<!DOCTYPE html>\\n<html lang="\', escape=False)\nresponse.write(T.accepted_language or \'en\')\nresponse.write(\'" class="no-js"><!-- no-js need it for modernzr -->\\n  <head>\\n    \\n    <meta charset="utf-8" />\\t  \\t\\n    <!-- www.phpied.com/conditional-comments-block-downloads/ -->\\n    <!--[if IE]><![endif]-->    \\n    <!-- Always force latest IE rendering engine \\n\\t (even in intranet) & Chrome Frame \\n\\t Remove this if you use the .htaccess -->\\n    <meta http-equiv="X-UA-Compatible" content="IE=edge,chrome=1">\\n    \\n    <title>\', escape=False)\nresponse.write(response.title or request.application)\nresponse.write(\'</title>\\n    \\n    <!-- http://dev.w3.org/html5/markup/meta.name.html -->\\n    <meta name="application-name" content="\', escape=False)\nresponse.write(request.application)\nresponse.write(\'" />\\t\\n    \\n    <!-- Speaking of Google, don\\\'t forget to set your site up: \\n\\t http://google.com/webmasters -->\\n    <meta name="google-site-verification" content="" />\\n    \\n    <!--  Mobile Viewport Fix\\n\\t  j.mp/mobileviewport & davidbcalhoun.com/2010/viewport-metatag \\n\\t  device-width: Occupy full width of the screen in its current orientation\\n\\t  initial-scale = 1.0 retains dimensions instead of zooming out if page height > device height\\n\\t  maximum-scale = 1.0 retains dimensions instead of zooming in if page width < device width\\n      -->\\n    <meta name="viewport" content="width=device-width; initial-scale=1.0; maximum-scale=1.0">\\n    \\n    <!-- Place favicon.ico and apple-touch-icon.png in the root of your domain and delete these references -->\\n    <link rel="shortcut icon" href="\', escape=False)\nresponse.write(URL(\'static\',\'favicon.ico\'))\nresponse.write(\'" type="image/x-icon">\\n    <link rel="apple-touch-icon" href="\', escape=False)\nresponse.write(URL(\'static\',\'favicon.png\'))\nresponse.write(\'">\\n\\n    <!-- For the less-enabled mobile browsers like Opera Mini -->\\n    <link rel="stylesheet" media="handheld" href="\', escape=False)\nresponse.write(URL(\'static\',\'css/handheld.css\'))\nresponse.write(\'">\\n    \\n    <!-- All JavaScript at the bottom, except for Modernizr which enables HTML5 elements & feature detects -->\\n    <script src="\', escape=False)\nresponse.write(URL(\'static\',\'js/modernizr-1.7.min.js\'))\nresponse.write(\'"></script>\\n    \\n    \', escape=False)\n#------  require CSS and JS files for this page (read info in base.css) ------\nresponse.write(\'\\n    \', escape=False)\nresponse.files.append(URL(\'static\',\'css/base.css\'))\nresponse.write(\'\\n    \', escape=False)\nresponse.files.append(URL(\'static\',\'css/superfish.css\'))\nresponse.write(\'\\n    \', escape=False)\nresponse.files.append(URL(\'static\',\'js/superfish.js\'))\nresponse.write(\'\\n    \', escape=False)\n#------ include web2py specific js code (jquery, calendar, form stuff) ------\nresponse.write(\'\\n    \', escape=False)\nresponse.files.insert(0,URL(\'static\',\'js/jquery.js\'))\nresponse.files.insert(1,URL(\'static\',\'css/calendar.css\'))\nresponse.files.insert(2,URL(\'static\',\'js/calendar.js\'))\nfor _item in response.meta or []:\n    response.write(\'\\n     <meta name="\', escape=False)\n    response.write(_item)\n    response.write(\'" content="\', escape=False)\n    response.write(response.meta[_item])\n    response.write(\'" />\', escape=False)\n    pass\nfor _k,_file in enumerate(response.files or []):\n    if _file in response.files[:_k]:\n        continue\n    _file0=_file.lower().split(\'?\')[0]\n    if _file0.endswith(\'.css\'):\n        response.write(\'\\n     <link href="\', escape=False)\n        response.write(_file)\n        response.write(\'" rel="stylesheet" type="text/css" />\', escape=False)\n    elif _file0.endswith(\'.js\'):\n        response.write(\'\\n     <script src="\', escape=False)\n        response.write(_file)\n        response.write(\'" type="text/javascript"></script>\', escape=False)\n        pass\n    pass\nresponse.write(\'\\n    <script type="text/javascript"><!--\\n    // These variables are used by the web2py_ajax_init function in web2py_ajax.js (which is loaded below).\\n    var w2p_ajax_confirm_message = "\', escape=False)\nresponse.write(T(\'Are you sure you want to delete this object?\'))\nresponse.write(\'";\\n    var w2p_ajax_date_format = "\', escape=False)\nresponse.write(T(\'%Y-%m-%d\'))\nresponse.write(\'";\\n    var w2p_ajax_datetime_format = "\', escape=False)\nresponse.write(T(\'%Y-%m-%d %H:%M:%S\'))\nresponse.write(\'";\\n    //--></script>\\n    <script src="\', escape=False)\nresponse.write(URL(\'static\',\'js/web2py_ajax.js\'))\nresponse.write(\'" type="text/javascript"></script>\\n\', escape=False)\nresponse.write(\'\\n\\n    \', escape=False)\n#using sidebars need to know what sidebar you want to use\n#prior of using it, because of static width size of content, you can use\n#left_sidebar, right_sidebar, both or none (False left and right)\nleft_sidebar_enabled = globals().get(\'left_sidebar_enabled\',False)\nright_sidebar_enabled = globals().get(\'right_sidebar_enabled\',False)\nif left_sidebar_enabled and right_sidebar_enabled: width_content=\'63%\'\nelif left_sidebar_enabled != right_sidebar_enabled: width_content=\'740px\'\nelse: width_content=\'100%\'\nif left_sidebar_enabled: left_sidebar_style = \'style="display: block;"\'\nelse: left_sidebar_style = \'style="display: none;"\'\nif right_sidebar_enabled: right_sidebar_style = \'style="display: block;"\'\nelse: right_sidebar_style = \'style="display: none;"\'\nstyle_content = \'style="width: %s"\' % width_content\nresponse.write(\'\\n  </head>\\n  \\n  <!-- paulirish.com/2008/conditional-stylesheets-vs-css-hacks-answer-neither/ -->\\t\\n  <!--[if lt IE 7 ]> <body class="ie6"> <![endif]-->\\n  <!--[if IE 7 ]>    <body class="ie7"> <![endif]-->\\n  <!--[if IE 8 ]>    <body class="ie8"> <![endif]-->\\n  <!--[if IE 9 ]>    <body class="ie9"> <![endif]-->\\n  <!--[if (gt IE 9)|!(IE)]><!--> <body> <!--<![endif]-->\\n    \\n    <div class="flash">\', escape=False)\nresponse.write(response.flash or \'\')\nresponse.write(\'</div> <!-- notification div -->\\n    \\n    <div id="container">\\t      \\t\\t      \\t\\n      \\n      <div id="wrapper">\\t\\t\\n\\t\\n\\t<div id="header"> <!-- header and login nav -->\\n\\t  \', escape=False)\nresponse.write(\' <!-- this is default header -->\\n\\t  \', escape=False)\ntry:\n    response.write(auth.navbar(action=URL(\'default\',\'user\')))\nexcept:pass\nresponse.write(\'\\t\\t          \\n\\t  <h1><span id="appname">\', escape=False)\nresponse.write(request.application.capitalize())\nresponse.write(\'</span>App</h1>\\n\\t  <div style="clear: both;"></div><!-- Clear the divs -->\\n\\t  \', escape=False)\nresponse.write(\'\\t\\t\\t\\t  \\t\\t\\t\\t\\t  \\n\\t</div><!-- header  -->\\n\\t\\n\\t<div id="statusbar"><!-- statusbar is menu zone -->\\n\\t  \', escape=False)\nresponse.write(\' <!-- this is default statusbar -->\\n\\t  \', escape=False)\n#------ superfish menu ------\nresponse.write(\'\\n\\t  \', escape=False)\nresponse.write(MENU(response.menu,_class=\'sf-menu\'))\nresponse.write(\'\\n\\t  <script type="text/javascript">\\n\\t    jQuery(document).ready(function(){\\n\\t    jQuery(\\\'ul.sf-menu\\\').superfish();});\\n\\t  </script>\\n\\t  <div style="clear: both;"></div><!-- Clear the divs -->\\t\\n\\t  \', escape=False)\nresponse.write(\'\\t\\t\\t\\t\\n\\t</div><!-- statusbar -->\\n\\t\\n\\t<div id="page"> <!-- Here my central body -->\\t  \\n\\n\\t  \', escape=False)\nif left_sidebar_enabled:\n    response.write(\'\\n          <div id="left_sidebar" \', escape=False)\n    response.write(XML(left_sidebar_style))\n    response.write(\' >\\n            <div style="padding: 4px;">\\n\\t      \', escape=False)\n    response.write(\'Content Left Sidebar\', escape=False)\n    response.write(\'\\t\\t  \\n            </div>\\n          </div><!-- left_sidebar -->\\n\\t  \', escape=False)\n    pass\nresponse.write(\'\\n\\n\\t  <!-- content -->\\n\\t  <div id="content" \', escape=False)\nresponse.write(XML(style_content))\nresponse.write(\' >\\n\\t    \', escape=False)\nresponse.write(\'\\n\\n\', escape=False)\nfor datos in alumno:\n    response.write(\'\\n    <h1>\', escape=False)\n    response.write(datos.nombre)\n    response.write(\' \', escape=False)\n    response.write(datos.apellidos)\n    response.write(\'</h1>\\n    <h2>codigo estudiante: \', escape=False)\n    response.write(datos.codigo)\n    response.write(\'</h2>\\n    <p>\\n    \', escape=False)\n    response.write(datos.nombre)\n    response.write(\' nacio el \', escape=False)\n    response.write(datos.fnacimiento)\n    response.write(\'.\\n    tiene como pasatiempo \', escape=False)\n    response.write(datos.hobby)\n    response.write(".<br>\\n    su correo electronico es:\\n    <strong><a href=\'mailto:", escape=False)\n    response.write(datos.email)\n    response.write("\'>", escape=False)\n    response.write(datos.email)\n    response.write(\'</a></strong>\\n    </p>\\n    \\n\', escape=False)\n    pass\nresponse.write(\'\\n\\n\', escape=False)\nfor datos in profesor:\n    response.write(\'\\n    <h1>\', escape=False)\n    response.write(datos.nombre_completo)\n    response.write(\'</h1><br>\\n    <h2>Codigo: \', escape=False)\n    response.write(datos.codigo)\n    response.write(\'</h2>\\n    <h2>Especialidad: \', escape=False)\n    response.write(datos.especialidad)\n    response.write(\'</h2>\\n    <h2>Experiencia: \', escape=False)\n    response.write(datos.anios_experiencia)\n    response.write(\' a\\xc3\\xb1os</h2>\\n    \\n\', escape=False)\n    pass\nresponse.write(\'\\n\\n\', escape=False)\nfor datos in curso\nresponse.write(\'\\n    <h1>\', escape=False)\nresponse.write(datos.codigo)\nresponse.write(\' \', escape=False)\nresponse.write(datos.nombre)\nresponse.write(\' \', escape=False)\nresponse.write(datos.descripcion)\nresponse.write(\'</h1>\\n\', escape=False)\npass\nresponse.write(\'\\n\', escape=False)\nresponse.write(\'\\t\\n\\t  </div>\\n\\t  <!-- content -->\\n\\n\\t  \', escape=False)\nif right_sidebar_enabled:\n    response.write(\'\\n          <div id="right_sidebar" \', escape=False)\n    response.write(XML(right_sidebar_style))\n    response.write(\' >\\n            <div style="padding: 4px;">\\n              \', escape=False)\n    response.write(\'Content Right Sidebar\', escape=False)\n    response.write(\'\\n            </div>\\n\\t  </div><!-- right_sidebar -->\\n          \', escape=False)\n    pass\nresponse.write(\'\\n\\n\\n\\t  <div style="clear: both;"></div><!-- Clear the divs -->\\n\\t  \\n\\t</div><!-- page -->\\t\\t\\t\\t\\t\\t\\t\\n\\t\\n\\t<div id="footer">\\n\\t  \', escape=False)\nresponse.write(\' <!-- this is default footer -->\\n\\t  <a href="http://www.web2py.com/" style="float: left; padding-right: 6px;">\\n\\t    <img src="\', escape=False)\nresponse.write(URL(\'static\',\'images/poweredby.png\'))\nresponse.write(\'"/>\\n\\t  </a>\\n\\t  \', escape=False)\nresponse.write(T(\'Copyright\'))\nresponse.write(\' &#169; 2010\\t\\t\\t\\t\\n\\t  <div style="clear: both;"></div><!-- Clear the divs -->\\n\\t  \', escape=False)\nresponse.write(\'\\n\\n\\t</div><!-- footer -->\\t\\t\\t\\n      </div><!-- wrapper -->\\n    </div><!-- container -->\\t\\t\\n    \\n    <!--[if lt IE 7 ]>\\n\\t<script src="\', escape=False)\nresponse.write(URL(\'static\',\'js/dd_belatedpng.js\'))\nresponse.write(\'"></script>\\n\\t<script> DD_belatedPNG.fix(\\\'img, .png_bg\\\'); //fix any <img> or .png_bg background-images </script>\\n\\t<![endif]-->\\n    \\n    <!-- asynchronous google analytics: mathiasbynens.be/notes/async-analytics-snippet \\n\\t change the UA-XXXXX-X to be your site\\\'s ID -->\\n    <!--   \\n\\t   <script>\\n\\t     var _gaq = [[\\\'_setAccount\\\', \\\'UA-XXXXX-X\\\'], [\\\'_trackPageview\\\']];\\n\\t     (function(d, t) {\\n\\t     var g = d.createElement(t),\\n\\t     s = d.getElementsByTagName(t)[0];\\n\\t     g.async = true;\\n\\t     g.src = \\\'//www.google-analytics.com/ga.js\\\';\\n\\t     s.parentNode.insertBefore(g, s);\\n\\t     })(document, \\\'script\\\');\\n\\t   </script>\\n\\t   -->    \\n  </body>\\n</html>\\n\', escape=False)'
p6
sS'snapshot'
p7
(dp8
S'exception'
p9
(dp10
S'__getslice__'
p11
S"<method-wrapper '__getslice__' of exceptions.SyntaxError object>"
p12
sS'text'
p13
S"'for datos in curso\\n'"
p14
sS'__str__'
p15
S"<method-wrapper '__str__' of exceptions.SyntaxError object>"
p16
sS'__reduce__'
p17
S'<built-in method __reduce__ of exceptions.SyntaxError object>'
p18
sS'__dict__'
p19
S'{}'
p20
sS'__sizeof__'
p21
S'<built-in method __sizeof__ of exceptions.SyntaxError object>'
p22
sS'__init__'
p23
S"<method-wrapper '__init__' of exceptions.SyntaxError object>"
p24
sS'__setattr__'
p25
S"<method-wrapper '__setattr__' of exceptions.SyntaxError object>"
p26
sS'__reduce_ex__'
p27
S'<built-in method __reduce_ex__ of exceptions.SyntaxError object>'
p28
sS'__new__'
p29
S'<built-in method __new__ of type object>'
p30
sS'__format__'
p31
S'<built-in method __format__ of exceptions.SyntaxError object>'
p32
sS'__class__'
p33
S"<type 'exceptions.SyntaxError'>"
p34
sS'filename'
p35
S"'/home/alumno/web2py/applications/datos/views/default/detalle.html'"
p36
sS'lineno'
p37
S'133'
p38
sS'msg'
p39
S"'invalid syntax'"
p40
sS'__doc__'
p41
S"'Invalid syntax.'"
p42
sS'__getitem__'
p43
S"<method-wrapper '__getitem__' of exceptions.SyntaxError object>"
p44
sS'__setstate__'
p45
S'<built-in method __setstate__ of exceptions.SyntaxError object>'
p46
sS'__getattribute__'
p47
S"<method-wrapper '__getattribute__' of exceptions.SyntaxError object>"
p48
sS'print_file_and_line'
p49
S'None'
p50
sS'args'
p51
S"('invalid syntax', ('/home/alumno/web2py/applications/datos/views/default/detalle.html', 133, 19, 'for datos in curso\\n'))"
p52
sS'__subclasshook__'
p53
S'<built-in method __subclasshook__ of type object>'
p54
sS'offset'
p55
S'19'
p56
sS'__unicode__'
p57
S'<built-in method __unicode__ of exceptions.SyntaxError object>'
p58
sS'__delattr__'
p59
S"<method-wrapper '__delattr__' of exceptions.SyntaxError object>"
p60
sS'__repr__'
p61
S"<method-wrapper '__repr__' of exceptions.SyntaxError object>"
p62
sS'__hash__'
p63
S"<method-wrapper '__hash__' of exceptions.SyntaxError object>"
p64
ssS'evalue'
p65
S'invalid syntax (detalle.html, line 133)'
p66
sS'request'
p67
ccopy_reg
_reconstructor
p68
(cgluon.html
BEAUTIFY
p69
c__builtin__
object
p70
NtRp71
(dp72
S'attributes'
p73
(dp74
sS'components'
p75
(lp76
g68
(cgluon.html
TABLE
p77
g70
NtRp78
(dp79
g73
(dp80
S'level'
p81
I5
ssS'parent'
p82
Nsg75
(lp83
g68
(cgluon.html
TR
p84
g70
NtRp85
(dp86
g73
(dp87
sg82
g78
sg75
(lp88
g68
(cgluon.html
TD
p89
g70
NtRp90
(dp91
g73
(dp92
S'_style'
p93
S'font-weight:bold;'
p94
ssg82
g85
sg75
(lp95
S'ajax'
p96
asbag68
(g89
g70
NtRp97
(dp98
g73
(dp99
S'_valign'
p100
S'top'
p101
ssg82
g85
sg75
(lp102
S':'
asbag68
(g89
g70
NtRp103
(dp104
g73
(dp105
sg82
g85
sg75
(lp106
g68
(g69
g70
NtRp107
(dp108
g73
(dp109
g81
I5
ssg82
g103
sg75
(lp110
S'False'
p111
asbasbasbag68
(g84
g70
NtRp112
(dp113
g73
(dp114
sg82
g78
sg75
(lp115
g68
(g89
g70
NtRp116
(dp117
g73
(dp118
g93
g94
ssg82
g112
sg75
(lp119
S'application'
p120
asbag68
(g89
g70
NtRp121
(dp122
g73
(dp123
g100
g101
ssg82
g112
sg75
(lp124
S':'
asbag68
(g89
g70
NtRp125
(dp126
g73
(dp127
sg82
g112
sg75
(lp128
g68
(g69
g70
NtRp129
(dp130
g73
(dp131
g81
I5
ssg82
g125
sg75
(lp132
S'datos'
p133
asbasbasbag68
(g84
g70
NtRp134
(dp135
g73
(dp136
sg82
g78
sg75
(lp137
g68
(g89
g70
NtRp138
(dp139
g73
(dp140
g93
g94
ssg82
g134
sg75
(lp141
g51
asbag68
(g89
g70
NtRp142
(dp143
g73
(dp144
g100
g101
ssg82
g134
sg75
(lp145
S':'
asbag68
(g89
g70
NtRp146
(dp147
g73
(dp148
sg82
g134
sg75
(lp149
g68
(g69
g70
NtRp150
(dp151
g73
(dp152
g81
I5
ssg82
g146
sg75
(lp153
g68
(g77
g70
NtRp154
(dp155
g73
(dp156
g81
I4
ssg82
Nsg75
(lp157
g68
(g84
g70
NtRp158
(dp159
g73
(dp160
sg82
g154
sg75
(lp161
g68
(g89
g70
NtRp162
(dp163
g73
(dp164
sg82
g158
sg75
(lp165
g68
(g69
g70
NtRp166
(dp167
g73
(dp168
g81
I4
ssg82
g162
sg75
(lp169
S'p001'
p170
asbasbasbasbasbasbasbag68
(g84
g70
NtRp171
(dp172
g73
(dp173
sg82
g78
sg75
(lp174
g68
(g89
g70
NtRp175
(dp176
g73
(dp177
g93
g94
ssg82
g171
sg75
(lp178
S'body'
p179
asbag68
(g89
g70
NtRp180
(dp181
g73
(dp182
g100
g101
ssg82
g171
sg75
(lp183
S':'
asbag68
(g89
g70
NtRp184
(dp185
g73
(dp186
sg82
g171
sg75
(lp187
g68
(g69
g70
NtRp188
(dp189
g73
(dp190
g81
I5
ssg82
g184
sg75
(lp191
S'<cStringIO.StringO object at 0x9c7ce60>'
p192
asbasbasbag68
(g84
g70
NtRp193
(dp194
g73
(dp195
sg82
g78
sg75
(lp196
g68
(g89
g70
NtRp197
(dp198
g73
(dp199
g93
g94
ssg82
g193
sg75
(lp200
S'client'
p201
asbag68
(g89
g70
NtRp202
(dp203
g73
(dp204
g100
g101
ssg82
g193
sg75
(lp205
S':'
asbag68
(g89
g70
NtRp206
(dp207
g73
(dp208
sg82
g193
sg75
(lp209
g68
(g69
g70
NtRp210
(dp211
g73
(dp212
g81
I5
ssg82
g206
sg75
(lp213
S'127.0.0.1'
p214
asbasbasbag68
(g84
g70
NtRp215
(dp216
g73
(dp217
sg82
g78
sg75
(lp218
g68
(g89
g70
NtRp219
(dp220
g73
(dp221
g93
g94
ssg82
g215
sg75
(lp222
S'controller'
p223
asbag68
(g89
g70
NtRp224
(dp225
g73
(dp226
g100
g101
ssg82
g215
sg75
(lp227
S':'
asbag68
(g89
g70
NtRp228
(dp229
g73
(dp230
sg82
g215
sg75
(lp231
g68
(g69
g70
NtRp232
(dp233
g73
(dp234
g81
I5
ssg82
g228
sg75
(lp235
S'default'
p236
asbasbasbag68
(g84
g70
NtRp237
(dp238
g73
(dp239
sg82
g78
sg75
(lp240
g68
(g89
g70
NtRp241
(dp242
g73
(dp243
g93
g94
ssg82
g237
sg75
(lp244
S'cookies'
p245
asbag68
(g89
g70
NtRp246
(dp247
g73
(dp248
g100
g101
ssg82
g237
sg75
(lp249
S':'
asbag68
(g89
g70
NtRp250
(dp251
g73
(dp252
sg82
g237
sg75
(lp253
g68
(g69
g70
NtRp254
(dp255
g73
(dp256
g81
I5
ssg82
g250
sg75
(lp257
g68
(g77
g70
NtRp258
(dp259
g73
(dp260
g81
I4
ssg82
Nsg75
(lp261
g68
(g84
g70
NtRp262
(dp263
g73
(dp264
sg82
g258
sg75
(lp265
g68
(g89
g70
NtRp266
(dp267
g73
(dp268
g93
g94
ssg82
g262
sg75
(lp269
S'adminLanguage'
p270
asbag68
(g89
g70
NtRp271
(dp272
g73
(dp273
g100
g101
ssg82
g262
sg75
(lp274
S':'
asbag68
(g89
g70
NtRp275
(dp276
g73
(dp277
sg82
g262
sg75
(lp278
g68
(g69
g70
NtRp279
(dp280
g73
(dp281
g81
I4
ssg82
g275
sg75
(lp282
g68
(g77
g70
NtRp283
(dp284
g73
(dp285
g81
I3
ssg82
Nsg75
(lp286
g68
(g84
g70
NtRp287
(dp288
g73
(dp289
sg82
g283
sg75
(lp290
g68
(g89
g70
NtRp291
(dp292
g73
(dp293
g93
g94
ssg82
g287
sg75
(lp294
S'comment'
p295
asbag68
(g89
g70
NtRp296
(dp297
g73
(dp298
g100
g101
ssg82
g287
sg75
(lp299
S':'
asbag68
(g89
g70
NtRp300
(dp301
g73
(dp302
sg82
g287
sg75
(lp303
g68
(g69
g70
NtRp304
(dp305
g73
(dp306
g81
I3
ssg82
g300
sg75
(lp307
S''
asbasbasbag68
(g84
g70
NtRp308
(dp309
g73
(dp310
sg82
g283
sg75
(lp311
g68
(g89
g70
NtRp312
(dp313
g73
(dp314
g93
g94
ssg82
g308
sg75
(lp315
S'domain'
p316
asbag68
(g89
g70
NtRp317
(dp318
g73
(dp319
g100
g101
ssg82
g308
sg75
(lp320
S':'
asbag68
(g89
g70
NtRp321
(dp322
g73
(dp323
sg82
g308
sg75
(lp324
g68
(g69
g70
NtRp325
(dp326
g73
(dp327
g81
I3
ssg82
g321
sg75
(lp328
S''
asbasbasbag68
(g84
g70
NtRp329
(dp330
g73
(dp331
sg82
g283
sg75
(lp332
g68
(g89
g70
NtRp333
(dp334
g73
(dp335
g93
g94
ssg82
g329
sg75
(lp336
S'expires'
p337
asbag68
(g89
g70
NtRp338
(dp339
g73
(dp340
g100
g101
ssg82
g329
sg75
(lp341
S':'
asbag68
(g89
g70
NtRp342
(dp343
g73
(dp344
sg82
g329
sg75
(lp345
g68
(g69
g70
NtRp346
(dp347
g73
(dp348
g81
I3
ssg82
g342
sg75
(lp349
S''
asbasbasbag68
(g84
g70
NtRp350
(dp351
g73
(dp352
sg82
g283
sg75
(lp353
g68
(g89
g70
NtRp354
(dp355
g73
(dp356
g93
g94
ssg82
g350
sg75
(lp357
S'httponly'
p358
asbag68
(g89
g70
NtRp359
(dp360
g73
(dp361
g100
g101
ssg82
g350
sg75
(lp362
S':'
asbag68
(g89
g70
NtRp363
(dp364
g73
(dp365
sg82
g350
sg75
(lp366
g68
(g69
g70
NtRp367
(dp368
g73
(dp369
g81
I3
ssg82
g363
sg75
(lp370
S''
asbasbasbag68
(g84
g70
NtRp371
(dp372
g73
(dp373
sg82
g283
sg75
(lp374
g68
(g89
g70
NtRp375
(dp376
g73
(dp377
g93
g94
ssg82
g371
sg75
(lp378
S'max-age'
p379
asbag68
(g89
g70
NtRp380
(dp381
g73
(dp382
g100
g101
ssg82
g371
sg75
(lp383
S':'
asbag68
(g89
g70
NtRp384
(dp385
g73
(dp386
sg82
g371
sg75
(lp387
g68
(g69
g70
NtRp388
(dp389
g73
(dp390
g81
I3
ssg82
g384
sg75
(lp391
S''
asbasbasbag68
(g84
g70
NtRp392
(dp393
g73
(dp394
sg82
g283
sg75
(lp395
g68
(g89
g70
NtRp396
(dp397
g73
(dp398
g93
g94
ssg82
g392
sg75
(lp399
S'path'
p400
asbag68
(g89
g70
NtRp401
(dp402
g73
(dp403
g100
g101
ssg82
g392
sg75
(lp404
S':'
asbag68
(g89
g70
NtRp405
(dp406
g73
(dp407
sg82
g392
sg75
(lp408
g68
(g69
g70
NtRp409
(dp410
g73
(dp411
g81
I3
ssg82
g405
sg75
(lp412
S''
asbasbasbag68
(g84
g70
NtRp413
(dp414
g73
(dp415
sg82
g283
sg75
(lp416
g68
(g89
g70
NtRp417
(dp418
g73
(dp419
g93
g94
ssg82
g413
sg75
(lp420
S'secure'
p421
asbag68
(g89
g70
NtRp422
(dp423
g73
(dp424
g100
g101
ssg82
g413
sg75
(lp425
S':'
asbag68
(g89
g70
NtRp426
(dp427
g73
(dp428
sg82
g413
sg75
(lp429
g68
(g69
g70
NtRp430
(dp431
g73
(dp432
g81
I3
ssg82
g426
sg75
(lp433
S''
asbasbasbag68
(g84
g70
NtRp434
(dp435
g73
(dp436
sg82
g283
sg75
(lp437
g68
(g89
g70
NtRp438
(dp439
g73
(dp440
g93
g94
ssg82
g434
sg75
(lp441
S'version'
p442
asbag68
(g89
g70
NtRp443
(dp444
g73
(dp445
g100
g101
ssg82
g434
sg75
(lp446
S':'
asbag68
(g89
g70
NtRp447
(dp448
g73
(dp449
sg82
g434
sg75
(lp450
g68
(g69
g70
NtRp451
(dp452
g73
(dp453
g81
I3
ssg82
g447
sg75
(lp454
S''
asbasbasbasbasbasbasbag68
(g84
g70
NtRp455
(dp456
g73
(dp457
sg82
g258
sg75
(lp458
g68
(g89
g70
NtRp459
(dp460
g73
(dp461
g93
g94
ssg82
g455
sg75
(lp462
S'session_id_admin'
p463
asbag68
(g89
g70
NtRp464
(dp465
g73
(dp466
g100
g101
ssg82
g455
sg75
(lp467
S':'
asbag68
(g89
g70
NtRp468
(dp469
g73
(dp470
sg82
g455
sg75
(lp471
g68
(g69
g70
NtRp472
(dp473
g73
(dp474
g81
I4
ssg82
g468
sg75
(lp475
g68
(g77
g70
NtRp476
(dp477
g73
(dp478
g81
I3
ssg82
Nsg75
(lp479
g68
(g84
g70
NtRp480
(dp481
g73
(dp482
sg82
g476
sg75
(lp483
g68
(g89
g70
NtRp484
(dp485
g73
(dp486
g93
g94
ssg82
g480
sg75
(lp487
g295
asbag68
(g89
g70
NtRp488
(dp489
g73
(dp490
g100
g101
ssg82
g480
sg75
(lp491
S':'
asbag68
(g89
g70
NtRp492
(dp493
g73
(dp494
sg82
g480
sg75
(lp495
g68
(g69
g70
NtRp496
(dp497
g73
(dp498
g81
I3
ssg82
g492
sg75
(lp499
S''
asbasbasbag68
(g84
g70
NtRp500
(dp501
g73
(dp502
sg82
g476
sg75
(lp503
g68
(g89
g70
NtRp504
(dp505
g73
(dp506
g93
g94
ssg82
g500
sg75
(lp507
g316
asbag68
(g89
g70
NtRp508
(dp509
g73
(dp510
g100
g101
ssg82
g500
sg75
(lp511
S':'
asbag68
(g89
g70
NtRp512
(dp513
g73
(dp514
sg82
g500
sg75
(lp515
g68
(g69
g70
NtRp516
(dp517
g73
(dp518
g81
I3
ssg82
g512
sg75
(lp519
S''
asbasbasbag68
(g84
g70
NtRp520
(dp521
g73
(dp522
sg82
g476
sg75
(lp523
g68
(g89
g70
NtRp524
(dp525
g73
(dp526
g93
g94
ssg82
g520
sg75
(lp527
g337
asbag68
(g89
g70
NtRp528
(dp529
g73
(dp530
g100
g101
ssg82
g520
sg75
(lp531
S':'
asbag68
(g89
g70
NtRp532
(dp533
g73
(dp534
sg82
g520
sg75
(lp535
g68
(g69
g70
NtRp536
(dp537
g73
(dp538
g81
I3
ssg82
g532
sg75
(lp539
S''
asbasbasbag68
(g84
g70
NtRp540
(dp541
g73
(dp542
sg82
g476
sg75
(lp543
g68
(g89
g70
NtRp544
(dp545
g73
(dp546
g93
g94
ssg82
g540
sg75
(lp547
g358
asbag68
(g89
g70
NtRp548
(dp549
g73
(dp550
g100
g101
ssg82
g540
sg75
(lp551
S':'
asbag68
(g89
g70
NtRp552
(dp553
g73
(dp554
sg82
g540
sg75
(lp555
g68
(g69
g70
NtRp556
(dp557
g73
(dp558
g81
I3
ssg82
g552
sg75
(lp559
S''
asbasbasbag68
(g84
g70
NtRp560
(dp561
g73
(dp562
sg82
g476
sg75
(lp563
g68
(g89
g70
NtRp564
(dp565
g73
(dp566
g93
g94
ssg82
g560
sg75
(lp567
g379
asbag68
(g89
g70
NtRp568
(dp569
g73
(dp570
g100
g101
ssg82
g560
sg75
(lp571
S':'
asbag68
(g89
g70
NtRp572
(dp573
g73
(dp574
sg82
g560
sg75
(lp575
g68
(g69
g70
NtRp576
(dp577
g73
(dp578
g81
I3
ssg82
g572
sg75
(lp579
S''
asbasbasbag68
(g84
g70
NtRp580
(dp581
g73
(dp582
sg82
g476
sg75
(lp583
g68
(g89
g70
NtRp584
(dp585
g73
(dp586
g93
g94
ssg82
g580
sg75
(lp587
g400
asbag68
(g89
g70
NtRp588
(dp589
g73
(dp590
g100
g101
ssg82
g580
sg75
(lp591
S':'
asbag68
(g89
g70
NtRp592
(dp593
g73
(dp594
sg82
g580
sg75
(lp595
g68
(g69
g70
NtRp596
(dp597
g73
(dp598
g81
I3
ssg82
g592
sg75
(lp599
S''
asbasbasbag68
(g84
g70
NtRp600
(dp601
g73
(dp602
sg82
g476
sg75
(lp603
g68
(g89
g70
NtRp604
(dp605
g73
(dp606
g93
g94
ssg82
g600
sg75
(lp607
g421
asbag68
(g89
g70
NtRp608
(dp609
g73
(dp610
g100
g101
ssg82
g600
sg75
(lp611
S':'
asbag68
(g89
g70
NtRp612
(dp613
g73
(dp614
sg82
g600
sg75
(lp615
g68
(g69
g70
NtRp616
(dp617
g73
(dp618
g81
I3
ssg82
g612
sg75
(lp619
S''
asbasbasbag68
(g84
g70
NtRp620
(dp621
g73
(dp622
sg82
g476
sg75
(lp623
g68
(g89
g70
NtRp624
(dp625
g73
(dp626
g93
g94
ssg82
g620
sg75
(lp627
g442
asbag68
(g89
g70
NtRp628
(dp629
g73
(dp630
g100
g101
ssg82
g620
sg75
(lp631
S':'
asbag68
(g89
g70
NtRp632
(dp633
g73
(dp634
sg82
g620
sg75
(lp635
g68
(g69
g70
NtRp636
(dp637
g73
(dp638
g81
I3
ssg82
g632
sg75
(lp639
S''
asbasbasbasbasbasbasbag68
(g84
g70
NtRp640
(dp641
g73
(dp642
sg82
g258
sg75
(lp643
g68
(g89
g70
NtRp644
(dp645
g73
(dp646
g93
g94
ssg82
g640
sg75
(lp647
S'session_id_datos'
p648
asbag68
(g89
g70
NtRp649
(dp650
g73
(dp651
g100
g101
ssg82
g640
sg75
(lp652
S':'
asbag68
(g89
g70
NtRp653
(dp654
g73
(dp655
sg82
g640
sg75
(lp656
g68
(g69
g70
NtRp657
(dp658
g73
(dp659
g81
I4
ssg82
g653
sg75
(lp660
g68
(g77
g70
NtRp661
(dp662
g73
(dp663
g81
I3
ssg82
Nsg75
(lp664
g68
(g84
g70
NtRp665
(dp666
g73
(dp667
sg82
g661
sg75
(lp668
g68
(g89
g70
NtRp669
(dp670
g73
(dp671
g93
g94
ssg82
g665
sg75
(lp672
g295
asbag68
(g89
g70
NtRp673
(dp674
g73
(dp675
g100
g101
ssg82
g665
sg75
(lp676
S':'
asbag68
(g89
g70
NtRp677
(dp678
g73
(dp679
sg82
g665
sg75
(lp680
g68
(g69
g70
NtRp681
(dp682
g73
(dp683
g81
I3
ssg82
g677
sg75
(lp684
S''
asbasbasbag68
(g84
g70
NtRp685
(dp686
g73
(dp687
sg82
g661
sg75
(lp688
g68
(g89
g70
NtRp689
(dp690
g73
(dp691
g93
g94
ssg82
g685
sg75
(lp692
g316
asbag68
(g89
g70
NtRp693
(dp694
g73
(dp695
g100
g101
ssg82
g685
sg75
(lp696
S':'
asbag68
(g89
g70
NtRp697
(dp698
g73
(dp699
sg82
g685
sg75
(lp700
g68
(g69
g70
NtRp701
(dp702
g73
(dp703
g81
I3
ssg82
g697
sg75
(lp704
S''
asbasbasbag68
(g84
g70
NtRp705
(dp706
g73
(dp707
sg82
g661
sg75
(lp708
g68
(g89
g70
NtRp709
(dp710
g73
(dp711
g93
g94
ssg82
g705
sg75
(lp712
g337
asbag68
(g89
g70
NtRp713
(dp714
g73
(dp715
g100
g101
ssg82
g705
sg75
(lp716
S':'
asbag68
(g89
g70
NtRp717
(dp718
g73
(dp719
sg82
g705
sg75
(lp720
g68
(g69
g70
NtRp721
(dp722
g73
(dp723
g81
I3
ssg82
g717
sg75
(lp724
S''
asbasbasbag68
(g84
g70
NtRp725
(dp726
g73
(dp727
sg82
g661
sg75
(lp728
g68
(g89
g70
NtRp729
(dp730
g73
(dp731
g93
g94
ssg82
g725
sg75
(lp732
g358
asbag68
(g89
g70
NtRp733
(dp734
g73
(dp735
g100
g101
ssg82
g725
sg75
(lp736
S':'
asbag68
(g89
g70
NtRp737
(dp738
g73
(dp739
sg82
g725
sg75
(lp740
g68
(g69
g70
NtRp741
(dp742
g73
(dp743
g81
I3
ssg82
g737
sg75
(lp744
S''
asbasbasbag68
(g84
g70
NtRp745
(dp746
g73
(dp747
sg82
g661
sg75
(lp748
g68
(g89
g70
NtRp749
(dp750
g73
(dp751
g93
g94
ssg82
g745
sg75
(lp752
g379
asbag68
(g89
g70
NtRp753
(dp754
g73
(dp755
g100
g101
ssg82
g745
sg75
(lp756
S':'
asbag68
(g89
g70
NtRp757
(dp758
g73
(dp759
sg82
g745
sg75
(lp760
g68
(g69
g70
NtRp761
(dp762
g73
(dp763
g81
I3
ssg82
g757
sg75
(lp764
S''
asbasbasbag68
(g84
g70
NtRp765
(dp766
g73
(dp767
sg82
g661
sg75
(lp768
g68
(g89
g70
NtRp769
(dp770
g73
(dp771
g93
g94
ssg82
g765
sg75
(lp772
g400
asbag68
(g89
g70
NtRp773
(dp774
g73
(dp775
g100
g101
ssg82
g765
sg75
(lp776
S':'
asbag68
(g89
g70
NtRp777
(dp778
g73
(dp779
sg82
g765
sg75
(lp780
g68
(g69
g70
NtRp781
(dp782
g73
(dp783
g81
I3
ssg82
g777
sg75
(lp784
S''
asbasbasbag68
(g84
g70
NtRp785
(dp786
g73
(dp787
sg82
g661
sg75
(lp788
g68
(g89
g70
NtRp789
(dp790
g73
(dp791
g93
g94
ssg82
g785
sg75
(lp792
g421
asbag68
(g89
g70
NtRp793
(dp794
g73
(dp795
g100
g101
ssg82
g785
sg75
(lp796
S':'
asbag68
(g89
g70
NtRp797
(dp798
g73
(dp799
sg82
g785
sg75
(lp800
g68
(g69
g70
NtRp801
(dp802
g73
(dp803
g81
I3
ssg82
g797
sg75
(lp804
S''
asbasbasbag68
(g84
g70
NtRp805
(dp806
g73
(dp807
sg82
g661
sg75
(lp808
g68
(g89
g70
NtRp809
(dp810
g73
(dp811
g93
g94
ssg82
g805
sg75
(lp812
g442
asbag68
(g89
g70
NtRp813
(dp814
g73
(dp815
g100
g101
ssg82
g805
sg75
(lp816
S':'
asbag68
(g89
g70
NtRp817
(dp818
g73
(dp819
sg82
g805
sg75
(lp820
g68
(g69
g70
NtRp821
(dp822
g73
(dp823
g81
I3
ssg82
g817
sg75
(lp824
S''
asbasbasbasbasbasbasbag68
(g84
g70
NtRp825
(dp826
g73
(dp827
sg82
g258
sg75
(lp828
g68
(g89
g70
NtRp829
(dp830
g73
(dp831
g93
g94
ssg82
g825
sg75
(lp832
S'session_id_examples'
p833
asbag68
(g89
g70
NtRp834
(dp835
g73
(dp836
g100
g101
ssg82
g825
sg75
(lp837
S':'
asbag68
(g89
g70
NtRp838
(dp839
g73
(dp840
sg82
g825
sg75
(lp841
g68
(g69
g70
NtRp842
(dp843
g73
(dp844
g81
I4
ssg82
g838
sg75
(lp845
g68
(g77
g70
NtRp846
(dp847
g73
(dp848
g81
I3
ssg82
Nsg75
(lp849
g68
(g84
g70
NtRp850
(dp851
g73
(dp852
sg82
g846
sg75
(lp853
g68
(g89
g70
NtRp854
(dp855
g73
(dp856
g93
g94
ssg82
g850
sg75
(lp857
g295
asbag68
(g89
g70
NtRp858
(dp859
g73
(dp860
g100
g101
ssg82
g850
sg75
(lp861
S':'
asbag68
(g89
g70
NtRp862
(dp863
g73
(dp864
sg82
g850
sg75
(lp865
g68
(g69
g70
NtRp866
(dp867
g73
(dp868
g81
I3
ssg82
g862
sg75
(lp869
S''
asbasbasbag68
(g84
g70
NtRp870
(dp871
g73
(dp872
sg82
g846
sg75
(lp873
g68
(g89
g70
NtRp874
(dp875
g73
(dp876
g93
g94
ssg82
g870
sg75
(lp877
g316
asbag68
(g89
g70
NtRp878
(dp879
g73
(dp880
g100
g101
ssg82
g870
sg75
(lp881
S':'
asbag68
(g89
g70
NtRp882
(dp883
g73
(dp884
sg82
g870
sg75
(lp885
g68
(g69
g70
NtRp886
(dp887
g73
(dp888
g81
I3
ssg82
g882
sg75
(lp889
S''
asbasbasbag68
(g84
g70
NtRp890
(dp891
g73
(dp892
sg82
g846
sg75
(lp893
g68
(g89
g70
NtRp894
(dp895
g73
(dp896
g93
g94
ssg82
g890
sg75
(lp897
g337
asbag68
(g89
g70
NtRp898
(dp899
g73
(dp900
g100
g101
ssg82
g890
sg75
(lp901
S':'
asbag68
(g89
g70
NtRp902
(dp903
g73
(dp904
sg82
g890
sg75
(lp905
g68
(g69
g70
NtRp906
(dp907
g73
(dp908
g81
I3
ssg82
g902
sg75
(lp909
S''
asbasbasbag68
(g84
g70
NtRp910
(dp911
g73
(dp912
sg82
g846
sg75
(lp913
g68
(g89
g70
NtRp914
(dp915
g73
(dp916
g93
g94
ssg82
g910
sg75
(lp917
g358
asbag68
(g89
g70
NtRp918
(dp919
g73
(dp920
g100
g101
ssg82
g910
sg75
(lp921
S':'
asbag68
(g89
g70
NtRp922
(dp923
g73
(dp924
sg82
g910
sg75
(lp925
g68
(g69
g70
NtRp926
(dp927
g73
(dp928
g81
I3
ssg82
g922
sg75
(lp929
S''
asbasbasbag68
(g84
g70
NtRp930
(dp931
g73
(dp932
sg82
g846
sg75
(lp933
g68
(g89
g70
NtRp934
(dp935
g73
(dp936
g93
g94
ssg82
g930
sg75
(lp937
g379
asbag68
(g89
g70
NtRp938
(dp939
g73
(dp940
g100
g101
ssg82
g930
sg75
(lp941
S':'
asbag68
(g89
g70
NtRp942
(dp943
g73
(dp944
sg82
g930
sg75
(lp945
g68
(g69
g70
NtRp946
(dp947
g73
(dp948
g81
I3
ssg82
g942
sg75
(lp949
S''
asbasbasbag68
(g84
g70
NtRp950
(dp951
g73
(dp952
sg82
g846
sg75
(lp953
g68
(g89
g70
NtRp954
(dp955
g73
(dp956
g93
g94
ssg82
g950
sg75
(lp957
g400
asbag68
(g89
g70
NtRp958
(dp959
g73
(dp960
g100
g101
ssg82
g950
sg75
(lp961
S':'
asbag68
(g89
g70
NtRp962
(dp963
g73
(dp964
sg82
g950
sg75
(lp965
g68
(g69
g70
NtRp966
(dp967
g73
(dp968
g81
I3
ssg82
g962
sg75
(lp969
S''
asbasbasbag68
(g84
g70
NtRp970
(dp971
g73
(dp972
sg82
g846
sg75
(lp973
g68
(g89
g70
NtRp974
(dp975
g73
(dp976
g93
g94
ssg82
g970
sg75
(lp977
g421
asbag68
(g89
g70
NtRp978
(dp979
g73
(dp980
g100
g101
ssg82
g970
sg75
(lp981
S':'
asbag68
(g89
g70
NtRp982
(dp983
g73
(dp984
sg82
g970
sg75
(lp985
g68
(g69
g70
NtRp986
(dp987
g73
(dp988
g81
I3
ssg82
g982
sg75
(lp989
S''
asbasbasbag68
(g84
g70
NtRp990
(dp991
g73
(dp992
sg82
g846
sg75
(lp993
g68
(g89
g70
NtRp994
(dp995
g73
(dp996
g93
g94
ssg82
g990
sg75
(lp997
g442
asbag68
(g89
g70
NtRp998
(dp999
g73
(dp1000
g100
g101
ssg82
g990
sg75
(lp1001
S':'
asbag68
(g89
g70
NtRp1002
(dp1003
g73
(dp1004
sg82
g990
sg75
(lp1005
g68
(g69
g70
NtRp1006
(dp1007
g73
(dp1008
g81
I3
ssg82
g1002
sg75
(lp1009
S''
asbasbasbasbasbasbasbag68
(g84
g70
NtRp1010
(dp1011
g73
(dp1012
sg82
g258
sg75
(lp1013
g68
(g89
g70
NtRp1014
(dp1015
g73
(dp1016
g93
g94
ssg82
g1010
sg75
(lp1017
S'session_id_welcome'
p1018
asbag68
(g89
g70
NtRp1019
(dp1020
g73
(dp1021
g100
g101
ssg82
g1010
sg75
(lp1022
S':'
asbag68
(g89
g70
NtRp1023
(dp1024
g73
(dp1025
sg82
g1010
sg75
(lp1026
g68
(g69
g70
NtRp1027
(dp1028
g73
(dp1029
g81
I4
ssg82
g1023
sg75
(lp1030
g68
(g77
g70
NtRp1031
(dp1032
g73
(dp1033
g81
I3
ssg82
Nsg75
(lp1034
g68
(g84
g70
NtRp1035
(dp1036
g73
(dp1037
sg82
g1031
sg75
(lp1038
g68
(g89
g70
NtRp1039
(dp1040
g73
(dp1041
g93
g94
ssg82
g1035
sg75
(lp1042
g295
asbag68
(g89
g70
NtRp1043
(dp1044
g73
(dp1045
g100
g101
ssg82
g1035
sg75
(lp1046
S':'
asbag68
(g89
g70
NtRp1047
(dp1048
g73
(dp1049
sg82
g1035
sg75
(lp1050
g68
(g69
g70
NtRp1051
(dp1052
g73
(dp1053
g81
I3
ssg82
g1047
sg75
(lp1054
S''
asbasbasbag68
(g84
g70
NtRp1055
(dp1056
g73
(dp1057
sg82
g1031
sg75
(lp1058
g68
(g89
g70
NtRp1059
(dp1060
g73
(dp1061
g93
g94
ssg82
g1055
sg75
(lp1062
g316
asbag68
(g89
g70
NtRp1063
(dp1064
g73
(dp1065
g100
g101
ssg82
g1055
sg75
(lp1066
S':'
asbag68
(g89
g70
NtRp1067
(dp1068
g73
(dp1069
sg82
g1055
sg75
(lp1070
g68
(g69
g70
NtRp1071
(dp1072
g73
(dp1073
g81
I3
ssg82
g1067
sg75
(lp1074
S''
asbasbasbag68
(g84
g70
NtRp1075
(dp1076
g73
(dp1077
sg82
g1031
sg75
(lp1078
g68
(g89
g70
NtRp1079
(dp1080
g73
(dp1081
g93
g94
ssg82
g1075
sg75
(lp1082
g337
asbag68
(g89
g70
NtRp1083
(dp1084
g73
(dp1085
g100
g101
ssg82
g1075
sg75
(lp1086
S':'
asbag68
(g89
g70
NtRp1087
(dp1088
g73
(dp1089
sg82
g1075
sg75
(lp1090
g68
(g69
g70
NtRp1091
(dp1092
g73
(dp1093
g81
I3
ssg82
g1087
sg75
(lp1094
S''
asbasbasbag68
(g84
g70
NtRp1095
(dp1096
g73
(dp1097
sg82
g1031
sg75
(lp1098
g68
(g89
g70
NtRp1099
(dp1100
g73
(dp1101
g93
g94
ssg82
g1095
sg75
(lp1102
g358
asbag68
(g89
g70
NtRp1103
(dp1104
g73
(dp1105
g100
g101
ssg82
g1095
sg75
(lp1106
S':'
asbag68
(g89
g70
NtRp1107
(dp1108
g73
(dp1109
sg82
g1095
sg75
(lp1110
g68
(g69
g70
NtRp1111
(dp1112
g73
(dp1113
g81
I3
ssg82
g1107
sg75
(lp1114
S''
asbasbasbag68
(g84
g70
NtRp1115
(dp1116
g73
(dp1117
sg82
g1031
sg75
(lp1118
g68
(g89
g70
NtRp1119
(dp1120
g73
(dp1121
g93
g94
ssg82
g1115
sg75
(lp1122
g379
asbag68
(g89
g70
NtRp1123
(dp1124
g73
(dp1125
g100
g101
ssg82
g1115
sg75
(lp1126
S':'
asbag68
(g89
g70
NtRp1127
(dp1128
g73
(dp1129
sg82
g1115
sg75
(lp1130
g68
(g69
g70
NtRp1131
(dp1132
g73
(dp1133
g81
I3
ssg82
g1127
sg75
(lp1134
S''
asbasbasbag68
(g84
g70
NtRp1135
(dp1136
g73
(dp1137
sg82
g1031
sg75
(lp1138
g68
(g89
g70
NtRp1139
(dp1140
g73
(dp1141
g93
g94
ssg82
g1135
sg75
(lp1142
g400
asbag68
(g89
g70
NtRp1143
(dp1144
g73
(dp1145
g100
g101
ssg82
g1135
sg75
(lp1146
S':'
asbag68
(g89
g70
NtRp1147
(dp1148
g73
(dp1149
sg82
g1135
sg75
(lp1150
g68
(g69
g70
NtRp1151
(dp1152
g73
(dp1153
g81
I3
ssg82
g1147
sg75
(lp1154
S''
asbasbasbag68
(g84
g70
NtRp1155
(dp1156
g73
(dp1157
sg82
g1031
sg75
(lp1158
g68
(g89
g70
NtRp1159
(dp1160
g73
(dp1161
g93
g94
ssg82
g1155
sg75
(lp1162
g421
asbag68
(g89
g70
NtRp1163
(dp1164
g73
(dp1165
g100
g101
ssg82
g1155
sg75
(lp1166
S':'
asbag68
(g89
g70
NtRp1167
(dp1168
g73
(dp1169
sg82
g1155
sg75
(lp1170
g68
(g69
g70
NtRp1171
(dp1172
g73
(dp1173
g81
I3
ssg82
g1167
sg75
(lp1174
S''
asbasbasbag68
(g84
g70
NtRp1175
(dp1176
g73
(dp1177
sg82
g1031
sg75
(lp1178
g68
(g89
g70
NtRp1179
(dp1180
g73
(dp1181
g93
g94
ssg82
g1175
sg75
(lp1182
g442
asbag68
(g89
g70
NtRp1183
(dp1184
g73
(dp1185
g100
g101
ssg82
g1175
sg75
(lp1186
S':'
asbag68
(g89
g70
NtRp1187
(dp1188
g73
(dp1189
sg82
g1175
sg75
(lp1190
g68
(g69
g70
NtRp1191
(dp1192
g73
(dp1193
g81
I3
ssg82
g1187
sg75
(lp1194
S''
asbasbasbasbasbasbasbasbasbasbasbag68
(g84
g70
NtRp1195
(dp1196
g73
(dp1197
sg82
g78
sg75
(lp1198
g68
(g89
g70
NtRp1199
(dp1200
g73
(dp1201
g93
g94
ssg82
g1195
sg75
(lp1202
S'env'
p1203
asbag68
(g89
g70
NtRp1204
(dp1205
g73
(dp1206
g100
g101
ssg82
g1195
sg75
(lp1207
S':'
asbag68
(g89
g70
NtRp1208
(dp1209
g73
(dp1210
sg82
g1195
sg75
(lp1211
g68
(g69
g70
NtRp1212
(dp1213
g73
(dp1214
g81
I5
ssg82
g1208
sg75
(lp1215
g68
(g77
g70
NtRp1216
(dp1217
g73
(dp1218
g81
I4
ssg82
Nsg75
(lp1219
g68
(g84
g70
NtRp1220
(dp1221
g73
(dp1222
sg82
g1216
sg75
(lp1223
g68
(g89
g70
NtRp1224
(dp1225
g73
(dp1226
g93
g94
ssg82
g1220
sg75
(lp1227
S'app_folders'
p1228
asbag68
(g89
g70
NtRp1229
(dp1230
g73
(dp1231
g100
g101
ssg82
g1220
sg75
(lp1232
S':'
asbag68
(g89
g70
NtRp1233
(dp1234
g73
(dp1235
sg82
g1220
sg75
(lp1236
g68
(g69
g70
NtRp1237
(dp1238
g73
(dp1239
g81
I4
ssg82
g1233
sg75
(lp1240
S"set(['/home/alumno/web2py/applications/admin/', '/home/alumno/web2py/applications/examples/', '/home/alumno/web2py/applications/welcome/', '/home/alumno/web2py/applications/datos/'])"
p1241
asbasbasbag68
(g84
g70
NtRp1242
(dp1243
g73
(dp1244
sg82
g1216
sg75
(lp1245
g68
(g89
g70
NtRp1246
(dp1247
g73
(dp1248
g93
g94
ssg82
g1242
sg75
(lp1249
S'applications_parent'
p1250
asbag68
(g89
g70
NtRp1251
(dp1252
g73
(dp1253
g100
g101
ssg82
g1242
sg75
(lp1254
S':'
asbag68
(g89
g70
NtRp1255
(dp1256
g73
(dp1257
sg82
g1242
sg75
(lp1258
g68
(g69
g70
NtRp1259
(dp1260
g73
(dp1261
g81
I4
ssg82
g1255
sg75
(lp1262
S'/home/alumno/web2py'
p1263
asbasbasbag68
(g84
g70
NtRp1264
(dp1265
g73
(dp1266
sg82
g1216
sg75
(lp1267
g68
(g89
g70
NtRp1268
(dp1269
g73
(dp1270
g93
g94
ssg82
g1264
sg75
(lp1271
S'cmd_args'
p1272
asbag68
(g89
g70
NtRp1273
(dp1274
g73
(dp1275
g100
g101
ssg82
g1264
sg75
(lp1276
S':'
asbag68
(g89
g70
NtRp1277
(dp1278
g73
(dp1279
sg82
g1264
sg75
(lp1280
g68
(g69
g70
NtRp1281
(dp1282
g73
(dp1283
g81
I4
ssg82
g1277
sg75
(lp1284
g68
(g77
g70
NtRp1285
(dp1286
g73
(dp1287
g81
I3
ssg82
Nsg75
(lp1288
sbasbasbasbag68
(g84
g70
NtRp1289
(dp1290
g73
(dp1291
sg82
g1216
sg75
(lp1292
g68
(g89
g70
NtRp1293
(dp1294
g73
(dp1295
g93
g94
ssg82
g1289
sg75
(lp1296
S'cmd_options'
p1297
asbag68
(g89
g70
NtRp1298
(dp1299
g73
(dp1300
g100
g101
ssg82
g1289
sg75
(lp1301
S':'
asbag68
(g89
g70
NtRp1302
(dp1303
g73
(dp1304
sg82
g1289
sg75
(lp1305
g68
(g69
g70
NtRp1306
(dp1307
g73
(dp1308
g81
I4
ssg82
g1302
sg75
(lp1309
S"<Values at 0x9087cec: {'verbose': False, 'ip': '127.0.0.1', 'shutdown_timeout': 5, 'taskbar': False, 'port': 8000, 'maxthreads': None, 'softcron': False, 'server_name': 'ubuntu-dev', 'bpython': False, 'nogui': False, 'nocron': False, 'extcron': False, 'debuglevel': 30, 'test': None, 'folder': '/home/alumno/web2py', 'config': '', 'import_models': False, 'winservice': '', 'shell': None, 'run': '', 'log_filename': 'httpserver.log', 'args': [''], 'profiler_filename': None, 'ssl_private_key': '', 'password': 'toor', 'request_queue_size': 5, 'ssl_certificate': '', 'cronjob': False, 'plain': False, 'quiet': False, 'interfaces': None, 'minthreads': None, 'timeout': 10, 'numthreads': None, 'nobanner': False, 'pid_filename': 'httpserver.pid'}>"
p1310
asbasbasbag68
(g84
g70
NtRp1311
(dp1312
g73
(dp1313
sg82
g1216
sg75
(lp1314
g68
(g89
g70
NtRp1315
(dp1316
g73
(dp1317
g93
g94
ssg82
g1311
sg75
(lp1318
S'db_sessions'
p1319
asbag68
(g89
g70
NtRp1320
(dp1321
g73
(dp1322
g100
g101
ssg82
g1311
sg75
(lp1323
S':'
asbag68
(g89
g70
NtRp1324
(dp1325
g73
(dp1326
sg82
g1311
sg75
(lp1327
g68
(g69
g70
NtRp1328
(dp1329
g73
(dp1330
g81
I4
ssg82
g1324
sg75
(lp1331
S'set([])'
p1332
asbasbasbag68
(g84
g70
NtRp1333
(dp1334
g73
(dp1335
sg82
g1216
sg75
(lp1336
g68
(g89
g70
NtRp1337
(dp1338
g73
(dp1339
g93
g94
ssg82
g1333
sg75
(lp1340
S'debugging'
p1341
asbag68
(g89
g70
NtRp1342
(dp1343
g73
(dp1344
g100
g101
ssg82
g1333
sg75
(lp1345
S':'
asbag68
(g89
g70
NtRp1346
(dp1347
g73
(dp1348
sg82
g1333
sg75
(lp1349
g68
(g69
g70
NtRp1350
(dp1351
g73
(dp1352
g81
I4
ssg82
g1346
sg75
(lp1353
g111
asbasbasbag68
(g84
g70
NtRp1354
(dp1355
g73
(dp1356
sg82
g1216
sg75
(lp1357
g68
(g89
g70
NtRp1358
(dp1359
g73
(dp1360
g93
g94
ssg82
g1354
sg75
(lp1361
S'gluon_parent'
p1362
asbag68
(g89
g70
NtRp1363
(dp1364
g73
(dp1365
g100
g101
ssg82
g1354
sg75
(lp1366
S':'
asbag68
(g89
g70
NtRp1367
(dp1368
g73
(dp1369
sg82
g1354
sg75
(lp1370
g68
(g69
g70
NtRp1371
(dp1372
g73
(dp1373
g81
I4
ssg82
g1367
sg75
(lp1374
S'/home/alumno/web2py'
p1375
asbasbasbag68
(g84
g70
NtRp1376
(dp1377
g73
(dp1378
sg82
g1216
sg75
(lp1379
g68
(g89
g70
NtRp1380
(dp1381
g73
(dp1382
g93
g94
ssg82
g1376
sg75
(lp1383
S'http_accept'
p1384
asbag68
(g89
g70
NtRp1385
(dp1386
g73
(dp1387
g100
g101
ssg82
g1376
sg75
(lp1388
S':'
asbag68
(g89
g70
NtRp1389
(dp1390
g73
(dp1391
sg82
g1376
sg75
(lp1392
g68
(g69
g70
NtRp1393
(dp1394
g73
(dp1395
g81
I4
ssg82
g1389
sg75
(lp1396
S'text/html,application/xhtml+xml,application/xml;q=0.9,*/*;q=0.8'
p1397
asbasbasbag68
(g84
g70
NtRp1398
(dp1399
g73
(dp1400
sg82
g1216
sg75
(lp1401
g68
(g89
g70
NtRp1402
(dp1403
g73
(dp1404
g93
g94
ssg82
g1398
sg75
(lp1405
S'http_accept_charset'
p1406
asbag68
(g89
g70
NtRp1407
(dp1408
g73
(dp1409
g100
g101
ssg82
g1398
sg75
(lp1410
S':'
asbag68
(g89
g70
NtRp1411
(dp1412
g73
(dp1413
sg82
g1398
sg75
(lp1414
g68
(g69
g70
NtRp1415
(dp1416
g73
(dp1417
g81
I4
ssg82
g1411
sg75
(lp1418
S'ISO-8859-1,utf-8;q=0.7,*;q=0.7'
p1419
asbasbasbag68
(g84
g70
NtRp1420
(dp1421
g73
(dp1422
sg82
g1216
sg75
(lp1423
g68
(g89
g70
NtRp1424
(dp1425
g73
(dp1426
g93
g94
ssg82
g1420
sg75
(lp1427
S'http_accept_encoding'
p1428
asbag68
(g89
g70
NtRp1429
(dp1430
g73
(dp1431
g100
g101
ssg82
g1420
sg75
(lp1432
S':'
asbag68
(g89
g70
NtRp1433
(dp1434
g73
(dp1435
sg82
g1420
sg75
(lp1436
g68
(g69
g70
NtRp1437
(dp1438
g73
(dp1439
g81
I4
ssg82
g1433
sg75
(lp1440
S'gzip, deflate'
p1441
asbasbasbag68
(g84
g70
NtRp1442
(dp1443
g73
(dp1444
sg82
g1216
sg75
(lp1445
g68
(g89
g70
NtRp1446
(dp1447
g73
(dp1448
g93
g94
ssg82
g1442
sg75
(lp1449
S'http_accept_language'
p1450
asbag68
(g89
g70
NtRp1451
(dp1452
g73
(dp1453
g100
g101
ssg82
g1442
sg75
(lp1454
S':'
asbag68
(g89
g70
NtRp1455
(dp1456
g73
(dp1457
sg82
g1442
sg75
(lp1458
g68
(g69
g70
NtRp1459
(dp1460
g73
(dp1461
g81
I4
ssg82
g1455
sg75
(lp1462
S'es-ar,es;q=0.8,en-us;q=0.5,en;q=0.3'
p1463
asbasbasbag68
(g84
g70
NtRp1464
(dp1465
g73
(dp1466
sg82
g1216
sg75
(lp1467
g68
(g89
g70
NtRp1468
(dp1469
g73
(dp1470
g93
g94
ssg82
g1464
sg75
(lp1471
S'http_cache_control'
p1472
asbag68
(g89
g70
NtRp1473
(dp1474
g73
(dp1475
g100
g101
ssg82
g1464
sg75
(lp1476
S':'
asbag68
(g89
g70
NtRp1477
(dp1478
g73
(dp1479
sg82
g1464
sg75
(lp1480
g68
(g69
g70
NtRp1481
(dp1482
g73
(dp1483
g81
I4
ssg82
g1477
sg75
(lp1484
S'max-age=0'
p1485
asbasbasbag68
(g84
g70
NtRp1486
(dp1487
g73
(dp1488
sg82
g1216
sg75
(lp1489
g68
(g89
g70
NtRp1490
(dp1491
g73
(dp1492
g93
g94
ssg82
g1486
sg75
(lp1493
S'http_connection'
p1494
asbag68
(g89
g70
NtRp1495
(dp1496
g73
(dp1497
g100
g101
ssg82
g1486
sg75
(lp1498
S':'
asbag68
(g89
g70
NtRp1499
(dp1500
g73
(dp1501
sg82
g1486
sg75
(lp1502
g68
(g69
g70
NtRp1503
(dp1504
g73
(dp1505
g81
I4
ssg82
g1499
sg75
(lp1506
S'keep-alive'
p1507
asbasbasbag68
(g84
g70
NtRp1508
(dp1509
g73
(dp1510
sg82
g1216
sg75
(lp1511
g68
(g89
g70
NtRp1512
(dp1513
g73
(dp1514
g93
g94
ssg82
g1508
sg75
(lp1515
S'http_cookie'
p1516
asbag68
(g89
g70
NtRp1517
(dp1518
g73
(dp1519
g100
g101
ssg82
g1508
sg75
(lp1520
S':'
asbag68
(g89
g70
NtRp1521
(dp1522
g73
(dp1523
sg82
g1508
sg75
(lp1524
g68
(g69
g70
NtRp1525
(dp1526
g73
(dp1527
g81
I4
ssg82
g1521
sg75
(lp1528
S'session_id_welcome=127.0.0.1-c95fabcd-64b7-4ad2-8180-0b191d29eb3c; session_id_admin=127.0.0.1-2a24ba51-970a-4d02-b8db-815ef71053d7; adminLanguage=es-es; session_id_datos=127.0.0.1-46d2cb62-581d-41be-b0c5-47ee0f5ac400; session_id_examples=127.0.0.1-1b0b7a34-7f7b-4b4f-9bcd-8574562516ff'
p1529
asbasbasbag68
(g84
g70
NtRp1530
(dp1531
g73
(dp1532
sg82
g1216
sg75
(lp1533
g68
(g89
g70
NtRp1534
(dp1535
g73
(dp1536
g93
g94
ssg82
g1530
sg75
(lp1537
S'http_host'
p1538
asbag68
(g89
g70
NtRp1539
(dp1540
g73
(dp1541
g100
g101
ssg82
g1530
sg75
(lp1542
S':'
asbag68
(g89
g70
NtRp1543
(dp1544
g73
(dp1545
sg82
g1530
sg75
(lp1546
g68
(g69
g70
NtRp1547
(dp1548
g73
(dp1549
g81
I4
ssg82
g1543
sg75
(lp1550
S'127.0.0.1:8000'
p1551
asbasbasbag68
(g84
g70
NtRp1552
(dp1553
g73
(dp1554
sg82
g1216
sg75
(lp1555
g68
(g89
g70
NtRp1556
(dp1557
g73
(dp1558
g93
g94
ssg82
g1552
sg75
(lp1559
S'http_referer'
p1560
asbag68
(g89
g70
NtRp1561
(dp1562
g73
(dp1563
g100
g101
ssg82
g1552
sg75
(lp1564
S':'
asbag68
(g89
g70
NtRp1565
(dp1566
g73
(dp1567
sg82
g1552
sg75
(lp1568
g68
(g69
g70
NtRp1569
(dp1570
g73
(dp1571
g81
I4
ssg82
g1565
sg75
(lp1572
S'http://127.0.0.1:8000/datos/default/index'
p1573
asbasbasbag68
(g84
g70
NtRp1574
(dp1575
g73
(dp1576
sg82
g1216
sg75
(lp1577
g68
(g89
g70
NtRp1578
(dp1579
g73
(dp1580
g93
g94
ssg82
g1574
sg75
(lp1581
S'http_user_agent'
p1582
asbag68
(g89
g70
NtRp1583
(dp1584
g73
(dp1585
g100
g101
ssg82
g1574
sg75
(lp1586
S':'
asbag68
(g89
g70
NtRp1587
(dp1588
g73
(dp1589
sg82
g1574
sg75
(lp1590
g68
(g69
g70
NtRp1591
(dp1592
g73
(dp1593
g81
I4
ssg82
g1587
sg75
(lp1594
S'Mozilla/5.0 (X11; Linux i686; rv:6.0) Gecko/20100101 Firefox/6.0'
p1595
asbasbasbag68
(g84
g70
NtRp1596
(dp1597
g73
(dp1598
sg82
g1216
sg75
(lp1599
g68
(g89
g70
NtRp1600
(dp1601
g73
(dp1602
g93
g94
ssg82
g1596
sg75
(lp1603
S'path_info'
p1604
asbag68
(g89
g70
NtRp1605
(dp1606
g73
(dp1607
g100
g101
ssg82
g1596
sg75
(lp1608
S':'
asbag68
(g89
g70
NtRp1609
(dp1610
g73
(dp1611
sg82
g1596
sg75
(lp1612
g68
(g69
g70
NtRp1613
(dp1614
g73
(dp1615
g81
I4
ssg82
g1609
sg75
(lp1616
S'/datos/default/detalle/p001'
p1617
asbasbasbag68
(g84
g70
NtRp1618
(dp1619
g73
(dp1620
sg82
g1216
sg75
(lp1621
g68
(g89
g70
NtRp1622
(dp1623
g73
(dp1624
g93
g94
ssg82
g1618
sg75
(lp1625
S'query_string'
p1626
asbag68
(g89
g70
NtRp1627
(dp1628
g73
(dp1629
g100
g101
ssg82
g1618
sg75
(lp1630
S':'
asbag68
(g89
g70
NtRp1631
(dp1632
g73
(dp1633
sg82
g1618
sg75
(lp1634
g68
(g69
g70
NtRp1635
(dp1636
g73
(dp1637
g81
I4
ssg82
g1631
sg75
(lp1638
S''
asbasbasbag68
(g84
g70
NtRp1639
(dp1640
g73
(dp1641
sg82
g1216
sg75
(lp1642
g68
(g89
g70
NtRp1643
(dp1644
g73
(dp1645
g93
g94
ssg82
g1639
sg75
(lp1646
S'remote_addr'
p1647
asbag68
(g89
g70
NtRp1648
(dp1649
g73
(dp1650
g100
g101
ssg82
g1639
sg75
(lp1651
S':'
asbag68
(g89
g70
NtRp1652
(dp1653
g73
(dp1654
sg82
g1639
sg75
(lp1655
g68
(g69
g70
NtRp1656
(dp1657
g73
(dp1658
g81
I4
ssg82
g1652
sg75
(lp1659
g214
asbasbasbag68
(g84
g70
NtRp1660
(dp1661
g73
(dp1662
sg82
g1216
sg75
(lp1663
g68
(g89
g70
NtRp1664
(dp1665
g73
(dp1666
g93
g94
ssg82
g1660
sg75
(lp1667
S'remote_port'
p1668
asbag68
(g89
g70
NtRp1669
(dp1670
g73
(dp1671
g100
g101
ssg82
g1660
sg75
(lp1672
S':'
asbag68
(g89
g70
NtRp1673
(dp1674
g73
(dp1675
sg82
g1660
sg75
(lp1676
g68
(g69
g70
NtRp1677
(dp1678
g73
(dp1679
g81
I4
ssg82
g1673
sg75
(lp1680
S'54548'
p1681
asbasbasbag68
(g84
g70
NtRp1682
(dp1683
g73
(dp1684
sg82
g1216
sg75
(lp1685
g68
(g89
g70
NtRp1686
(dp1687
g73
(dp1688
g93
g94
ssg82
g1682
sg75
(lp1689
S'request_method'
p1690
asbag68
(g89
g70
NtRp1691
(dp1692
g73
(dp1693
g100
g101
ssg82
g1682
sg75
(lp1694
S':'
asbag68
(g89
g70
NtRp1695
(dp1696
g73
(dp1697
sg82
g1682
sg75
(lp1698
g68
(g69
g70
NtRp1699
(dp1700
g73
(dp1701
g81
I4
ssg82
g1695
sg75
(lp1702
S'GET'
p1703
asbasbasbag68
(g84
g70
NtRp1704
(dp1705
g73
(dp1706
sg82
g1216
sg75
(lp1707
g68
(g89
g70
NtRp1708
(dp1709
g73
(dp1710
g93
g94
ssg82
g1704
sg75
(lp1711
S'script_name'
p1712
asbag68
(g89
g70
NtRp1713
(dp1714
g73
(dp1715
g100
g101
ssg82
g1704
sg75
(lp1716
S':'
asbag68
(g89
g70
NtRp1717
(dp1718
g73
(dp1719
sg82
g1704
sg75
(lp1720
g68
(g69
g70
NtRp1721
(dp1722
g73
(dp1723
g81
I4
ssg82
g1717
sg75
(lp1724
S''
asbasbasbag68
(g84
g70
NtRp1725
(dp1726
g73
(dp1727
sg82
g1216
sg75
(lp1728
g68
(g89
g70
NtRp1729
(dp1730
g73
(dp1731
g93
g94
ssg82
g1725
sg75
(lp1732
S'server_name'
p1733
asbag68
(g89
g70
NtRp1734
(dp1735
g73
(dp1736
g100
g101
ssg82
g1725
sg75
(lp1737
S':'
asbag68
(g89
g70
NtRp1738
(dp1739
g73
(dp1740
sg82
g1725
sg75
(lp1741
g68
(g69
g70
NtRp1742
(dp1743
g73
(dp1744
g81
I4
ssg82
g1738
sg75
(lp1745
S'ubuntu-dev'
p1746
asbasbasbag68
(g84
g70
NtRp1747
(dp1748
g73
(dp1749
sg82
g1216
sg75
(lp1750
g68
(g89
g70
NtRp1751
(dp1752
g73
(dp1753
g93
g94
ssg82
g1747
sg75
(lp1754
S'server_port'
p1755
asbag68
(g89
g70
NtRp1756
(dp1757
g73
(dp1758
g100
g101
ssg82
g1747
sg75
(lp1759
S':'
asbag68
(g89
g70
NtRp1760
(dp1761
g73
(dp1762
sg82
g1747
sg75
(lp1763
g68
(g69
g70
NtRp1764
(dp1765
g73
(dp1766
g81
I4
ssg82
g1760
sg75
(lp1767
S'8000'
p1768
asbasbasbag68
(g84
g70
NtRp1769
(dp1770
g73
(dp1771
sg82
g1216
sg75
(lp1772
g68
(g89
g70
NtRp1773
(dp1774
g73
(dp1775
g93
g94
ssg82
g1769
sg75
(lp1776
S'server_protocol'
p1777
asbag68
(g89
g70
NtRp1778
(dp1779
g73
(dp1780
g100
g101
ssg82
g1769
sg75
(lp1781
S':'
asbag68
(g89
g70
NtRp1782
(dp1783
g73
(dp1784
sg82
g1769
sg75
(lp1785
g68
(g69
g70
NtRp1786
(dp1787
g73
(dp1788
g81
I4
ssg82
g1782
sg75
(lp1789
S'HTTP/1.1'
p1790
asbasbasbag68
(g84
g70
NtRp1791
(dp1792
g73
(dp1793
sg82
g1216
sg75
(lp1794
g68
(g89
g70
NtRp1795
(dp1796
g73
(dp1797
g93
g94
ssg82
g1791
sg75
(lp1798
S'server_software'
p1799
asbag68
(g89
g70
NtRp1800
(dp1801
g73
(dp1802
g100
g101
ssg82
g1791
sg75
(lp1803
S':'
asbag68
(g89
g70
NtRp1804
(dp1805
g73
(dp1806
sg82
g1791
sg75
(lp1807
g68
(g69
g70
NtRp1808
(dp1809
g73
(dp1810
g81
I4
ssg82
g1804
sg75
(lp1811
S'Rocket 1.2.2'
p1812
asbasbasbag68
(g84
g70
NtRp1813
(dp1814
g73
(dp1815
sg82
g1216
sg75
(lp1816
g68
(g89
g70
NtRp1817
(dp1818
g73
(dp1819
g93
g94
ssg82
g1813
sg75
(lp1820
S'web2py_crontype'
p1821
asbag68
(g89
g70
NtRp1822
(dp1823
g73
(dp1824
g100
g101
ssg82
g1813
sg75
(lp1825
S':'
asbag68
(g89
g70
NtRp1826
(dp1827
g73
(dp1828
sg82
g1813
sg75
(lp1829
g68
(g69
g70
NtRp1830
(dp1831
g73
(dp1832
g81
I4
ssg82
g1826
sg75
(lp1833
S'hard'
p1834
asbasbasbag68
(g84
g70
NtRp1835
(dp1836
g73
(dp1837
sg82
g1216
sg75
(lp1838
g68
(g89
g70
NtRp1839
(dp1840
g73
(dp1841
g93
g94
ssg82
g1835
sg75
(lp1842
S'web2py_path'
p1843
asbag68
(g89
g70
NtRp1844
(dp1845
g73
(dp1846
g100
g101
ssg82
g1835
sg75
(lp1847
S':'
asbag68
(g89
g70
NtRp1848
(dp1849
g73
(dp1850
sg82
g1835
sg75
(lp1851
g68
(g69
g70
NtRp1852
(dp1853
g73
(dp1854
g81
I4
ssg82
g1848
sg75
(lp1855
g1263
asbasbasbag68
(g84
g70
NtRp1856
(dp1857
g73
(dp1858
sg82
g1216
sg75
(lp1859
g68
(g89
g70
NtRp1860
(dp1861
g73
(dp1862
g93
g94
ssg82
g1856
sg75
(lp1863
S'web2py_version'
p1864
asbag68
(g89
g70
NtRp1865
(dp1866
g73
(dp1867
g100
g101
ssg82
g1856
sg75
(lp1868
S':'
asbag68
(g89
g70
NtRp1869
(dp1870
g73
(dp1871
sg82
g1856
sg75
(lp1872
g68
(g69
g70
NtRp1873
(dp1874
g73
(dp1875
g81
I4
ssg82
g1869
sg75
(lp1876
S'Version 1.96.4 (2011-06-18 21:34:53)\n'
p1877
asbasbasbag68
(g84
g70
NtRp1878
(dp1879
g73
(dp1880
sg82
g1216
sg75
(lp1881
g68
(g89
g70
NtRp1882
(dp1883
g73
(dp1884
g93
g94
ssg82
g1878
sg75
(lp1885
S'wsgi_errors'
p1886
asbag68
(g89
g70
NtRp1887
(dp1888
g73
(dp1889
g100
g101
ssg82
g1878
sg75
(lp1890
S':'
asbag68
(g89
g70
NtRp1891
(dp1892
g73
(dp1893
sg82
g1878
sg75
(lp1894
g68
(g69
g70
NtRp1895
(dp1896
g73
(dp1897
g81
I4
ssg82
g1891
sg75
(lp1898
S"<open file '<stderr>', mode 'w' at 0xb77f60d0>"
p1899
asbasbasbag68
(g84
g70
NtRp1900
(dp1901
g73
(dp1902
sg82
g1216
sg75
(lp1903
g68
(g89
g70
NtRp1904
(dp1905
g73
(dp1906
g93
g94
ssg82
g1900
sg75
(lp1907
S'wsgi_file_wrapper'
p1908
asbag68
(g89
g70
NtRp1909
(dp1910
g73
(dp1911
g100
g101
ssg82
g1900
sg75
(lp1912
S':'
asbag68
(g89
g70
NtRp1913
(dp1914
g73
(dp1915
sg82
g1900
sg75
(lp1916
g68
(g69
g70
NtRp1917
(dp1918
g73
(dp1919
g81
I4
ssg82
g1913
sg75
(lp1920
S'<class gluon.rocket.FileWrapper at 0x8ea1e3c>'
p1921
asbasbasbag68
(g84
g70
NtRp1922
(dp1923
g73
(dp1924
sg82
g1216
sg75
(lp1925
g68
(g89
g70
NtRp1926
(dp1927
g73
(dp1928
g93
g94
ssg82
g1922
sg75
(lp1929
S'wsgi_input'
p1930
asbag68
(g89
g70
NtRp1931
(dp1932
g73
(dp1933
g100
g101
ssg82
g1922
sg75
(lp1934
S':'
asbag68
(g89
g70
NtRp1935
(dp1936
g73
(dp1937
sg82
g1922
sg75
(lp1938
g68
(g69
g70
NtRp1939
(dp1940
g73
(dp1941
g81
I4
ssg82
g1935
sg75
(lp1942
S'<socket._fileobject object at 0x982a72c>'
p1943
asbasbasbag68
(g84
g70
NtRp1944
(dp1945
g73
(dp1946
sg82
g1216
sg75
(lp1947
g68
(g89
g70
NtRp1948
(dp1949
g73
(dp1950
g93
g94
ssg82
g1944
sg75
(lp1951
S'wsgi_multiprocess'
p1952
asbag68
(g89
g70
NtRp1953
(dp1954
g73
(dp1955
g100
g101
ssg82
g1944
sg75
(lp1956
S':'
asbag68
(g89
g70
NtRp1957
(dp1958
g73
(dp1959
sg82
g1944
sg75
(lp1960
g68
(g69
g70
NtRp1961
(dp1962
g73
(dp1963
g81
I4
ssg82
g1957
sg75
(lp1964
g111
asbasbasbag68
(g84
g70
NtRp1965
(dp1966
g73
(dp1967
sg82
g1216
sg75
(lp1968
g68
(g89
g70
NtRp1969
(dp1970
g73
(dp1971
g93
g94
ssg82
g1965
sg75
(lp1972
S'wsgi_multithread'
p1973
asbag68
(g89
g70
NtRp1974
(dp1975
g73
(dp1976
g100
g101
ssg82
g1965
sg75
(lp1977
S':'
asbag68
(g89
g70
NtRp1978
(dp1979
g73
(dp1980
sg82
g1965
sg75
(lp1981
g68
(g69
g70
NtRp1982
(dp1983
g73
(dp1984
g81
I4
ssg82
g1978
sg75
(lp1985
S'True'
p1986
asbasbasbag68
(g84
g70
NtRp1987
(dp1988
g73
(dp1989
sg82
g1216
sg75
(lp1990
g68
(g89
g70
NtRp1991
(dp1992
g73
(dp1993
g93
g94
ssg82
g1987
sg75
(lp1994
S'wsgi_run_once'
p1995
asbag68
(g89
g70
NtRp1996
(dp1997
g73
(dp1998
g100
g101
ssg82
g1987
sg75
(lp1999
S':'
asbag68
(g89
g70
NtRp2000
(dp2001
g73
(dp2002
sg82
g1987
sg75
(lp2003
g68
(g69
g70
NtRp2004
(dp2005
g73
(dp2006
g81
I4
ssg82
g2000
sg75
(lp2007
g111
asbasbasbag68
(g84
g70
NtRp2008
(dp2009
g73
(dp2010
sg82
g1216
sg75
(lp2011
g68
(g89
g70
NtRp2012
(dp2013
g73
(dp2014
g93
g94
ssg82
g2008
sg75
(lp2015
S'wsgi_url_scheme'
p2016
asbag68
(g89
g70
NtRp2017
(dp2018
g73
(dp2019
g100
g101
ssg82
g2008
sg75
(lp2020
S':'
asbag68
(g89
g70
NtRp2021
(dp2022
g73
(dp2023
sg82
g2008
sg75
(lp2024
g68
(g69
g70
NtRp2025
(dp2026
g73
(dp2027
g81
I4
ssg82
g2021
sg75
(lp2028
S'http'
p2029
asbasbasbag68
(g84
g70
NtRp2030
(dp2031
g73
(dp2032
sg82
g1216
sg75
(lp2033
g68
(g89
g70
NtRp2034
(dp2035
g73
(dp2036
g93
g94
ssg82
g2030
sg75
(lp2037
S'wsgi_version'
p2038
asbag68
(g89
g70
NtRp2039
(dp2040
g73
(dp2041
g100
g101
ssg82
g2030
sg75
(lp2042
S':'
asbag68
(g89
g70
NtRp2043
(dp2044
g73
(dp2045
sg82
g2030
sg75
(lp2046
g68
(g69
g70
NtRp2047
(dp2048
g73
(dp2049
g81
I4
ssg82
g2043
sg75
(lp2050
g68
(g77
g70
NtRp2051
(dp2052
g73
(dp2053
g81
I3
ssg82
Nsg75
(lp2054
g68
(g84
g70
NtRp2055
(dp2056
g73
(dp2057
sg82
g2051
sg75
(lp2058
g68
(g89
g70
NtRp2059
(dp2060
g73
(dp2061
sg82
g2055
sg75
(lp2062
g68
(g69
g70
NtRp2063
(dp2064
g73
(dp2065
g81
I3
ssg82
g2059
sg75
(lp2066
S'1'
asbasbasbag68
(g84
g70
NtRp2067
(dp2068
g73
(dp2069
sg82
g2051
sg75
(lp2070
g68
(g89
g70
NtRp2071
(dp2072
g73
(dp2073
sg82
g2067
sg75
(lp2074
g68
(g69
g70
NtRp2075
(dp2076
g73
(dp2077
g81
I3
ssg82
g2071
sg75
(lp2078
S'0'
asbasbasbasbasbasbasbasbasbasbasbag68
(g84
g70
NtRp2079
(dp2080
g73
(dp2081
sg82
g78
sg75
(lp2082
g68
(g89
g70
NtRp2083
(dp2084
g73
(dp2085
g93
g94
ssg82
g2079
sg75
(lp2086
S'extension'
p2087
asbag68
(g89
g70
NtRp2088
(dp2089
g73
(dp2090
g100
g101
ssg82
g2079
sg75
(lp2091
S':'
asbag68
(g89
g70
NtRp2092
(dp2093
g73
(dp2094
sg82
g2079
sg75
(lp2095
g68
(g69
g70
NtRp2096
(dp2097
g73
(dp2098
g81
I5
ssg82
g2092
sg75
(lp2099
S'html'
p2100
asbasbasbag68
(g84
g70
NtRp2101
(dp2102
g73
(dp2103
sg82
g78
sg75
(lp2104
g68
(g89
g70
NtRp2105
(dp2106
g73
(dp2107
g93
g94
ssg82
g2101
sg75
(lp2108
S'folder'
p2109
asbag68
(g89
g70
NtRp2110
(dp2111
g73
(dp2112
g100
g101
ssg82
g2101
sg75
(lp2113
S':'
asbag68
(g89
g70
NtRp2114
(dp2115
g73
(dp2116
sg82
g2101
sg75
(lp2117
g68
(g69
g70
NtRp2118
(dp2119
g73
(dp2120
g81
I5
ssg82
g2114
sg75
(lp2121
S'/home/alumno/web2py/applications/datos/'
p2122
asbasbasbag68
(g84
g70
NtRp2123
(dp2124
g73
(dp2125
sg82
g78
sg75
(lp2126
g68
(g89
g70
NtRp2127
(dp2128
g73
(dp2129
g93
g94
ssg82
g2123
sg75
(lp2130
S'function'
p2131
asbag68
(g89
g70
NtRp2132
(dp2133
g73
(dp2134
g100
g101
ssg82
g2123
sg75
(lp2135
S':'
asbag68
(g89
g70
NtRp2136
(dp2137
g73
(dp2138
sg82
g2123
sg75
(lp2139
g68
(g69
g70
NtRp2140
(dp2141
g73
(dp2142
g81
I5
ssg82
g2136
sg75
(lp2143
S'detalle'
p2144
asbasbasbag68
(g84
g70
NtRp2145
(dp2146
g73
(dp2147
sg82
g78
sg75
(lp2148
g68
(g89
g70
NtRp2149
(dp2150
g73
(dp2151
g93
g94
ssg82
g2145
sg75
(lp2152
S'get_vars'
p2153
asbag68
(g89
g70
NtRp2154
(dp2155
g73
(dp2156
g100
g101
ssg82
g2145
sg75
(lp2157
S':'
asbag68
(g89
g70
NtRp2158
(dp2159
g73
(dp2160
sg82
g2145
sg75
(lp2161
g68
(g69
g70
NtRp2162
(dp2163
g73
(dp2164
g81
I5
ssg82
g2158
sg75
(lp2165
g68
(g77
g70
NtRp2166
(dp2167
g73
(dp2168
g81
I4
ssg82
Nsg75
(lp2169
sbasbasbasbag68
(g84
g70
NtRp2170
(dp2171
g73
(dp2172
sg82
g78
sg75
(lp2173
g68
(g89
g70
NtRp2174
(dp2175
g73
(dp2176
g93
g94
ssg82
g2170
sg75
(lp2177
S'is_https'
p2178
asbag68
(g89
g70
NtRp2179
(dp2180
g73
(dp2181
g100
g101
ssg82
g2170
sg75
(lp2182
S':'
asbag68
(g89
g70
NtRp2183
(dp2184
g73
(dp2185
sg82
g2170
sg75
(lp2186
g68
(g69
g70
NtRp2187
(dp2188
g73
(dp2189
g81
I5
ssg82
g2183
sg75
(lp2190
g111
asbasbasbag68
(g84
g70
NtRp2191
(dp2192
g73
(dp2193
sg82
g78
sg75
(lp2194
g68
(g89
g70
NtRp2195
(dp2196
g73
(dp2197
g93
g94
ssg82
g2191
sg75
(lp2198
S'is_local'
p2199
asbag68
(g89
g70
NtRp2200
(dp2201
g73
(dp2202
g100
g101
ssg82
g2191
sg75
(lp2203
S':'
asbag68
(g89
g70
NtRp2204
(dp2205
g73
(dp2206
sg82
g2191
sg75
(lp2207
g68
(g69
g70
NtRp2208
(dp2209
g73
(dp2210
g81
I5
ssg82
g2204
sg75
(lp2211
g1986
asbasbasbag68
(g84
g70
NtRp2212
(dp2213
g73
(dp2214
sg82
g78
sg75
(lp2215
g68
(g89
g70
NtRp2216
(dp2217
g73
(dp2218
g93
g94
ssg82
g2212
sg75
(lp2219
S'is_restful'
p2220
asbag68
(g89
g70
NtRp2221
(dp2222
g73
(dp2223
g100
g101
ssg82
g2212
sg75
(lp2224
S':'
asbag68
(g89
g70
NtRp2225
(dp2226
g73
(dp2227
sg82
g2212
sg75
(lp2228
g68
(g69
g70
NtRp2229
(dp2230
g73
(dp2231
g81
I5
ssg82
g2225
sg75
(lp2232
g111
asbasbasbag68
(g84
g70
NtRp2233
(dp2234
g73
(dp2235
sg82
g78
sg75
(lp2236
g68
(g89
g70
NtRp2237
(dp2238
g73
(dp2239
g93
g94
ssg82
g2233
sg75
(lp2240
S'now'
p2241
asbag68
(g89
g70
NtRp2242
(dp2243
g73
(dp2244
g100
g101
ssg82
g2233
sg75
(lp2245
S':'
asbag68
(g89
g70
NtRp2246
(dp2247
g73
(dp2248
sg82
g2233
sg75
(lp2249
g68
(g69
g70
NtRp2250
(dp2251
g73
(dp2252
g81
I5
ssg82
g2246
sg75
(lp2253
S'datetime.datetime(2011, 9, 10, 18, 49, 20, 412958)'
p2254
asbasbasbag68
(g84
g70
NtRp2255
(dp2256
g73
(dp2257
sg82
g78
sg75
(lp2258
g68
(g89
g70
NtRp2259
(dp2260
g73
(dp2261
g93
g94
ssg82
g2255
sg75
(lp2262
S'post_vars'
p2263
asbag68
(g89
g70
NtRp2264
(dp2265
g73
(dp2266
g100
g101
ssg82
g2255
sg75
(lp2267
S':'
asbag68
(g89
g70
NtRp2268
(dp2269
g73
(dp2270
sg82
g2255
sg75
(lp2271
g68
(g69
g70
NtRp2272
(dp2273
g73
(dp2274
g81
I5
ssg82
g2268
sg75
(lp2275
g68
(g77
g70
NtRp2276
(dp2277
g73
(dp2278
g81
I4
ssg82
Nsg75
(lp2279
sbasbasbasbag68
(g84
g70
NtRp2280
(dp2281
g73
(dp2282
sg82
g78
sg75
(lp2283
g68
(g89
g70
NtRp2284
(dp2285
g73
(dp2286
g93
g94
ssg82
g2280
sg75
(lp2287
S'raw_args'
p2288
asbag68
(g89
g70
NtRp2289
(dp2290
g73
(dp2291
g100
g101
ssg82
g2280
sg75
(lp2292
S':'
asbag68
(g89
g70
NtRp2293
(dp2294
g73
(dp2295
sg82
g2280
sg75
(lp2296
g68
(g69
g70
NtRp2297
(dp2298
g73
(dp2299
g81
I5
ssg82
g2293
sg75
(lp2300
g170
asbasbasbag68
(g84
g70
NtRp2301
(dp2302
g73
(dp2303
sg82
g78
sg75
(lp2304
g68
(g89
g70
NtRp2305
(dp2306
g73
(dp2307
g93
g94
ssg82
g2301
sg75
(lp2308
S'url'
p2309
asbag68
(g89
g70
NtRp2310
(dp2311
g73
(dp2312
g100
g101
ssg82
g2301
sg75
(lp2313
S':'
asbag68
(g89
g70
NtRp2314
(dp2315
g73
(dp2316
sg82
g2301
sg75
(lp2317
g68
(g69
g70
NtRp2318
(dp2319
g73
(dp2320
g81
I5
ssg82
g2314
sg75
(lp2321
S'/datos/default/detalle/p001'
p2322
asbasbasbag68
(g84
g70
NtRp2323
(dp2324
g73
(dp2325
sg82
g78
sg75
(lp2326
g68
(g89
g70
NtRp2327
(dp2328
g73
(dp2329
g93
g94
ssg82
g2323
sg75
(lp2330
S'uuid'
p2331
asbag68
(g89
g70
NtRp2332
(dp2333
g73
(dp2334
g100
g101
ssg82
g2323
sg75
(lp2335
S':'
asbag68
(g89
g70
NtRp2336
(dp2337
g73
(dp2338
sg82
g2323
sg75
(lp2339
g68
(g69
g70
NtRp2340
(dp2341
g73
(dp2342
g81
I5
ssg82
g2336
sg75
(lp2343
S'datos/127.0.0.1.2011-09-10.18-49-20.9657a89a-3064-48a6-bb9d-d679681cee92'
p2344
asbasbasbag68
(g84
g70
NtRp2345
(dp2346
g73
(dp2347
sg82
g78
sg75
(lp2348
g68
(g89
g70
NtRp2349
(dp2350
g73
(dp2351
g93
g94
ssg82
g2345
sg75
(lp2352
S'vars'
p2353
asbag68
(g89
g70
NtRp2354
(dp2355
g73
(dp2356
g100
g101
ssg82
g2345
sg75
(lp2357
S':'
asbag68
(g89
g70
NtRp2358
(dp2359
g73
(dp2360
sg82
g2345
sg75
(lp2361
g68
(g69
g70
NtRp2362
(dp2363
g73
(dp2364
g81
I5
ssg82
g2358
sg75
(lp2365
g68
(g77
g70
NtRp2366
(dp2367
g73
(dp2368
g81
I4
ssg82
Nsg75
(lp2369
sbasbasbasbag68
(g84
g70
NtRp2370
(dp2371
g73
(dp2372
sg82
g78
sg75
(lp2373
g68
(g89
g70
NtRp2374
(dp2375
g73
(dp2376
g93
g94
ssg82
g2370
sg75
(lp2377
S'wsgi'
p2378
asbag68
(g89
g70
NtRp2379
(dp2380
g73
(dp2381
g100
g101
ssg82
g2370
sg75
(lp2382
S':'
asbag68
(g89
g70
NtRp2383
(dp2384
g73
(dp2385
sg82
g2370
sg75
(lp2386
g68
(g69
g70
NtRp2387
(dp2388
g73
(dp2389
g81
I5
ssg82
g2383
sg75
(lp2390
g68
(g77
g70
NtRp2391
(dp2392
g73
(dp2393
g81
I4
ssg82
Nsg75
(lp2394
g68
(g84
g70
NtRp2395
(dp2396
g73
(dp2397
sg82
g2391
sg75
(lp2398
g68
(g89
g70
NtRp2399
(dp2400
g73
(dp2401
g93
g94
ssg82
g2395
sg75
(lp2402
S'environ'
p2403
asbag68
(g89
g70
NtRp2404
(dp2405
g73
(dp2406
g100
g101
ssg82
g2395
sg75
(lp2407
S':'
asbag68
(g89
g70
NtRp2408
(dp2409
g73
(dp2410
sg82
g2395
sg75
(lp2411
g68
(g69
g70
NtRp2412
(dp2413
g73
(dp2414
g81
I4
ssg82
g2408
sg75
(lp2415
g68
(g77
g70
NtRp2416
(dp2417
g73
(dp2418
g81
I3
ssg82
Nsg75
(lp2419
g68
(g84
g70
NtRp2420
(dp2421
g73
(dp2422
sg82
g2416
sg75
(lp2423
g68
(g89
g70
NtRp2424
(dp2425
g73
(dp2426
g93
g94
ssg82
g2420
sg75
(lp2427
S'HTTP_ACCEPT'
p2428
asbag68
(g89
g70
NtRp2429
(dp2430
g73
(dp2431
g100
g101
ssg82
g2420
sg75
(lp2432
S':'
asbag68
(g89
g70
NtRp2433
(dp2434
g73
(dp2435
sg82
g2420
sg75
(lp2436
g68
(g69
g70
NtRp2437
(dp2438
g73
(dp2439
g81
I3
ssg82
g2433
sg75
(lp2440
g1397
asbasbasbag68
(g84
g70
NtRp2441
(dp2442
g73
(dp2443
sg82
g2416
sg75
(lp2444
g68
(g89
g70
NtRp2445
(dp2446
g73
(dp2447
g93
g94
ssg82
g2441
sg75
(lp2448
S'HTTP_ACCEPT_CHARSET'
p2449
asbag68
(g89
g70
NtRp2450
(dp2451
g73
(dp2452
g100
g101
ssg82
g2441
sg75
(lp2453
S':'
asbag68
(g89
g70
NtRp2454
(dp2455
g73
(dp2456
sg82
g2441
sg75
(lp2457
g68
(g69
g70
NtRp2458
(dp2459
g73
(dp2460
g81
I3
ssg82
g2454
sg75
(lp2461
g1419
asbasbasbag68
(g84
g70
NtRp2462
(dp2463
g73
(dp2464
sg82
g2416
sg75
(lp2465
g68
(g89
g70
NtRp2466
(dp2467
g73
(dp2468
g93
g94
ssg82
g2462
sg75
(lp2469
S'HTTP_ACCEPT_ENCODING'
p2470
asbag68
(g89
g70
NtRp2471
(dp2472
g73
(dp2473
g100
g101
ssg82
g2462
sg75
(lp2474
S':'
asbag68
(g89
g70
NtRp2475
(dp2476
g73
(dp2477
sg82
g2462
sg75
(lp2478
g68
(g69
g70
NtRp2479
(dp2480
g73
(dp2481
g81
I3
ssg82
g2475
sg75
(lp2482
g1441
asbasbasbag68
(g84
g70
NtRp2483
(dp2484
g73
(dp2485
sg82
g2416
sg75
(lp2486
g68
(g89
g70
NtRp2487
(dp2488
g73
(dp2489
g93
g94
ssg82
g2483
sg75
(lp2490
S'HTTP_ACCEPT_LANGUAGE'
p2491
asbag68
(g89
g70
NtRp2492
(dp2493
g73
(dp2494
g100
g101
ssg82
g2483
sg75
(lp2495
S':'
asbag68
(g89
g70
NtRp2496
(dp2497
g73
(dp2498
sg82
g2483
sg75
(lp2499
g68
(g69
g70
NtRp2500
(dp2501
g73
(dp2502
g81
I3
ssg82
g2496
sg75
(lp2503
g1463
asbasbasbag68
(g84
g70
NtRp2504
(dp2505
g73
(dp2506
sg82
g2416
sg75
(lp2507
g68
(g89
g70
NtRp2508
(dp2509
g73
(dp2510
g93
g94
ssg82
g2504
sg75
(lp2511
S'HTTP_CACHE_CONTROL'
p2512
asbag68
(g89
g70
NtRp2513
(dp2514
g73
(dp2515
g100
g101
ssg82
g2504
sg75
(lp2516
S':'
asbag68
(g89
g70
NtRp2517
(dp2518
g73
(dp2519
sg82
g2504
sg75
(lp2520
g68
(g69
g70
NtRp2521
(dp2522
g73
(dp2523
g81
I3
ssg82
g2517
sg75
(lp2524
g1485
asbasbasbag68
(g84
g70
NtRp2525
(dp2526
g73
(dp2527
sg82
g2416
sg75
(lp2528
g68
(g89
g70
NtRp2529
(dp2530
g73
(dp2531
g93
g94
ssg82
g2525
sg75
(lp2532
S'HTTP_CONNECTION'
p2533
asbag68
(g89
g70
NtRp2534
(dp2535
g73
(dp2536
g100
g101
ssg82
g2525
sg75
(lp2537
S':'
asbag68
(g89
g70
NtRp2538
(dp2539
g73
(dp2540
sg82
g2525
sg75
(lp2541
g68
(g69
g70
NtRp2542
(dp2543
g73
(dp2544
g81
I3
ssg82
g2538
sg75
(lp2545
g1507
asbasbasbag68
(g84
g70
NtRp2546
(dp2547
g73
(dp2548
sg82
g2416
sg75
(lp2549
g68
(g89
g70
NtRp2550
(dp2551
g73
(dp2552
g93
g94
ssg82
g2546
sg75
(lp2553
S'HTTP_COOKIE'
p2554
asbag68
(g89
g70
NtRp2555
(dp2556
g73
(dp2557
g100
g101
ssg82
g2546
sg75
(lp2558
S':'
asbag68
(g89
g70
NtRp2559
(dp2560
g73
(dp2561
sg82
g2546
sg75
(lp2562
g68
(g69
g70
NtRp2563
(dp2564
g73
(dp2565
g81
I3
ssg82
g2559
sg75
(lp2566
g1529
asbasbasbag68
(g84
g70
NtRp2567
(dp2568
g73
(dp2569
sg82
g2416
sg75
(lp2570
g68
(g89
g70
NtRp2571
(dp2572
g73
(dp2573
g93
g94
ssg82
g2567
sg75
(lp2574
S'HTTP_HOST'
p2575
asbag68
(g89
g70
NtRp2576
(dp2577
g73
(dp2578
g100
g101
ssg82
g2567
sg75
(lp2579
S':'
asbag68
(g89
g70
NtRp2580
(dp2581
g73
(dp2582
sg82
g2567
sg75
(lp2583
g68
(g69
g70
NtRp2584
(dp2585
g73
(dp2586
g81
I3
ssg82
g2580
sg75
(lp2587
g1551
asbasbasbag68
(g84
g70
NtRp2588
(dp2589
g73
(dp2590
sg82
g2416
sg75
(lp2591
g68
(g89
g70
NtRp2592
(dp2593
g73
(dp2594
g93
g94
ssg82
g2588
sg75
(lp2595
S'HTTP_REFERER'
p2596
asbag68
(g89
g70
NtRp2597
(dp2598
g73
(dp2599
g100
g101
ssg82
g2588
sg75
(lp2600
S':'
asbag68
(g89
g70
NtRp2601
(dp2602
g73
(dp2603
sg82
g2588
sg75
(lp2604
g68
(g69
g70
NtRp2605
(dp2606
g73
(dp2607
g81
I3
ssg82
g2601
sg75
(lp2608
g1573
asbasbasbag68
(g84
g70
NtRp2609
(dp2610
g73
(dp2611
sg82
g2416
sg75
(lp2612
g68
(g89
g70
NtRp2613
(dp2614
g73
(dp2615
g93
g94
ssg82
g2609
sg75
(lp2616
S'HTTP_USER_AGENT'
p2617
asbag68
(g89
g70
NtRp2618
(dp2619
g73
(dp2620
g100
g101
ssg82
g2609
sg75
(lp2621
S':'
asbag68
(g89
g70
NtRp2622
(dp2623
g73
(dp2624
sg82
g2609
sg75
(lp2625
g68
(g69
g70
NtRp2626
(dp2627
g73
(dp2628
g81
I3
ssg82
g2622
sg75
(lp2629
g1595
asbasbasbag68
(g84
g70
NtRp2630
(dp2631
g73
(dp2632
sg82
g2416
sg75
(lp2633
g68
(g89
g70
NtRp2634
(dp2635
g73
(dp2636
g93
g94
ssg82
g2630
sg75
(lp2637
S'PATH_INFO'
p2638
asbag68
(g89
g70
NtRp2639
(dp2640
g73
(dp2641
g100
g101
ssg82
g2630
sg75
(lp2642
S':'
asbag68
(g89
g70
NtRp2643
(dp2644
g73
(dp2645
sg82
g2630
sg75
(lp2646
g68
(g69
g70
NtRp2647
(dp2648
g73
(dp2649
g81
I3
ssg82
g2643
sg75
(lp2650
g1617
asbasbasbag68
(g84
g70
NtRp2651
(dp2652
g73
(dp2653
sg82
g2416
sg75
(lp2654
g68
(g89
g70
NtRp2655
(dp2656
g73
(dp2657
g93
g94
ssg82
g2651
sg75
(lp2658
S'QUERY_STRING'
p2659
asbag68
(g89
g70
NtRp2660
(dp2661
g73
(dp2662
g100
g101
ssg82
g2651
sg75
(lp2663
S':'
asbag68
(g89
g70
NtRp2664
(dp2665
g73
(dp2666
sg82
g2651
sg75
(lp2667
g68
(g69
g70
NtRp2668
(dp2669
g73
(dp2670
g81
I3
ssg82
g2664
sg75
(lp2671
S''
asbasbasbag68
(g84
g70
NtRp2672
(dp2673
g73
(dp2674
sg82
g2416
sg75
(lp2675
g68
(g89
g70
NtRp2676
(dp2677
g73
(dp2678
g93
g94
ssg82
g2672
sg75
(lp2679
S'REMOTE_ADDR'
p2680
asbag68
(g89
g70
NtRp2681
(dp2682
g73
(dp2683
g100
g101
ssg82
g2672
sg75
(lp2684
S':'
asbag68
(g89
g70
NtRp2685
(dp2686
g73
(dp2687
sg82
g2672
sg75
(lp2688
g68
(g69
g70
NtRp2689
(dp2690
g73
(dp2691
g81
I3
ssg82
g2685
sg75
(lp2692
g214
asbasbasbag68
(g84
g70
NtRp2693
(dp2694
g73
(dp2695
sg82
g2416
sg75
(lp2696
g68
(g89
g70
NtRp2697
(dp2698
g73
(dp2699
g93
g94
ssg82
g2693
sg75
(lp2700
S'REMOTE_PORT'
p2701
asbag68
(g89
g70
NtRp2702
(dp2703
g73
(dp2704
g100
g101
ssg82
g2693
sg75
(lp2705
S':'
asbag68
(g89
g70
NtRp2706
(dp2707
g73
(dp2708
sg82
g2693
sg75
(lp2709
g68
(g69
g70
NtRp2710
(dp2711
g73
(dp2712
g81
I3
ssg82
g2706
sg75
(lp2713
g1681
asbasbasbag68
(g84
g70
NtRp2714
(dp2715
g73
(dp2716
sg82
g2416
sg75
(lp2717
g68
(g89
g70
NtRp2718
(dp2719
g73
(dp2720
g93
g94
ssg82
g2714
sg75
(lp2721
S'REQUEST_METHOD'
p2722
asbag68
(g89
g70
NtRp2723
(dp2724
g73
(dp2725
g100
g101
ssg82
g2714
sg75
(lp2726
S':'
asbag68
(g89
g70
NtRp2727
(dp2728
g73
(dp2729
sg82
g2714
sg75
(lp2730
g68
(g69
g70
NtRp2731
(dp2732
g73
(dp2733
g81
I3
ssg82
g2727
sg75
(lp2734
g1703
asbasbasbag68
(g84
g70
NtRp2735
(dp2736
g73
(dp2737
sg82
g2416
sg75
(lp2738
g68
(g89
g70
NtRp2739
(dp2740
g73
(dp2741
g93
g94
ssg82
g2735
sg75
(lp2742
S'SCRIPT_NAME'
p2743
asbag68
(g89
g70
NtRp2744
(dp2745
g73
(dp2746
g100
g101
ssg82
g2735
sg75
(lp2747
S':'
asbag68
(g89
g70
NtRp2748
(dp2749
g73
(dp2750
sg82
g2735
sg75
(lp2751
g68
(g69
g70
NtRp2752
(dp2753
g73
(dp2754
g81
I3
ssg82
g2748
sg75
(lp2755
S''
asbasbasbag68
(g84
g70
NtRp2756
(dp2757
g73
(dp2758
sg82
g2416
sg75
(lp2759
g68
(g89
g70
NtRp2760
(dp2761
g73
(dp2762
g93
g94
ssg82
g2756
sg75
(lp2763
S'SERVER_NAME'
p2764
asbag68
(g89
g70
NtRp2765
(dp2766
g73
(dp2767
g100
g101
ssg82
g2756
sg75
(lp2768
S':'
asbag68
(g89
g70
NtRp2769
(dp2770
g73
(dp2771
sg82
g2756
sg75
(lp2772
g68
(g69
g70
NtRp2773
(dp2774
g73
(dp2775
g81
I3
ssg82
g2769
sg75
(lp2776
g1746
asbasbasbag68
(g84
g70
NtRp2777
(dp2778
g73
(dp2779
sg82
g2416
sg75
(lp2780
g68
(g89
g70
NtRp2781
(dp2782
g73
(dp2783
g93
g94
ssg82
g2777
sg75
(lp2784
S'SERVER_PORT'
p2785
asbag68
(g89
g70
NtRp2786
(dp2787
g73
(dp2788
g100
g101
ssg82
g2777
sg75
(lp2789
S':'
asbag68
(g89
g70
NtRp2790
(dp2791
g73
(dp2792
sg82
g2777
sg75
(lp2793
g68
(g69
g70
NtRp2794
(dp2795
g73
(dp2796
g81
I3
ssg82
g2790
sg75
(lp2797
g1768
asbasbasbag68
(g84
g70
NtRp2798
(dp2799
g73
(dp2800
sg82
g2416
sg75
(lp2801
g68
(g89
g70
NtRp2802
(dp2803
g73
(dp2804
g93
g94
ssg82
g2798
sg75
(lp2805
S'SERVER_PROTOCOL'
p2806
asbag68
(g89
g70
NtRp2807
(dp2808
g73
(dp2809
g100
g101
ssg82
g2798
sg75
(lp2810
S':'
asbag68
(g89
g70
NtRp2811
(dp2812
g73
(dp2813
sg82
g2798
sg75
(lp2814
g68
(g69
g70
NtRp2815
(dp2816
g73
(dp2817
g81
I3
ssg82
g2811
sg75
(lp2818
g1790
asbasbasbag68
(g84
g70
NtRp2819
(dp2820
g73
(dp2821
sg82
g2416
sg75
(lp2822
g68
(g89
g70
NtRp2823
(dp2824
g73
(dp2825
g93
g94
ssg82
g2819
sg75
(lp2826
S'SERVER_SOFTWARE'
p2827
asbag68
(g89
g70
NtRp2828
(dp2829
g73
(dp2830
g100
g101
ssg82
g2819
sg75
(lp2831
S':'
asbag68
(g89
g70
NtRp2832
(dp2833
g73
(dp2834
sg82
g2819
sg75
(lp2835
g68
(g69
g70
NtRp2836
(dp2837
g73
(dp2838
g81
I3
ssg82
g2832
sg75
(lp2839
g1812
asbasbasbag68
(g84
g70
NtRp2840
(dp2841
g73
(dp2842
sg82
g2416
sg75
(lp2843
g68
(g89
g70
NtRp2844
(dp2845
g73
(dp2846
g93
g94
ssg82
g2840
sg75
(lp2847
S'wsgi.errors'
p2848
asbag68
(g89
g70
NtRp2849
(dp2850
g73
(dp2851
g100
g101
ssg82
g2840
sg75
(lp2852
S':'
asbag68
(g89
g70
NtRp2853
(dp2854
g73
(dp2855
sg82
g2840
sg75
(lp2856
g68
(g69
g70
NtRp2857
(dp2858
g73
(dp2859
g81
I3
ssg82
g2853
sg75
(lp2860
S"<open file '<stderr>', mode 'w' at 0xb77f60d0>"
p2861
asbasbasbag68
(g84
g70
NtRp2862
(dp2863
g73
(dp2864
sg82
g2416
sg75
(lp2865
g68
(g89
g70
NtRp2866
(dp2867
g73
(dp2868
g93
g94
ssg82
g2862
sg75
(lp2869
S'wsgi.file_wrapper'
p2870
asbag68
(g89
g70
NtRp2871
(dp2872
g73
(dp2873
g100
g101
ssg82
g2862
sg75
(lp2874
S':'
asbag68
(g89
g70
NtRp2875
(dp2876
g73
(dp2877
sg82
g2862
sg75
(lp2878
g68
(g69
g70
NtRp2879
(dp2880
g73
(dp2881
g81
I3
ssg82
g2875
sg75
(lp2882
S'<class gluon.rocket.FileWrapper at 0x8ea1e3c>'
p2883
asbasbasbag68
(g84
g70
NtRp2884
(dp2885
g73
(dp2886
sg82
g2416
sg75
(lp2887
g68
(g89
g70
NtRp2888
(dp2889
g73
(dp2890
g93
g94
ssg82
g2884
sg75
(lp2891
S'wsgi.input'
p2892
asbag68
(g89
g70
NtRp2893
(dp2894
g73
(dp2895
g100
g101
ssg82
g2884
sg75
(lp2896
S':'
asbag68
(g89
g70
NtRp2897
(dp2898
g73
(dp2899
sg82
g2884
sg75
(lp2900
g68
(g69
g70
NtRp2901
(dp2902
g73
(dp2903
g81
I3
ssg82
g2897
sg75
(lp2904
S'<cStringIO.StringO object at 0x9c7ce60>'
p2905
asbasbasbag68
(g84
g70
NtRp2906
(dp2907
g73
(dp2908
sg82
g2416
sg75
(lp2909
g68
(g89
g70
NtRp2910
(dp2911
g73
(dp2912
g93
g94
ssg82
g2906
sg75
(lp2913
S'wsgi.multiprocess'
p2914
asbag68
(g89
g70
NtRp2915
(dp2916
g73
(dp2917
g100
g101
ssg82
g2906
sg75
(lp2918
S':'
asbag68
(g89
g70
NtRp2919
(dp2920
g73
(dp2921
sg82
g2906
sg75
(lp2922
g68
(g69
g70
NtRp2923
(dp2924
g73
(dp2925
g81
I3
ssg82
g2919
sg75
(lp2926
g111
asbasbasbag68
(g84
g70
NtRp2927
(dp2928
g73
(dp2929
sg82
g2416
sg75
(lp2930
g68
(g89
g70
NtRp2931
(dp2932
g73
(dp2933
g93
g94
ssg82
g2927
sg75
(lp2934
S'wsgi.multithread'
p2935
asbag68
(g89
g70
NtRp2936
(dp2937
g73
(dp2938
g100
g101
ssg82
g2927
sg75
(lp2939
S':'
asbag68
(g89
g70
NtRp2940
(dp2941
g73
(dp2942
sg82
g2927
sg75
(lp2943
g68
(g69
g70
NtRp2944
(dp2945
g73
(dp2946
g81
I3
ssg82
g2940
sg75
(lp2947
g1986
asbasbasbag68
(g84
g70
NtRp2948
(dp2949
g73
(dp2950
sg82
g2416
sg75
(lp2951
g68
(g89
g70
NtRp2952
(dp2953
g73
(dp2954
g93
g94
ssg82
g2948
sg75
(lp2955
S'wsgi.run_once'
p2956
asbag68
(g89
g70
NtRp2957
(dp2958
g73
(dp2959
g100
g101
ssg82
g2948
sg75
(lp2960
S':'
asbag68
(g89
g70
NtRp2961
(dp2962
g73
(dp2963
sg82
g2948
sg75
(lp2964
g68
(g69
g70
NtRp2965
(dp2966
g73
(dp2967
g81
I3
ssg82
g2961
sg75
(lp2968
g111
asbasbasbag68
(g84
g70
NtRp2969
(dp2970
g73
(dp2971
sg82
g2416
sg75
(lp2972
g68
(g89
g70
NtRp2973
(dp2974
g73
(dp2975
g93
g94
ssg82
g2969
sg75
(lp2976
S'wsgi.url_scheme'
p2977
asbag68
(g89
g70
NtRp2978
(dp2979
g73
(dp2980
g100
g101
ssg82
g2969
sg75
(lp2981
S':'
asbag68
(g89
g70
NtRp2982
(dp2983
g73
(dp2984
sg82
g2969
sg75
(lp2985
g68
(g69
g70
NtRp2986
(dp2987
g73
(dp2988
g81
I3
ssg82
g2982
sg75
(lp2989
g2029
asbasbasbag68
(g84
g70
NtRp2990
(dp2991
g73
(dp2992
sg82
g2416
sg75
(lp2993
g68
(g89
g70
NtRp2994
(dp2995
g73
(dp2996
g93
g94
ssg82
g2990
sg75
(lp2997
S'wsgi.version'
p2998
asbag68
(g89
g70
NtRp2999
(dp3000
g73
(dp3001
g100
g101
ssg82
g2990
sg75
(lp3002
S':'
asbag68
(g89
g70
NtRp3003
(dp3004
g73
(dp3005
sg82
g2990
sg75
(lp3006
g68
(g69
g70
NtRp3007
(dp3008
g73
(dp3009
g81
I3
ssg82
g3003
sg75
(lp3010
S'1'
asbasbasbasbasbasbasbasbasbasbasbasbasbsS'frames'
p3011
(lp3012
(dp3013
S'file'
p3014
S'/home/alumno/web2py/gluon/restricted.py'
p3015
sS'dump'
p3016
(dp3017
S'code'
p3018
S'\'response.write(\\\'<!DOCTYPE html>\\\\n<html lang="\\\', ...t   -->    \\\\n  </body>\\\\n</html>\\\\n\\\', escape=False)\''
p3019
sS'layer'
p3020
S"'/home/alumno/web2py/applications/datos/views/default/detalle.html'"
p3021
sS'global compile2'
p3022
S'<function compile2>'
p3023
sS'ccode'
p3024
S'undefined'
p3025
ssS'lnum'
p3026
I191
sS'lines'
p3027
(dp3028
I192
S'        exec ccode in environment'
p3029
sI193
S'    except HTTP:'
p3030
sI194
S'        raise'
p3031
sI195
S'    except Exception:'
p3032
sI186
S"    environment['__file__'] = layer"
p3033
sI187
S'    try:'
p3034
sI188
S'        if type(code) == types.CodeType:'
p3035
sI189
S'            ccode = code'
p3036
sI190
S'        else:'
p3037
sI191
S'            ccode = compile2(code,layer)'
p3038
ssS'call'
p3039
S'(code=\'response.write(\\\'<!DOCTYPE html>\\\\n<html lang="\\\', ...t   -->    \\\\n  </body>\\\\n</html>\\\\n\\\', escape=False)\', environment={\'A\': <class \'gluon.html.A\'>, \'B\': <class \'gluon.html.B\'>, \'BEAUTIFY\': <class \'gluon.html.BEAUTIFY\'>, \'BODY\': <class \'gluon.html.BODY\'>, \'BR\': <class \'gluon.html.BR\'>, \'CENTER\': <class \'gluon.html.CENTER\'>, \'CLEANUP\': <class \'gluon.validators.CLEANUP\'>, \'CODE\': <class \'gluon.html.CODE\'>, \'CRYPT\': <class \'gluon.validators.CRYPT\'>, \'DAL\': <class \'gluon.dal.DAL\'>, ...}, layer=\'/home/alumno/web2py/applications/datos/views/default/detalle.html\')'
p3040
sS'func'
p3041
S'restricted'
p3042
sa(dp3043
g3014
S'/home/alumno/web2py/gluon/restricted.py'
p3044
sg3016
(dp3045
S'builtincompile'
p3046
S'<built-in function compile>'
p3047
sS'code'
p3048
S'\'response.write(\\\'<!DOCTYPE html>\\\\n<html lang="\\\', ...t   -->    \\\\n  </body>\\\\n</html>\\\\n\\\', escape=False)\''
p3049
sS'code.rstrip'
p3050
S'<built-in method rstrip of str object>'
p3051
sS').replace'
p3052
g3025
sS'layer'
p3053
S"'/home/alumno/web2py/applications/datos/views/default/detalle.html'"
p3054
ssg3026
I178
sg3027
(dp3055
I173
S''
sI174
S'def compile2(code,layer):'
p3056
sI175
S'    """'
p3057
sI176
S"    The +'\\n' is necessary else compile fails when code ends in a comment."
p3058
sI177
S'    """'
p3059
sI178
S"    return compile(code.rstrip().replace('\\r\\n','\\n')+'\\n', layer, 'exec')"
p3060
sI179
S''
sI180
S"def restricted(code, environment={}, layer='Unknown'):"
p3061
sI181
S'    """'
p3062
sI182
S'    runs code in environment and returns the output. if an exception occurs'
p3063
ssg3039
S'(code=\'response.write(\\\'<!DOCTYPE html>\\\\n<html lang="\\\', ...t   -->    \\\\n  </body>\\\\n</html>\\\\n\\\', escape=False)\', layer=\'/home/alumno/web2py/applications/datos/views/default/detalle.html\')'
p3064
sg3041
S'compile2'
p3065
sasS'pyver'
p3066
S'Python 2.6.6: /usr/bin/python'
p3067
sS'session'
p3068
g68
(g69
g70
NtRp3069
(dp3070
g73
(dp3071
sg75
(lp3072
g68
(g77
g70
NtRp3073
(dp3074
g73
(dp3075
g81
I5
ssg82
Nsg75
(lp3076
g68
(g84
g70
NtRp3077
(dp3078
g73
(dp3079
sg82
g3073
sg75
(lp3080
g68
(g89
g70
NtRp3081
(dp3082
g73
(dp3083
g93
g94
ssg82
g3077
sg75
(lp3084
S'last_query'
p3085
asbag68
(g89
g70
NtRp3086
(dp3087
g73
(dp3088
g100
g101
ssg82
g3077
sg75
(lp3089
S':'
asbag68
(g89
g70
NtRp3090
(dp3091
g73
(dp3092
sg82
g3077
sg75
(lp3093
g68
(g69
g70
NtRp3094
(dp3095
g73
(dp3096
g81
I5
ssg82
g3090
sg75
(lp3097
S'db.alumno_curso.id>0'
p3098
asbasbasbasbasbsS'etype'
p3099
S"<type 'exceptions.SyntaxError'>"
p3100
sS'date'
p3101
S'Sat Sep 10 18:49:20 2011'
p3102
sS'response'
p3103
g68
(g69
g70
NtRp3104
(dp3105
g73
(dp3106
sg75
(lp3107
g68
(g77
g70
NtRp3108
(dp3109
g73
(dp3110
g81
I5
ssg82
Nsg75
(lp3111
g68
(g84
g70
NtRp3112
(dp3113
g73
(dp3114
sg82
g3108
sg75
(lp3115
g68
(g89
g70
NtRp3116
(dp3117
g73
(dp3118
g93
g94
ssg82
g3112
sg75
(lp3119
g179
asbag68
(g89
g70
NtRp3120
(dp3121
g73
(dp3122
g100
g101
ssg82
g3112
sg75
(lp3123
S':'
asbag68
(g89
g70
NtRp3124
(dp3125
g73
(dp3126
sg82
g3112
sg75
(lp3127
g68
(g69
g70
NtRp3128
(dp3129
g73
(dp3130
g81
I5
ssg82
g3124
sg75
(lp3131
S'<cStringIO.StringO object at 0x9c54360>'
p3132
asbasbasbag68
(g84
g70
NtRp3133
(dp3134
g73
(dp3135
sg82
g3108
sg75
(lp3136
g68
(g89
g70
NtRp3137
(dp3138
g73
(dp3139
g93
g94
ssg82
g3133
sg75
(lp3140
g245
asbag68
(g89
g70
NtRp3141
(dp3142
g73
(dp3143
g100
g101
ssg82
g3133
sg75
(lp3144
S':'
asbag68
(g89
g70
NtRp3145
(dp3146
g73
(dp3147
sg82
g3133
sg75
(lp3148
g68
(g69
g70
NtRp3149
(dp3150
g73
(dp3151
g81
I5
ssg82
g3145
sg75
(lp3152
g68
(g77
g70
NtRp3153
(dp3154
g73
(dp3155
g81
I4
ssg82
Nsg75
(lp3156
g68
(g84
g70
NtRp3157
(dp3158
g73
(dp3159
sg82
g3153
sg75
(lp3160
g68
(g89
g70
NtRp3161
(dp3162
g73
(dp3163
g93
g94
ssg82
g3157
sg75
(lp3164
S'session_id_datos'
p3165
asbag68
(g89
g70
NtRp3166
(dp3167
g73
(dp3168
g100
g101
ssg82
g3157
sg75
(lp3169
S':'
asbag68
(g89
g70
NtRp3170
(dp3171
g73
(dp3172
sg82
g3157
sg75
(lp3173
g68
(g69
g70
NtRp3174
(dp3175
g73
(dp3176
g81
I4
ssg82
g3170
sg75
(lp3177
g68
(g77
g70
NtRp3178
(dp3179
g73
(dp3180
g81
I3
ssg82
Nsg75
(lp3181
g68
(g84
g70
NtRp3182
(dp3183
g73
(dp3184
sg82
g3178
sg75
(lp3185
g68
(g89
g70
NtRp3186
(dp3187
g73
(dp3188
g93
g94
ssg82
g3182
sg75
(lp3189
g295
asbag68
(g89
g70
NtRp3190
(dp3191
g73
(dp3192
g100
g101
ssg82
g3182
sg75
(lp3193
S':'
asbag68
(g89
g70
NtRp3194
(dp3195
g73
(dp3196
sg82
g3182
sg75
(lp3197
g68
(g69
g70
NtRp3198
(dp3199
g73
(dp3200
g81
I3
ssg82
g3194
sg75
(lp3201
S''
asbasbasbag68
(g84
g70
NtRp3202
(dp3203
g73
(dp3204
sg82
g3178
sg75
(lp3205
g68
(g89
g70
NtRp3206
(dp3207
g73
(dp3208
g93
g94
ssg82
g3202
sg75
(lp3209
g316
asbag68
(g89
g70
NtRp3210
(dp3211
g73
(dp3212
g100
g101
ssg82
g3202
sg75
(lp3213
S':'
asbag68
(g89
g70
NtRp3214
(dp3215
g73
(dp3216
sg82
g3202
sg75
(lp3217
g68
(g69
g70
NtRp3218
(dp3219
g73
(dp3220
g81
I3
ssg82
g3214
sg75
(lp3221
S''
asbasbasbag68
(g84
g70
NtRp3222
(dp3223
g73
(dp3224
sg82
g3178
sg75
(lp3225
g68
(g89
g70
NtRp3226
(dp3227
g73
(dp3228
g93
g94
ssg82
g3222
sg75
(lp3229
g337
asbag68
(g89
g70
NtRp3230
(dp3231
g73
(dp3232
g100
g101
ssg82
g3222
sg75
(lp3233
S':'
asbag68
(g89
g70
NtRp3234
(dp3235
g73
(dp3236
sg82
g3222
sg75
(lp3237
g68
(g69
g70
NtRp3238
(dp3239
g73
(dp3240
g81
I3
ssg82
g3234
sg75
(lp3241
S''
asbasbasbag68
(g84
g70
NtRp3242
(dp3243
g73
(dp3244
sg82
g3178
sg75
(lp3245
g68
(g89
g70
NtRp3246
(dp3247
g73
(dp3248
g93
g94
ssg82
g3242
sg75
(lp3249
g358
asbag68
(g89
g70
NtRp3250
(dp3251
g73
(dp3252
g100
g101
ssg82
g3242
sg75
(lp3253
S':'
asbag68
(g89
g70
NtRp3254
(dp3255
g73
(dp3256
sg82
g3242
sg75
(lp3257
g68
(g69
g70
NtRp3258
(dp3259
g73
(dp3260
g81
I3
ssg82
g3254
sg75
(lp3261
S''
asbasbasbag68
(g84
g70
NtRp3262
(dp3263
g73
(dp3264
sg82
g3178
sg75
(lp3265
g68
(g89
g70
NtRp3266
(dp3267
g73
(dp3268
g93
g94
ssg82
g3262
sg75
(lp3269
g379
asbag68
(g89
g70
NtRp3270
(dp3271
g73
(dp3272
g100
g101
ssg82
g3262
sg75
(lp3273
S':'
asbag68
(g89
g70
NtRp3274
(dp3275
g73
(dp3276
sg82
g3262
sg75
(lp3277
g68
(g69
g70
NtRp3278
(dp3279
g73
(dp3280
g81
I3
ssg82
g3274
sg75
(lp3281
S''
asbasbasbag68
(g84
g70
NtRp3282
(dp3283
g73
(dp3284
sg82
g3178
sg75
(lp3285
g68
(g89
g70
NtRp3286
(dp3287
g73
(dp3288
g93
g94
ssg82
g3282
sg75
(lp3289
g400
asbag68
(g89
g70
NtRp3290
(dp3291
g73
(dp3292
g100
g101
ssg82
g3282
sg75
(lp3293
S':'
asbag68
(g89
g70
NtRp3294
(dp3295
g73
(dp3296
sg82
g3282
sg75
(lp3297
g68
(g69
g70
NtRp3298
(dp3299
g73
(dp3300
g81
I3
ssg82
g3294
sg75
(lp3301
S'/'
asbasbasbag68
(g84
g70
NtRp3302
(dp3303
g73
(dp3304
sg82
g3178
sg75
(lp3305
g68
(g89
g70
NtRp3306
(dp3307
g73
(dp3308
g93
g94
ssg82
g3302
sg75
(lp3309
g421
asbag68
(g89
g70
NtRp3310
(dp3311
g73
(dp3312
g100
g101
ssg82
g3302
sg75
(lp3313
S':'
asbag68
(g89
g70
NtRp3314
(dp3315
g73
(dp3316
sg82
g3302
sg75
(lp3317
g68
(g69
g70
NtRp3318
(dp3319
g73
(dp3320
g81
I3
ssg82
g3314
sg75
(lp3321
S''
asbasbasbag68
(g84
g70
NtRp3322
(dp3323
g73
(dp3324
sg82
g3178
sg75
(lp3325
g68
(g89
g70
NtRp3326
(dp3327
g73
(dp3328
g93
g94
ssg82
g3322
sg75
(lp3329
g442
asbag68
(g89
g70
NtRp3330
(dp3331
g73
(dp3332
g100
g101
ssg82
g3322
sg75
(lp3333
S':'
asbag68
(g89
g70
NtRp3334
(dp3335
g73
(dp3336
sg82
g3322
sg75
(lp3337
g68
(g69
g70
NtRp3338
(dp3339
g73
(dp3340
g81
I3
ssg82
g3334
sg75
(lp3341
S''
asbasbasbasbasbasbasbasbasbasbasbag68
(g84
g70
NtRp3342
(dp3343
g73
(dp3344
sg82
g3108
sg75
(lp3345
g68
(g89
g70
NtRp3346
(dp3347
g73
(dp3348
g93
g94
ssg82
g3342
sg75
(lp3349
S'files'
p3350
asbag68
(g89
g70
NtRp3351
(dp3352
g73
(dp3353
g100
g101
ssg82
g3342
sg75
(lp3354
S':'
asbag68
(g89
g70
NtRp3355
(dp3356
g73
(dp3357
sg82
g3342
sg75
(lp3358
g68
(g69
g70
NtRp3359
(dp3360
g73
(dp3361
g81
I5
ssg82
g3355
sg75
(lp3362
g68
(g77
g70
NtRp3363
(dp3364
g73
(dp3365
g81
I4
ssg82
Nsg75
(lp3366
sbasbasbasbag68
(g84
g70
NtRp3367
(dp3368
g73
(dp3369
sg82
g3108
sg75
(lp3370
g68
(g89
g70
NtRp3371
(dp3372
g73
(dp3373
g93
g94
ssg82
g3367
sg75
(lp3374
S'flash'
p3375
asbag68
(g89
g70
NtRp3376
(dp3377
g73
(dp3378
g100
g101
ssg82
g3367
sg75
(lp3379
S':'
asbag68
(g89
g70
NtRp3380
(dp3381
g73
(dp3382
sg82
g3367
sg75
(lp3383
g68
(g69
g70
NtRp3384
(dp3385
g73
(dp3386
g81
I5
ssg82
g3380
sg75
(lp3387
S''
asbasbasbag68
(g84
g70
NtRp3388
(dp3389
g73
(dp3390
sg82
g3108
sg75
(lp3391
g68
(g89
g70
NtRp3392
(dp3393
g73
(dp3394
g93
g94
ssg82
g3388
sg75
(lp3395
S'headers'
p3396
asbag68
(g89
g70
NtRp3397
(dp3398
g73
(dp3399
g100
g101
ssg82
g3388
sg75
(lp3400
S':'
asbag68
(g89
g70
NtRp3401
(dp3402
g73
(dp3403
sg82
g3388
sg75
(lp3404
g68
(g69
g70
NtRp3405
(dp3406
g73
(dp3407
g81
I5
ssg82
g3401
sg75
(lp3408
g68
(g77
g70
NtRp3409
(dp3410
g73
(dp3411
g81
I4
ssg82
Nsg75
(lp3412
g68
(g84
g70
NtRp3413
(dp3414
g73
(dp3415
sg82
g3409
sg75
(lp3416
g68
(g89
g70
NtRp3417
(dp3418
g73
(dp3419
g93
g94
ssg82
g3413
sg75
(lp3420
S'Cache-Control'
p3421
asbag68
(g89
g70
NtRp3422
(dp3423
g73
(dp3424
g100
g101
ssg82
g3413
sg75
(lp3425
S':'
asbag68
(g89
g70
NtRp3426
(dp3427
g73
(dp3428
sg82
g3413
sg75
(lp3429
g68
(g69
g70
NtRp3430
(dp3431
g73
(dp3432
g81
I4
ssg82
g3426
sg75
(lp3433
S'no-store, no-cache, must-revalidate, post-check=0, pre-check=0'
p3434
asbasbasbag68
(g84
g70
NtRp3435
(dp3436
g73
(dp3437
sg82
g3409
sg75
(lp3438
g68
(g89
g70
NtRp3439
(dp3440
g73
(dp3441
g93
g94
ssg82
g3435
sg75
(lp3442
S'Content-Type'
p3443
asbag68
(g89
g70
NtRp3444
(dp3445
g73
(dp3446
g100
g101
ssg82
g3435
sg75
(lp3447
S':'
asbag68
(g89
g70
NtRp3448
(dp3449
g73
(dp3450
sg82
g3435
sg75
(lp3451
g68
(g69
g70
NtRp3452
(dp3453
g73
(dp3454
g81
I4
ssg82
g3448
sg75
(lp3455
S'text/html; charset=utf-8'
p3456
asbasbasbag68
(g84
g70
NtRp3457
(dp3458
g73
(dp3459
sg82
g3409
sg75
(lp3460
g68
(g89
g70
NtRp3461
(dp3462
g73
(dp3463
g93
g94
ssg82
g3457
sg75
(lp3464
S'Expires'
p3465
asbag68
(g89
g70
NtRp3466
(dp3467
g73
(dp3468
g100
g101
ssg82
g3457
sg75
(lp3469
S':'
asbag68
(g89
g70
NtRp3470
(dp3471
g73
(dp3472
sg82
g3457
sg75
(lp3473
g68
(g69
g70
NtRp3474
(dp3475
g73
(dp3476
g81
I4
ssg82
g3470
sg75
(lp3477
S'Sat, 10 Sep 2011 23:49:20 GMT'
p3478
asbasbasbag68
(g84
g70
NtRp3479
(dp3480
g73
(dp3481
sg82
g3409
sg75
(lp3482
g68
(g89
g70
NtRp3483
(dp3484
g73
(dp3485
g93
g94
ssg82
g3479
sg75
(lp3486
S'Pragma'
p3487
asbag68
(g89
g70
NtRp3488
(dp3489
g73
(dp3490
g100
g101
ssg82
g3479
sg75
(lp3491
S':'
asbag68
(g89
g70
NtRp3492
(dp3493
g73
(dp3494
sg82
g3479
sg75
(lp3495
g68
(g69
g70
NtRp3496
(dp3497
g73
(dp3498
g81
I4
ssg82
g3492
sg75
(lp3499
S'no-cache'
p3500
asbasbasbag68
(g84
g70
NtRp3501
(dp3502
g73
(dp3503
sg82
g3409
sg75
(lp3504
g68
(g89
g70
NtRp3505
(dp3506
g73
(dp3507
g93
g94
ssg82
g3501
sg75
(lp3508
S'X-Powered-By'
p3509
asbag68
(g89
g70
NtRp3510
(dp3511
g73
(dp3512
g100
g101
ssg82
g3501
sg75
(lp3513
S':'
asbag68
(g89
g70
NtRp3514
(dp3515
g73
(dp3516
sg82
g3501
sg75
(lp3517
g68
(g69
g70
NtRp3518
(dp3519
g73
(dp3520
g81
I4
ssg82
g3514
sg75
(lp3521
S'web2py'
p3522
asbasbasbasbasbasbasbag68
(g84
g70
NtRp3523
(dp3524
g73
(dp3525
sg82
g3108
sg75
(lp3526
g68
(g89
g70
NtRp3527
(dp3528
g73
(dp3529
g93
g94
ssg82
g3523
sg75
(lp3530
S'menu'
p3531
asbag68
(g89
g70
NtRp3532
(dp3533
g73
(dp3534
g100
g101
ssg82
g3523
sg75
(lp3535
S':'
asbag68
(g89
g70
NtRp3536
(dp3537
g73
(dp3538
sg82
g3523
sg75
(lp3539
g68
(g69
g70
NtRp3540
(dp3541
g73
(dp3542
g81
I5
ssg82
g3536
sg75
(lp3543
g68
(g77
g70
NtRp3544
(dp3545
g73
(dp3546
g81
I4
ssg82
Nsg75
(lp3547
g68
(g84
g70
NtRp3548
(dp3549
g73
(dp3550
sg82
g3544
sg75
(lp3551
g68
(g89
g70
NtRp3552
(dp3553
g73
(dp3554
sg82
g3548
sg75
(lp3555
g68
(g69
g70
NtRp3556
(dp3557
g73
(dp3558
g81
I4
ssg82
g3552
sg75
(lp3559
g68
(g77
g70
NtRp3560
(dp3561
g73
(dp3562
g81
I3
ssg82
Nsg75
(lp3563
g68
(g84
g70
NtRp3564
(dp3565
g73
(dp3566
sg82
g3560
sg75
(lp3567
g68
(g89
g70
NtRp3568
(dp3569
g73
(dp3570
sg82
g3564
sg75
(lp3571
g68
(g69
g70
NtRp3572
(dp3573
g73
(dp3574
g81
I3
ssg82
g3568
sg75
(lp3575
cgluon.languages
lazyT_unpickle
p3576
(S's\x04\x00\x00\x00Home'
tRp3577
asbasbasbag68
(g84
g70
NtRp3578
(dp3579
g73
(dp3580
sg82
g3560
sg75
(lp3581
g68
(g89
g70
NtRp3582
(dp3583
g73
(dp3584
sg82
g3578
sg75
(lp3585
g68
(g69
g70
NtRp3586
(dp3587
g73
(dp3588
g81
I3
ssg82
g3582
sg75
(lp3589
g111
asbasbasbag68
(g84
g70
NtRp3590
(dp3591
g73
(dp3592
sg82
g3560
sg75
(lp3593
g68
(g89
g70
NtRp3594
(dp3595
g73
(dp3596
sg82
g3590
sg75
(lp3597
g68
(g69
g70
NtRp3598
(dp3599
g73
(dp3600
g81
I3
ssg82
g3594
sg75
(lp3601
S'/datos/default/index'
p3602
asbasbasbag68
(g84
g70
NtRp3603
(dp3604
g73
(dp3605
sg82
g3560
sg75
(lp3606
g68
(g89
g70
NtRp3607
(dp3608
g73
(dp3609
sg82
g3603
sg75
(lp3610
g68
(g69
g70
NtRp3611
(dp3612
g73
(dp3613
g81
I3
ssg82
g3607
sg75
(lp3614
g68
(g77
g70
NtRp3615
(dp3616
g73
(dp3617
g81
I2
ssg82
Nsg75
(lp3618
sbasbasbasbasbasbasbasbag68
(g84
g70
NtRp3619
(dp3620
g73
(dp3621
sg82
g3544
sg75
(lp3622
g68
(g89
g70
NtRp3623
(dp3624
g73
(dp3625
sg82
g3619
sg75
(lp3626
g68
(g69
g70
NtRp3627
(dp3628
g73
(dp3629
g81
I4
ssg82
g3623
sg75
(lp3630
g68
(g77
g70
NtRp3631
(dp3632
g73
(dp3633
g81
I3
ssg82
Nsg75
(lp3634
g68
(g84
g70
NtRp3635
(dp3636
g73
(dp3637
sg82
g3631
sg75
(lp3638
g68
(g89
g70
NtRp3639
(dp3640
g73
(dp3641
sg82
g3635
sg75
(lp3642
g68
(g69
g70
NtRp3643
(dp3644
g73
(dp3645
g81
I3
ssg82
g3639
sg75
(lp3646
g3576
(S's\x08\x00\x00\x00This App'
tRp3647
asbasbasbag68
(g84
g70
NtRp3648
(dp3649
g73
(dp3650
sg82
g3631
sg75
(lp3651
g68
(g89
g70
NtRp3652
(dp3653
g73
(dp3654
sg82
g3648
sg75
(lp3655
g68
(g69
g70
NtRp3656
(dp3657
g73
(dp3658
g81
I3
ssg82
g3652
sg75
(lp3659
g111
asbasbasbag68
(g84
g70
NtRp3660
(dp3661
g73
(dp3662
sg82
g3631
sg75
(lp3663
g68
(g89
g70
NtRp3664
(dp3665
g73
(dp3666
sg82
g3660
sg75
(lp3667
g68
(g69
g70
NtRp3668
(dp3669
g73
(dp3670
g81
I3
ssg82
g3664
sg75
(lp3671
S'/admin/default/design/datos'
p3672
asbasbasbag68
(g84
g70
NtRp3673
(dp3674
g73
(dp3675
sg82
g3631
sg75
(lp3676
g68
(g89
g70
NtRp3677
(dp3678
g73
(dp3679
sg82
g3673
sg75
(lp3680
g68
(g69
g70
NtRp3681
(dp3682
g73
(dp3683
g81
I3
ssg82
g3677
sg75
(lp3684
g68
(g77
g70
NtRp3685
(dp3686
g73
(dp3687
g81
I2
ssg82
Nsg75
(lp3688
g68
(g84
g70
NtRp3689
(dp3690
g73
(dp3691
sg82
g3685
sg75
(lp3692
g68
(g89
g70
NtRp3693
(dp3694
g73
(dp3695
sg82
g3689
sg75
(lp3696
g68
(g69
g70
NtRp3697
(dp3698
g73
(dp3699
g81
I2
ssg82
g3693
sg75
(lp3700
g68
(g77
g70
NtRp3701
(dp3702
g73
(dp3703
g81
I1
ssg82
Nsg75
(lp3704
g68
(g84
g70
NtRp3705
(dp3706
g73
(dp3707
sg82
g3701
sg75
(lp3708
g68
(g89
g70
NtRp3709
(dp3710
g73
(dp3711
sg82
g3705
sg75
(lp3712
g68
(g69
g70
NtRp3713
(dp3714
g73
(dp3715
g81
I1
ssg82
g3709
sg75
(lp3716
g3576
(S's\n\x00\x00\x00Controller'
tRp3717
asbasbasbag68
(g84
g70
NtRp3718
(dp3719
g73
(dp3720
sg82
g3701
sg75
(lp3721
g68
(g89
g70
NtRp3722
(dp3723
g73
(dp3724
sg82
g3718
sg75
(lp3725
g68
(g69
g70
NtRp3726
(dp3727
g73
(dp3728
g81
I1
ssg82
g3722
sg75
(lp3729
I00
asbasbasbag68
(g84
g70
NtRp3730
(dp3731
g73
(dp3732
sg82
g3701
sg75
(lp3733
g68
(g89
g70
NtRp3734
(dp3735
g73
(dp3736
sg82
g3730
sg75
(lp3737
g68
(g69
g70
NtRp3738
(dp3739
g73
(dp3740
g81
I1
ssg82
g3734
sg75
(lp3741
S'/admin/default/edit/datos/controllers/default.py'
p3742
asbasbasbasbasbasbasbag68
(g84
g70
NtRp3743
(dp3744
g73
(dp3745
sg82
g3685
sg75
(lp3746
g68
(g89
g70
NtRp3747
(dp3748
g73
(dp3749
sg82
g3743
sg75
(lp3750
g68
(g69
g70
NtRp3751
(dp3752
g73
(dp3753
g81
I2
ssg82
g3747
sg75
(lp3754
g68
(g77
g70
NtRp3755
(dp3756
g73
(dp3757
g81
I1
ssg82
Nsg75
(lp3758
g68
(g84
g70
NtRp3759
(dp3760
g73
(dp3761
sg82
g3755
sg75
(lp3762
g68
(g89
g70
NtRp3763
(dp3764
g73
(dp3765
sg82
g3759
sg75
(lp3766
g68
(g69
g70
NtRp3767
(dp3768
g73
(dp3769
g81
I1
ssg82
g3763
sg75
(lp3770
g3576
(S's\x04\x00\x00\x00View'
tRp3771
asbasbasbag68
(g84
g70
NtRp3772
(dp3773
g73
(dp3774
sg82
g3755
sg75
(lp3775
g68
(g89
g70
NtRp3776
(dp3777
g73
(dp3778
sg82
g3772
sg75
(lp3779
g68
(g69
g70
NtRp3780
(dp3781
g73
(dp3782
g81
I1
ssg82
g3776
sg75
(lp3783
I00
asbasbasbag68
(g84
g70
NtRp3784
(dp3785
g73
(dp3786
sg82
g3755
sg75
(lp3787
g68
(g89
g70
NtRp3788
(dp3789
g73
(dp3790
sg82
g3784
sg75
(lp3791
g68
(g69
g70
NtRp3792
(dp3793
g73
(dp3794
g81
I1
ssg82
g3788
sg75
(lp3795
S'/admin/default/edit/datos/views/default/detalle.html'
p3796
asbasbasbasbasbasbasbag68
(g84
g70
NtRp3797
(dp3798
g73
(dp3799
sg82
g3685
sg75
(lp3800
g68
(g89
g70
NtRp3801
(dp3802
g73
(dp3803
sg82
g3797
sg75
(lp3804
g68
(g69
g70
NtRp3805
(dp3806
g73
(dp3807
g81
I2
ssg82
g3801
sg75
(lp3808
g68
(g77
g70
NtRp3809
(dp3810
g73
(dp3811
g81
I1
ssg82
Nsg75
(lp3812
g68
(g84
g70
NtRp3813
(dp3814
g73
(dp3815
sg82
g3809
sg75
(lp3816
g68
(g89
g70
NtRp3817
(dp3818
g73
(dp3819
sg82
g3813
sg75
(lp3820
g68
(g69
g70
NtRp3821
(dp3822
g73
(dp3823
g81
I1
ssg82
g3817
sg75
(lp3824
g3576
(S's\x06\x00\x00\x00Layout'
tRp3825
asbasbasbag68
(g84
g70
NtRp3826
(dp3827
g73
(dp3828
sg82
g3809
sg75
(lp3829
g68
(g89
g70
NtRp3830
(dp3831
g73
(dp3832
sg82
g3826
sg75
(lp3833
g68
(g69
g70
NtRp3834
(dp3835
g73
(dp3836
g81
I1
ssg82
g3830
sg75
(lp3837
I00
asbasbasbag68
(g84
g70
NtRp3838
(dp3839
g73
(dp3840
sg82
g3809
sg75
(lp3841
g68
(g89
g70
NtRp3842
(dp3843
g73
(dp3844
sg82
g3838
sg75
(lp3845
g68
(g69
g70
NtRp3846
(dp3847
g73
(dp3848
g81
I1
ssg82
g3842
sg75
(lp3849
S'/admin/default/edit/datos/views/layout.html'
p3850
asbasbasbasbasbasbasbag68
(g84
g70
NtRp3851
(dp3852
g73
(dp3853
sg82
g3685
sg75
(lp3854
g68
(g89
g70
NtRp3855
(dp3856
g73
(dp3857
sg82
g3851
sg75
(lp3858
g68
(g69
g70
NtRp3859
(dp3860
g73
(dp3861
g81
I2
ssg82
g3855
sg75
(lp3862
g68
(g77
g70
NtRp3863
(dp3864
g73
(dp3865
g81
I1
ssg82
Nsg75
(lp3866
g68
(g84
g70
NtRp3867
(dp3868
g73
(dp3869
sg82
g3863
sg75
(lp3870
g68
(g89
g70
NtRp3871
(dp3872
g73
(dp3873
sg82
g3867
sg75
(lp3874
g68
(g69
g70
NtRp3875
(dp3876
g73
(dp3877
g81
I1
ssg82
g3871
sg75
(lp3878
g3576
(S's\n\x00\x00\x00Stylesheet'
tRp3879
asbasbasbag68
(g84
g70
NtRp3880
(dp3881
g73
(dp3882
sg82
g3863
sg75
(lp3883
g68
(g89
g70
NtRp3884
(dp3885
g73
(dp3886
sg82
g3880
sg75
(lp3887
g68
(g69
g70
NtRp3888
(dp3889
g73
(dp3890
g81
I1
ssg82
g3884
sg75
(lp3891
I00
asbasbasbag68
(g84
g70
NtRp3892
(dp3893
g73
(dp3894
sg82
g3863
sg75
(lp3895
g68
(g89
g70
NtRp3896
(dp3897
g73
(dp3898
sg82
g3892
sg75
(lp3899
g68
(g69
g70
NtRp3900
(dp3901
g73
(dp3902
g81
I1
ssg82
g3896
sg75
(lp3903
S'/admin/default/edit/datos/static/base.css'
p3904
asbasbasbasbasbasbasbag68
(g84
g70
NtRp3905
(dp3906
g73
(dp3907
sg82
g3685
sg75
(lp3908
g68
(g89
g70
NtRp3909
(dp3910
g73
(dp3911
sg82
g3905
sg75
(lp3912
g68
(g69
g70
NtRp3913
(dp3914
g73
(dp3915
g81
I2
ssg82
g3909
sg75
(lp3916
g68
(g77
g70
NtRp3917
(dp3918
g73
(dp3919
g81
I1
ssg82
Nsg75
(lp3920
g68
(g84
g70
NtRp3921
(dp3922
g73
(dp3923
sg82
g3917
sg75
(lp3924
g68
(g89
g70
NtRp3925
(dp3926
g73
(dp3927
sg82
g3921
sg75
(lp3928
g68
(g69
g70
NtRp3929
(dp3930
g73
(dp3931
g81
I1
ssg82
g3925
sg75
(lp3932
g3576
(S's\x08\x00\x00\x00DB Model'
tRp3933
asbasbasbag68
(g84
g70
NtRp3934
(dp3935
g73
(dp3936
sg82
g3917
sg75
(lp3937
g68
(g89
g70
NtRp3938
(dp3939
g73
(dp3940
sg82
g3934
sg75
(lp3941
g68
(g69
g70
NtRp3942
(dp3943
g73
(dp3944
g81
I1
ssg82
g3938
sg75
(lp3945
I00
asbasbasbag68
(g84
g70
NtRp3946
(dp3947
g73
(dp3948
sg82
g3917
sg75
(lp3949
g68
(g89
g70
NtRp3950
(dp3951
g73
(dp3952
sg82
g3946
sg75
(lp3953
g68
(g69
g70
NtRp3954
(dp3955
g73
(dp3956
g81
I1
ssg82
g3950
sg75
(lp3957
S'/admin/default/edit/datos/models/db.py'
p3958
asbasbasbasbasbasbasbag68
(g84
g70
NtRp3959
(dp3960
g73
(dp3961
sg82
g3685
sg75
(lp3962
g68
(g89
g70
NtRp3963
(dp3964
g73
(dp3965
sg82
g3959
sg75
(lp3966
g68
(g69
g70
NtRp3967
(dp3968
g73
(dp3969
g81
I2
ssg82
g3963
sg75
(lp3970
g68
(g77
g70
NtRp3971
(dp3972
g73
(dp3973
g81
I1
ssg82
Nsg75
(lp3974
g68
(g84
g70
NtRp3975
(dp3976
g73
(dp3977
sg82
g3971
sg75
(lp3978
g68
(g89
g70
NtRp3979
(dp3980
g73
(dp3981
sg82
g3975
sg75
(lp3982
g68
(g69
g70
NtRp3983
(dp3984
g73
(dp3985
g81
I1
ssg82
g3979
sg75
(lp3986
g3576
(S's\n\x00\x00\x00Menu Model'
tRp3987
asbasbasbag68
(g84
g70
NtRp3988
(dp3989
g73
(dp3990
sg82
g3971
sg75
(lp3991
g68
(g89
g70
NtRp3992
(dp3993
g73
(dp3994
sg82
g3988
sg75
(lp3995
g68
(g69
g70
NtRp3996
(dp3997
g73
(dp3998
g81
I1
ssg82
g3992
sg75
(lp3999
I00
asbasbasbag68
(g84
g70
NtRp4000
(dp4001
g73
(dp4002
sg82
g3971
sg75
(lp4003
g68
(g89
g70
NtRp4004
(dp4005
g73
(dp4006
sg82
g4000
sg75
(lp4007
g68
(g69
g70
NtRp4008
(dp4009
g73
(dp4010
g81
I1
ssg82
g4004
sg75
(lp4011
S'/admin/default/edit/datos/models/menu.py'
p4012
asbasbasbasbasbasbasbag68
(g84
g70
NtRp4013
(dp4014
g73
(dp4015
sg82
g3685
sg75
(lp4016
g68
(g89
g70
NtRp4017
(dp4018
g73
(dp4019
sg82
g4013
sg75
(lp4020
g68
(g69
g70
NtRp4021
(dp4022
g73
(dp4023
g81
I2
ssg82
g4017
sg75
(lp4024
g68
(g77
g70
NtRp4025
(dp4026
g73
(dp4027
g81
I1
ssg82
Nsg75
(lp4028
g68
(g84
g70
NtRp4029
(dp4030
g73
(dp4031
sg82
g4025
sg75
(lp4032
g68
(g89
g70
NtRp4033
(dp4034
g73
(dp4035
sg82
g4029
sg75
(lp4036
g68
(g69
g70
NtRp4037
(dp4038
g73
(dp4039
g81
I1
ssg82
g4033
sg75
(lp4040
g3576
(S's\x08\x00\x00\x00Database'
tRp4041
asbasbasbag68
(g84
g70
NtRp4042
(dp4043
g73
(dp4044
sg82
g4025
sg75
(lp4045
g68
(g89
g70
NtRp4046
(dp4047
g73
(dp4048
sg82
g4042
sg75
(lp4049
g68
(g69
g70
NtRp4050
(dp4051
g73
(dp4052
g81
I1
ssg82
g4046
sg75
(lp4053
I00
asbasbasbag68
(g84
g70
NtRp4054
(dp4055
g73
(dp4056
sg82
g4025
sg75
(lp4057
g68
(g89
g70
NtRp4058
(dp4059
g73
(dp4060
sg82
g4054
sg75
(lp4061
g68
(g69
g70
NtRp4062
(dp4063
g73
(dp4064
g81
I1
ssg82
g4058
sg75
(lp4065
S'/datos/appadmin/index'
p4066
asbasbasbasbasbasbasbag68
(g84
g70
NtRp4067
(dp4068
g73
(dp4069
sg82
g3685
sg75
(lp4070
g68
(g89
g70
NtRp4071
(dp4072
g73
(dp4073
sg82
g4067
sg75
(lp4074
g68
(g69
g70
NtRp4075
(dp4076
g73
(dp4077
g81
I2
ssg82
g4071
sg75
(lp4078
g68
(g77
g70
NtRp4079
(dp4080
g73
(dp4081
g81
I1
ssg82
Nsg75
(lp4082
g68
(g84
g70
NtRp4083
(dp4084
g73
(dp4085
sg82
g4079
sg75
(lp4086
g68
(g89
g70
NtRp4087
(dp4088
g73
(dp4089
sg82
g4083
sg75
(lp4090
g68
(g69
g70
NtRp4091
(dp4092
g73
(dp4093
g81
I1
ssg82
g4087
sg75
(lp4094
g3576
(S's\x06\x00\x00\x00Errors'
tRp4095
asbasbasbag68
(g84
g70
NtRp4096
(dp4097
g73
(dp4098
sg82
g4079
sg75
(lp4099
g68
(g89
g70
NtRp4100
(dp4101
g73
(dp4102
sg82
g4096
sg75
(lp4103
g68
(g69
g70
NtRp4104
(dp4105
g73
(dp4106
g81
I1
ssg82
g4100
sg75
(lp4107
I00
asbasbasbag68
(g84
g70
NtRp4108
(dp4109
g73
(dp4110
sg82
g4079
sg75
(lp4111
g68
(g89
g70
NtRp4112
(dp4113
g73
(dp4114
sg82
g4108
sg75
(lp4115
g68
(g69
g70
NtRp4116
(dp4117
g73
(dp4118
g81
I1
ssg82
g4112
sg75
(lp4119
S'/admin/default/errors/datos'
p4120
asbasbasbasbasbasbasbag68
(g84
g70
NtRp4121
(dp4122
g73
(dp4123
sg82
g3685
sg75
(lp4124
g68
(g89
g70
NtRp4125
(dp4126
g73
(dp4127
sg82
g4121
sg75
(lp4128
g68
(g69
g70
NtRp4129
(dp4130
g73
(dp4131
g81
I2
ssg82
g4125
sg75
(lp4132
g68
(g77
g70
NtRp4133
(dp4134
g73
(dp4135
g81
I1
ssg82
Nsg75
(lp4136
g68
(g84
g70
NtRp4137
(dp4138
g73
(dp4139
sg82
g4133
sg75
(lp4140
g68
(g89
g70
NtRp4141
(dp4142
g73
(dp4143
sg82
g4137
sg75
(lp4144
g68
(g69
g70
NtRp4145
(dp4146
g73
(dp4147
g81
I1
ssg82
g4141
sg75
(lp4148
g3576
(S's\x05\x00\x00\x00About'
tRp4149
asbasbasbag68
(g84
g70
NtRp4150
(dp4151
g73
(dp4152
sg82
g4133
sg75
(lp4153
g68
(g89
g70
NtRp4154
(dp4155
g73
(dp4156
sg82
g4150
sg75
(lp4157
g68
(g69
g70
NtRp4158
(dp4159
g73
(dp4160
g81
I1
ssg82
g4154
sg75
(lp4161
I00
asbasbasbag68
(g84
g70
NtRp4162
(dp4163
g73
(dp4164
sg82
g4133
sg75
(lp4165
g68
(g89
g70
NtRp4166
(dp4167
g73
(dp4168
sg82
g4162
sg75
(lp4169
g68
(g69
g70
NtRp4170
(dp4171
g73
(dp4172
g81
I1
ssg82
g4166
sg75
(lp4173
S'/admin/default/about/datos'
p4174
asbasbasbasbasbasbasbasbasbasbasbasbasbasbasbag68
(g84
g70
NtRp4175
(dp4176
g73
(dp4177
sg82
g3544
sg75
(lp4178
g68
(g89
g70
NtRp4179
(dp4180
g73
(dp4181
sg82
g4175
sg75
(lp4182
g68
(g69
g70
NtRp4183
(dp4184
g73
(dp4185
g81
I4
ssg82
g4179
sg75
(lp4186
g68
(g77
g70
NtRp4187
(dp4188
g73
(dp4189
g81
I3
ssg82
Nsg75
(lp4190
g68
(g84
g70
NtRp4191
(dp4192
g73
(dp4193
sg82
g4187
sg75
(lp4194
g68
(g89
g70
NtRp4195
(dp4196
g73
(dp4197
sg82
g4191
sg75
(lp4198
g68
(g69
g70
NtRp4199
(dp4200
g73
(dp4201
g81
I3
ssg82
g4195
sg75
(lp4202
g3576
(S's\t\x00\x00\x00Resources'
tRp4203
asbasbasbag68
(g84
g70
NtRp4204
(dp4205
g73
(dp4206
sg82
g4187
sg75
(lp4207
g68
(g89
g70
NtRp4208
(dp4209
g73
(dp4210
sg82
g4204
sg75
(lp4211
g68
(g69
g70
NtRp4212
(dp4213
g73
(dp4214
g81
I3
ssg82
g4208
sg75
(lp4215
g111
asbasbasbag68
(g84
g70
NtRp4216
(dp4217
g73
(dp4218
sg82
g4187
sg75
(lp4219
g68
(g89
g70
NtRp4220
(dp4221
g73
(dp4222
sg82
g4216
sg75
(lp4223
g68
(g69
g70
NtRp4224
(dp4225
g73
(dp4226
g81
I3
ssg82
g4220
sg75
(lp4227
S'None'
p4228
asbasbasbag68
(g84
g70
NtRp4229
(dp4230
g73
(dp4231
sg82
g4187
sg75
(lp4232
g68
(g89
g70
NtRp4233
(dp4234
g73
(dp4235
sg82
g4229
sg75
(lp4236
g68
(g69
g70
NtRp4237
(dp4238
g73
(dp4239
g81
I3
ssg82
g4233
sg75
(lp4240
g68
(g77
g70
NtRp4241
(dp4242
g73
(dp4243
g81
I2
ssg82
Nsg75
(lp4244
g68
(g84
g70
NtRp4245
(dp4246
g73
(dp4247
sg82
g4241
sg75
(lp4248
g68
(g89
g70
NtRp4249
(dp4250
g73
(dp4251
sg82
g4245
sg75
(lp4252
g68
(g69
g70
NtRp4253
(dp4254
g73
(dp4255
g81
I2
ssg82
g4249
sg75
(lp4256
g68
(g77
g70
NtRp4257
(dp4258
g73
(dp4259
g81
I1
ssg82
Nsg75
(lp4260
g68
(g84
g70
NtRp4261
(dp4262
g73
(dp4263
sg82
g4257
sg75
(lp4264
g68
(g89
g70
NtRp4265
(dp4266
g73
(dp4267
sg82
g4261
sg75
(lp4268
g68
(g69
g70
NtRp4269
(dp4270
g73
(dp4271
g81
I1
ssg82
g4265
sg75
(lp4272
g3576
(S's\r\x00\x00\x00Documentation'
tRp4273
asbasbasbag68
(g84
g70
NtRp4274
(dp4275
g73
(dp4276
sg82
g4257
sg75
(lp4277
g68
(g89
g70
NtRp4278
(dp4279
g73
(dp4280
sg82
g4274
sg75
(lp4281
g68
(g69
g70
NtRp4282
(dp4283
g73
(dp4284
g81
I1
ssg82
g4278
sg75
(lp4285
I00
asbasbasbag68
(g84
g70
NtRp4286
(dp4287
g73
(dp4288
sg82
g4257
sg75
(lp4289
g68
(g89
g70
NtRp4290
(dp4291
g73
(dp4292
sg82
g4286
sg75
(lp4293
g68
(g69
g70
NtRp4294
(dp4295
g73
(dp4296
g81
I1
ssg82
g4290
sg75
(lp4297
S'http://www.web2py.com/book'
p4298
asbasbasbag68
(g84
g70
NtRp4299
(dp4300
g73
(dp4301
sg82
g4257
sg75
(lp4302
g68
(g89
g70
NtRp4303
(dp4304
g73
(dp4305
sg82
g4299
sg75
(lp4306
g68
(g69
g70
NtRp4307
(dp4308
g73
(dp4309
g81
I1
ssg82
g4303
sg75
(lp4310
(lp4311
(g3576
(S's\x07\x00\x00\x00Preface'
tRp4312
I00
S'http://www.web2py.com/book/default/chapter/00'
tp4313
a(g3576
(S's\x0c\x00\x00\x00Introduction'
tRp4314
I00
S'http://www.web2py.com/book/default/chapter/01'
tp4315
a(g3576
(S's\x06\x00\x00\x00Python'
tRp4316
I00
S'http://www.web2py.com/book/default/chapter/02'
tp4317
a(g3576
(S's\x08\x00\x00\x00Overview'
tRp4318
I00
S'http://www.web2py.com/book/default/chapter/03'
tp4319
a(g3576
(S's\x08\x00\x00\x00The Core'
tRp4320
I00
S'http://www.web2py.com/book/default/chapter/04'
tp4321
a(g3576
(S's\t\x00\x00\x00The Views'
tRp4322
I00
S'http://www.web2py.com/book/default/chapter/05'
tp4323
a(g3576
(S's\x08\x00\x00\x00Database'
tRp4324
I00
S'http://www.web2py.com/book/default/chapter/06'
tp4325
a(g3576
(S's\x14\x00\x00\x00Forms and Validators'
tRp4326
I00
S'http://www.web2py.com/book/default/chapter/07'
tp4327
a(g3576
(S's\x0e\x00\x00\x00Access Control'
tRp4328
I00
S'http://www.web2py.com/book/default/chapter/08'
tp4329
a(g3576
(S's\x08\x00\x00\x00Services'
tRp4330
I00
S'http://www.web2py.com/book/default/chapter/09'
tp4331
a(g3576
(S's\x0c\x00\x00\x00Ajax Recipes'
tRp4332
I00
S'http://www.web2py.com/book/default/chapter/10'
tp4333
a(g3576
(S's\x12\x00\x00\x00Deployment Recipes'
tRp4334
I00
S'http://www.web2py.com/book/default/chapter/11'
tp4335
a(g3576
(S's\r\x00\x00\x00Other Recipes'
tRp4336
I00
S'http://www.web2py.com/book/default/chapter/12'
tp4337
a(g3576
(S's\r\x00\x00\x00Buy this book'
tRp4338
I00
S'http://stores.lulu.com/web2py'
tp4339
aasbasbasbasbasbasbasbag68
(g84
g70
NtRp4340
(dp4341
g73
(dp4342
sg82
g4241
sg75
(lp4343
g68
(g89
g70
NtRp4344
(dp4345
g73
(dp4346
sg82
g4340
sg75
(lp4347
g68
(g69
g70
NtRp4348
(dp4349
g73
(dp4350
g81
I2
ssg82
g4344
sg75
(lp4351
g68
(g77
g70
NtRp4352
(dp4353
g73
(dp4354
g81
I1
ssg82
Nsg75
(lp4355
g68
(g84
g70
NtRp4356
(dp4357
g73
(dp4358
sg82
g4352
sg75
(lp4359
g68
(g89
g70
NtRp4360
(dp4361
g73
(dp4362
sg82
g4356
sg75
(lp4363
g68
(g69
g70
NtRp4364
(dp4365
g73
(dp4366
g81
I1
ssg82
g4360
sg75
(lp4367
g3576
(S's\t\x00\x00\x00Community'
tRp4368
asbasbasbag68
(g84
g70
NtRp4369
(dp4370
g73
(dp4371
sg82
g4352
sg75
(lp4372
g68
(g89
g70
NtRp4373
(dp4374
g73
(dp4375
sg82
g4369
sg75
(lp4376
g68
(g69
g70
NtRp4377
(dp4378
g73
(dp4379
g81
I1
ssg82
g4373
sg75
(lp4380
I00
asbasbasbag68
(g84
g70
NtRp4381
(dp4382
g73
(dp4383
sg82
g4352
sg75
(lp4384
g68
(g89
g70
NtRp4385
(dp4386
g73
(dp4387
sg82
g4381
sg75
(lp4388
g68
(g69
g70
NtRp4389
(dp4390
g73
(dp4391
g81
I1
ssg82
g4385
sg75
(lp4392
Nasbasbasbag68
(g84
g70
NtRp4393
(dp4394
g73
(dp4395
sg82
g4352
sg75
(lp4396
g68
(g89
g70
NtRp4397
(dp4398
g73
(dp4399
sg82
g4393
sg75
(lp4400
g68
(g69
g70
NtRp4401
(dp4402
g73
(dp4403
g81
I1
ssg82
g4397
sg75
(lp4404
(lp4405
(g3576
(S's\x06\x00\x00\x00Groups'
tRp4406
I00
S'http://www.web2py.com/examples/default/usergroups'
tp4407
a(g3576
(S's\x07\x00\x00\x00Twitter'
tRp4408
I00
S'http://twitter.com/web2py'
tp4409
a(g3576
(S's\t\x00\x00\x00Live chat'
tRp4410
I00
S'http://mibbit.com/?channel=%23web2py&server=irc.mibbit.net'
tp4411
a(g3576
(S's\n\x00\x00\x00User Voice'
tRp4412
I00
S'http://web2py.uservoice.com/'
tp4413
aasbasbasbasbasbasbasbag68
(g84
g70
NtRp4414
(dp4415
g73
(dp4416
sg82
g4241
sg75
(lp4417
g68
(g89
g70
NtRp4418
(dp4419
g73
(dp4420
sg82
g4414
sg75
(lp4421
g68
(g69
g70
NtRp4422
(dp4423
g73
(dp4424
g81
I2
ssg82
g4418
sg75
(lp4425
g68
(g77
g70
NtRp4426
(dp4427
g73
(dp4428
g81
I1
ssg82
Nsg75
(lp4429
g68
(g84
g70
NtRp4430
(dp4431
g73
(dp4432
sg82
g4426
sg75
(lp4433
g68
(g89
g70
NtRp4434
(dp4435
g73
(dp4436
sg82
g4430
sg75
(lp4437
g68
(g69
g70
NtRp4438
(dp4439
g73
(dp4440
g81
I1
ssg82
g4434
sg75
(lp4441
g3576
(S's\x06\x00\x00\x00Web2py'
tRp4442
asbasbasbag68
(g84
g70
NtRp4443
(dp4444
g73
(dp4445
sg82
g4426
sg75
(lp4446
g68
(g89
g70
NtRp4447
(dp4448
g73
(dp4449
sg82
g4443
sg75
(lp4450
g68
(g69
g70
NtRp4451
(dp4452
g73
(dp4453
g81
I1
ssg82
g4447
sg75
(lp4454
I00
asbasbasbag68
(g84
g70
NtRp4455
(dp4456
g73
(dp4457
sg82
g4426
sg75
(lp4458
g68
(g89
g70
NtRp4459
(dp4460
g73
(dp4461
sg82
g4455
sg75
(lp4462
g68
(g69
g70
NtRp4463
(dp4464
g73
(dp4465
g81
I1
ssg82
g4459
sg75
(lp4466
S'http://www.web2py.com'
p4467
asbasbasbag68
(g84
g70
NtRp4468
(dp4469
g73
(dp4470
sg82
g4426
sg75
(lp4471
g68
(g89
g70
NtRp4472
(dp4473
g73
(dp4474
sg82
g4468
sg75
(lp4475
g68
(g69
g70
NtRp4476
(dp4477
g73
(dp4478
g81
I1
ssg82
g4472
sg75
(lp4479
(lp4480
(g3576
(S's\x08\x00\x00\x00Download'
tRp4481
I00
S'http://www.web2py.com/examples/default/download'
tp4482
a(g3576
(S's\x07\x00\x00\x00Support'
tRp4483
I00
S'http://www.web2py.com/examples/default/support'
tp4484
a(g3576
(S's\x0e\x00\x00\x00Quick Examples'
tRp4485
I00
S'http://web2py.com/examples/default/examples'
tp4486
a(g3576
(S's\x03\x00\x00\x00FAQ'
tRp4487
I00
S'http://web2py.com/AlterEgo'
tp4488
a(g3576
(S's\x11\x00\x00\x00Free Applications'
tRp4489
I00
S'http://web2py.com/appliances'
tp4490
a(g3576
(S's\x07\x00\x00\x00Plugins'
tRp4491
I00
S'http://web2py.com/plugins'
tp4492
a(g3576
(S's\x07\x00\x00\x00Recipes'
tRp4493
I00
S'http://web2pyslices.com/'
tp4494
a(g3576
(S's\x04\x00\x00\x00Demo'
tRp4495
I00
S'http://web2py.com/demo_admin'
tp4496
a(g3576
(S's\x08\x00\x00\x00Semantic'
tRp4497
I00
S'http://web2py.com/semantic'
tp4498
a(g3576
(S's\x07\x00\x00\x00Layouts'
tRp4499
I00
S'http://web2py.com/layouts'
tp4500
a(g3576
(S's\x06\x00\x00\x00Videos'
tRp4501
I00
S'http://www.web2py.com/examples/default/videos/'
tp4502
aasbasbasbasbasbasbasbasbasbasbasbasbasbasbasbasbasbasbasbag68
(g84
g70
NtRp4503
(dp4504
g73
(dp4505
sg82
g3108
sg75
(lp4506
g68
(g89
g70
NtRp4507
(dp4508
g73
(dp4509
g93
g94
ssg82
g4503
sg75
(lp4510
S'meta'
p4511
asbag68
(g89
g70
NtRp4512
(dp4513
g73
(dp4514
g100
g101
ssg82
g4503
sg75
(lp4515
S':'
asbag68
(g89
g70
NtRp4516
(dp4517
g73
(dp4518
sg82
g4503
sg75
(lp4519
g68
(g69
g70
NtRp4520
(dp4521
g73
(dp4522
g81
I5
ssg82
g4516
sg75
(lp4523
g68
(g77
g70
NtRp4524
(dp4525
g73
(dp4526
g81
I4
ssg82
Nsg75
(lp4527
g68
(g84
g70
NtRp4528
(dp4529
g73
(dp4530
sg82
g4524
sg75
(lp4531
g68
(g89
g70
NtRp4532
(dp4533
g73
(dp4534
g93
g94
ssg82
g4528
sg75
(lp4535
S'author'
p4536
asbag68
(g89
g70
NtRp4537
(dp4538
g73
(dp4539
g100
g101
ssg82
g4528
sg75
(lp4540
S':'
asbag68
(g89
g70
NtRp4541
(dp4542
g73
(dp4543
sg82
g4528
sg75
(lp4544
g68
(g69
g70
NtRp4545
(dp4546
g73
(dp4547
g81
I4
ssg82
g4541
sg75
(lp4548
S'you'
p4549
asbasbasbag68
(g84
g70
NtRp4550
(dp4551
g73
(dp4552
sg82
g4524
sg75
(lp4553
g68
(g89
g70
NtRp4554
(dp4555
g73
(dp4556
g93
g94
ssg82
g4550
sg75
(lp4557
S'copyright'
p4558
asbag68
(g89
g70
NtRp4559
(dp4560
g73
(dp4561
g100
g101
ssg82
g4550
sg75
(lp4562
S':'
asbag68
(g89
g70
NtRp4563
(dp4564
g73
(dp4565
sg82
g4550
sg75
(lp4566
g68
(g69
g70
NtRp4567
(dp4568
g73
(dp4569
g81
I4
ssg82
g4563
sg75
(lp4570
S'Copyright 2007-2010'
p4571
asbasbasbag68
(g84
g70
NtRp4572
(dp4573
g73
(dp4574
sg82
g4524
sg75
(lp4575
g68
(g89
g70
NtRp4576
(dp4577
g73
(dp4578
g93
g94
ssg82
g4572
sg75
(lp4579
S'description'
p4580
asbag68
(g89
g70
NtRp4581
(dp4582
g73
(dp4583
g100
g101
ssg82
g4572
sg75
(lp4584
S':'
asbag68
(g89
g70
NtRp4585
(dp4586
g73
(dp4587
sg82
g4572
sg75
(lp4588
g68
(g69
g70
NtRp4589
(dp4590
g73
(dp4591
g81
I4
ssg82
g4585
sg75
(lp4592
S'Free and open source full-stack enterprise framework for agile development of fast, scalable, secure and portable database-driven web-based applications. Written and programmable in Python'
p4593
asbasbasbag68
(g84
g70
NtRp4594
(dp4595
g73
(dp4596
sg82
g4524
sg75
(lp4597
g68
(g89
g70
NtRp4598
(dp4599
g73
(dp4600
g93
g94
ssg82
g4594
sg75
(lp4601
S'generator'
p4602
asbag68
(g89
g70
NtRp4603
(dp4604
g73
(dp4605
g100
g101
ssg82
g4594
sg75
(lp4606
S':'
asbag68
(g89
g70
NtRp4607
(dp4608
g73
(dp4609
sg82
g4594
sg75
(lp4610
g68
(g69
g70
NtRp4611
(dp4612
g73
(dp4613
g81
I4
ssg82
g4607
sg75
(lp4614
S'Web2py Enterprise Framework'
p4615
asbasbasbag68
(g84
g70
NtRp4616
(dp4617
g73
(dp4618
sg82
g4524
sg75
(lp4619
g68
(g89
g70
NtRp4620
(dp4621
g73
(dp4622
g93
g94
ssg82
g4616
sg75
(lp4623
S'keywords'
p4624
asbag68
(g89
g70
NtRp4625
(dp4626
g73
(dp4627
g100
g101
ssg82
g4616
sg75
(lp4628
S':'
asbag68
(g89
g70
NtRp4629
(dp4630
g73
(dp4631
sg82
g4616
sg75
(lp4632
g68
(g69
g70
NtRp4633
(dp4634
g73
(dp4635
g81
I4
ssg82
g4629
sg75
(lp4636
S'web2py, python, framework'
p4637
asbasbasbasbasbasbasbag68
(g84
g70
NtRp4638
(dp4639
g73
(dp4640
sg82
g3108
sg75
(lp4641
g68
(g89
g70
NtRp4642
(dp4643
g73
(dp4644
g93
g94
ssg82
g4638
sg75
(lp4645
S'postprocessing'
p4646
asbag68
(g89
g70
NtRp4647
(dp4648
g73
(dp4649
g100
g101
ssg82
g4638
sg75
(lp4650
S':'
asbag68
(g89
g70
NtRp4651
(dp4652
g73
(dp4653
sg82
g4638
sg75
(lp4654
g68
(g69
g70
NtRp4655
(dp4656
g73
(dp4657
g81
I5
ssg82
g4651
sg75
(lp4658
g68
(g77
g70
NtRp4659
(dp4660
g73
(dp4661
g81
I4
ssg82
Nsg75
(lp4662
sbasbasbasbag68
(g84
g70
NtRp4663
(dp4664
g73
(dp4665
sg82
g3108
sg75
(lp4666
g68
(g89
g70
NtRp4667
(dp4668
g73
(dp4669
g93
g94
ssg82
g4663
sg75
(lp4670
S'session_file'
p4671
asbag68
(g89
g70
NtRp4672
(dp4673
g73
(dp4674
g100
g101
ssg82
g4663
sg75
(lp4675
S':'
asbag68
(g89
g70
NtRp4676
(dp4677
g73
(dp4678
sg82
g4663
sg75
(lp4679
g68
(g69
g70
NtRp4680
(dp4681
g73
(dp4682
g81
I5
ssg82
g4676
sg75
(lp4683
S"<open file '/home/alumno/web2py/applications/datos/sessions/127.0.0.1-46d2cb62-581d-41be-b0c5-47ee0f5ac400', mode 'rb+' at 0x91a7c80>"
p4684
asbasbasbag68
(g84
g70
NtRp4685
(dp4686
g73
(dp4687
sg82
g3108
sg75
(lp4688
g68
(g89
g70
NtRp4689
(dp4690
g73
(dp4691
g93
g94
ssg82
g4685
sg75
(lp4692
S'session_filename'
p4693
asbag68
(g89
g70
NtRp4694
(dp4695
g73
(dp4696
g100
g101
ssg82
g4685
sg75
(lp4697
S':'
asbag68
(g89
g70
NtRp4698
(dp4699
g73
(dp4700
sg82
g4685
sg75
(lp4701
g68
(g69
g70
NtRp4702
(dp4703
g73
(dp4704
g81
I5
ssg82
g4698
sg75
(lp4705
S'/home/alumno/web2py/applications/datos/sessions/127.0.0.1-46d2cb62-581d-41be-b0c5-47ee0f5ac400'
p4706
asbasbasbag68
(g84
g70
NtRp4707
(dp4708
g73
(dp4709
sg82
g3108
sg75
(lp4710
g68
(g89
g70
NtRp4711
(dp4712
g73
(dp4713
g93
g94
ssg82
g4707
sg75
(lp4714
S'session_id'
p4715
asbag68
(g89
g70
NtRp4716
(dp4717
g73
(dp4718
g100
g101
ssg82
g4707
sg75
(lp4719
S':'
asbag68
(g89
g70
NtRp4720
(dp4721
g73
(dp4722
sg82
g4707
sg75
(lp4723
g68
(g69
g70
NtRp4724
(dp4725
g73
(dp4726
g81
I5
ssg82
g4720
sg75
(lp4727
S'127.0.0.1-46d2cb62-581d-41be-b0c5-47ee0f5ac400'
p4728
asbasbasbag68
(g84
g70
NtRp4729
(dp4730
g73
(dp4731
sg82
g3108
sg75
(lp4732
g68
(g89
g70
NtRp4733
(dp4734
g73
(dp4735
g93
g94
ssg82
g4729
sg75
(lp4736
S'session_id_name'
p4737
asbag68
(g89
g70
NtRp4738
(dp4739
g73
(dp4740
g100
g101
ssg82
g4729
sg75
(lp4741
S':'
asbag68
(g89
g70
NtRp4742
(dp4743
g73
(dp4744
sg82
g4729
sg75
(lp4745
g68
(g69
g70
NtRp4746
(dp4747
g73
(dp4748
g81
I5
ssg82
g4742
sg75
(lp4749
g3165
asbasbasbag68
(g84
g70
NtRp4750
(dp4751
g73
(dp4752
sg82
g3108
sg75
(lp4753
g68
(g89
g70
NtRp4754
(dp4755
g73
(dp4756
g93
g94
ssg82
g4750
sg75
(lp4757
S'session_locked'
p4758
asbag68
(g89
g70
NtRp4759
(dp4760
g73
(dp4761
g100
g101
ssg82
g4750
sg75
(lp4762
S':'
asbag68
(g89
g70
NtRp4763
(dp4764
g73
(dp4765
sg82
g4750
sg75
(lp4766
g68
(g69
g70
NtRp4767
(dp4768
g73
(dp4769
g81
I5
ssg82
g4763
sg75
(lp4770
g1986
asbasbasbag68
(g84
g70
NtRp4771
(dp4772
g73
(dp4773
sg82
g3108
sg75
(lp4774
g68
(g89
g70
NtRp4775
(dp4776
g73
(dp4777
g93
g94
ssg82
g4771
sg75
(lp4778
S'session_new'
p4779
asbag68
(g89
g70
NtRp4780
(dp4781
g73
(dp4782
g100
g101
ssg82
g4771
sg75
(lp4783
S':'
asbag68
(g89
g70
NtRp4784
(dp4785
g73
(dp4786
sg82
g4771
sg75
(lp4787
g68
(g69
g70
NtRp4788
(dp4789
g73
(dp4790
g81
I5
ssg82
g4784
sg75
(lp4791
g111
asbasbasbag68
(g84
g70
NtRp4792
(dp4793
g73
(dp4794
sg82
g3108
sg75
(lp4795
g68
(g89
g70
NtRp4796
(dp4797
g73
(dp4798
g93
g94
ssg82
g4792
sg75
(lp4799
S'status'
p4800
asbag68
(g89
g70
NtRp4801
(dp4802
g73
(dp4803
g100
g101
ssg82
g4792
sg75
(lp4804
S':'
asbag68
(g89
g70
NtRp4805
(dp4806
g73
(dp4807
sg82
g4792
sg75
(lp4808
g68
(g69
g70
NtRp4809
(dp4810
g73
(dp4811
g81
I5
ssg82
g4805
sg75
(lp4812
S'200'
p4813
asbasbasbag68
(g84
g70
NtRp4814
(dp4815
g73
(dp4816
sg82
g3108
sg75
(lp4817
g68
(g89
g70
NtRp4818
(dp4819
g73
(dp4820
g93
g94
ssg82
g4814
sg75
(lp4821
S'subtitle'
p4822
asbag68
(g89
g70
NtRp4823
(dp4824
g73
(dp4825
g100
g101
ssg82
g4814
sg75
(lp4826
S':'
asbag68
(g89
g70
NtRp4827
(dp4828
g73
(dp4829
sg82
g4814
sg75
(lp4830
g68
(g69
g70
NtRp4831
(dp4832
g73
(dp4833
g81
I5
ssg82
g4827
sg75
(lp4834
g3576
(S's\r\x00\x00\x00customize me!'
tRp4835
asbasbasbag68
(g84
g70
NtRp4836
(dp4837
g73
(dp4838
sg82
g3108
sg75
(lp4839
g68
(g89
g70
NtRp4840
(dp4841
g73
(dp4842
g93
g94
ssg82
g4836
sg75
(lp4843
S'title'
p4844
asbag68
(g89
g70
NtRp4845
(dp4846
g73
(dp4847
g100
g101
ssg82
g4836
sg75
(lp4848
S':'
asbag68
(g89
g70
NtRp4849
(dp4850
g73
(dp4851
sg82
g4836
sg75
(lp4852
g68
(g69
g70
NtRp4853
(dp4854
g73
(dp4855
g81
I5
ssg82
g4849
sg75
(lp4856
g133
asbasbasbag68
(g84
g70
NtRp4857
(dp4858
g73
(dp4859
sg82
g3108
sg75
(lp4860
g68
(g89
g70
NtRp4861
(dp4862
g73
(dp4863
g93
g94
ssg82
g4857
sg75
(lp4864
g2331
asbag68
(g89
g70
NtRp4865
(dp4866
g73
(dp4867
g100
g101
ssg82
g4857
sg75
(lp4868
S':'
asbag68
(g89
g70
NtRp4869
(dp4870
g73
(dp4871
sg82
g4857
sg75
(lp4872
g68
(g69
g70
NtRp4873
(dp4874
g73
(dp4875
g81
I5
ssg82
g4869
sg75
(lp4876
g2344
asbasbasbag68
(g84
g70
NtRp4877
(dp4878
g73
(dp4879
sg82
g3108
sg75
(lp4880
g68
(g89
g70
NtRp4881
(dp4882
g73
(dp4883
g93
g94
ssg82
g4877
sg75
(lp4884
S'view'
p4885
asbag68
(g89
g70
NtRp4886
(dp4887
g73
(dp4888
g100
g101
ssg82
g4877
sg75
(lp4889
S':'
asbag68
(g89
g70
NtRp4890
(dp4891
g73
(dp4892
sg82
g4877
sg75
(lp4893
g68
(g69
g70
NtRp4894
(dp4895
g73
(dp4896
g81
I5
ssg82
g4890
sg75
(lp4897
S'default/detalle.html'
p4898
asbasbasbasbasbsS'locals'
p4899
(dp4900
g3
S"'/home/alumno/web2py/applications/datos/views/default/detalle.html'"
p4901
sg5
S'\'response.write(\\\'<!DOCTYPE html>\\\\n<html lang="\\\', ...t   -->    \\\\n  </body>\\\\n</html>\\\\n\\\', escape=False)\''
p4902
sssS'traceback'
p4903
S'Traceback (most recent call last):\n  File "/home/alumno/web2py/gluon/restricted.py", line 191, in restricted\n    ccode = compile2(code,layer)\n  File "/home/alumno/web2py/gluon/restricted.py", line 178, in compile2\n    return compile(code.rstrip().replace(\'\\r\\n\',\'\\n\')+\'\\n\', layer, \'exec\')\n  File "/home/alumno/web2py/applications/datos/views/default/detalle.html", line 133\n    for datos in curso\n                     ^\nSyntaxError: invalid syntax\n'
p4904
s.