(dp1
S'output'
p2
S''
sS'layer'
p3
S'/home/alumno/web2py/applications/datos/views/default/index.html'
p4
sS'code'
p5
S'response.write(\'<!DOCTYPE html>\\n<html lang="\', escape=False)\nresponse.write(T.accepted_language or \'en\')\nresponse.write(\'" class="no-js"><!-- no-js need it for modernzr -->\\n  <head>\\n    \\n    <meta charset="utf-8" />\\t  \\t\\n    <!-- www.phpied.com/conditional-comments-block-downloads/ -->\\n    <!--[if IE]><![endif]-->    \\n    <!-- Always force latest IE rendering engine \\n\\t (even in intranet) & Chrome Frame \\n\\t Remove this if you use the .htaccess -->\\n    <meta http-equiv="X-UA-Compatible" content="IE=edge,chrome=1">\\n    \\n    <title>\', escape=False)\nresponse.write(response.title or request.application)\nresponse.write(\'</title>\\n    \\n    <!-- http://dev.w3.org/html5/markup/meta.name.html -->\\n    <meta name="application-name" content="\', escape=False)\nresponse.write(request.application)\nresponse.write(\'" />\\t\\n    \\n    <!-- Speaking of Google, don\\\'t forget to set your site up: \\n\\t http://google.com/webmasters -->\\n    <meta name="google-site-verification" content="" />\\n    \\n    <!--  Mobile Viewport Fix\\n\\t  j.mp/mobileviewport & davidbcalhoun.com/2010/viewport-metatag \\n\\t  device-width: Occupy full width of the screen in its current orientation\\n\\t  initial-scale = 1.0 retains dimensions instead of zooming out if page height > device height\\n\\t  maximum-scale = 1.0 retains dimensions instead of zooming in if page width < device width\\n      -->\\n    <meta name="viewport" content="width=device-width; initial-scale=1.0; maximum-scale=1.0">\\n    \\n    <!-- Place favicon.ico and apple-touch-icon.png in the root of your domain and delete these references -->\\n    <link rel="shortcut icon" href="\', escape=False)\nresponse.write(URL(\'static\',\'favicon.ico\'))\nresponse.write(\'" type="image/x-icon">\\n    <link rel="apple-touch-icon" href="\', escape=False)\nresponse.write(URL(\'static\',\'favicon.png\'))\nresponse.write(\'">\\n\\n    <!-- For the less-enabled mobile browsers like Opera Mini -->\\n    <link rel="stylesheet" media="handheld" href="\', escape=False)\nresponse.write(URL(\'static\',\'css/handheld.css\'))\nresponse.write(\'">\\n    \\n    <!-- All JavaScript at the bottom, except for Modernizr which enables HTML5 elements & feature detects -->\\n    <script src="\', escape=False)\nresponse.write(URL(\'static\',\'js/modernizr-1.7.min.js\'))\nresponse.write(\'"></script>\\n    \\n    \', escape=False)\n#------  require CSS and JS files for this page (read info in base.css) ------\nresponse.write(\'\\n    \', escape=False)\nresponse.files.append(URL(\'static\',\'css/base.css\'))\nresponse.write(\'\\n    \', escape=False)\nresponse.files.append(URL(\'static\',\'css/superfish.css\'))\nresponse.write(\'\\n    \', escape=False)\nresponse.files.append(URL(\'static\',\'js/superfish.js\'))\nresponse.write(\'\\n    \', escape=False)\n#------ include web2py specific js code (jquery, calendar, form stuff) ------\nresponse.write(\'\\n    \', escape=False)\nresponse.files.insert(0,URL(\'static\',\'js/jquery.js\'))\nresponse.files.insert(1,URL(\'static\',\'css/calendar.css\'))\nresponse.files.insert(2,URL(\'static\',\'js/calendar.js\'))\nfor _item in response.meta or []:\n    response.write(\'\\n     <meta name="\', escape=False)\n    response.write(_item)\n    response.write(\'" content="\', escape=False)\n    response.write(response.meta[_item])\n    response.write(\'" />\', escape=False)\n    pass\nfor _k,_file in enumerate(response.files or []):\n    if _file in response.files[:_k]:\n        continue\n    _file0=_file.lower().split(\'?\')[0]\n    if _file0.endswith(\'.css\'):\n        response.write(\'\\n     <link href="\', escape=False)\n        response.write(_file)\n        response.write(\'" rel="stylesheet" type="text/css" />\', escape=False)\n    elif _file0.endswith(\'.js\'):\n        response.write(\'\\n     <script src="\', escape=False)\n        response.write(_file)\n        response.write(\'" type="text/javascript"></script>\', escape=False)\n        pass\n    pass\nresponse.write(\'\\n    <script type="text/javascript"><!--\\n    // These variables are used by the web2py_ajax_init function in web2py_ajax.js (which is loaded below).\\n    var w2p_ajax_confirm_message = "\', escape=False)\nresponse.write(T(\'Are you sure you want to delete this object?\'))\nresponse.write(\'";\\n    var w2p_ajax_date_format = "\', escape=False)\nresponse.write(T(\'%Y-%m-%d\'))\nresponse.write(\'";\\n    var w2p_ajax_datetime_format = "\', escape=False)\nresponse.write(T(\'%Y-%m-%d %H:%M:%S\'))\nresponse.write(\'";\\n    //--></script>\\n    <script src="\', escape=False)\nresponse.write(URL(\'static\',\'js/web2py_ajax.js\'))\nresponse.write(\'" type="text/javascript"></script>\\n\', escape=False)\nresponse.write(\'\\n\\n    \', escape=False)\n#using sidebars need to know what sidebar you want to use\n#prior of using it, because of static width size of content, you can use\n#left_sidebar, right_sidebar, both or none (False left and right)\nleft_sidebar_enabled = globals().get(\'left_sidebar_enabled\',False)\nright_sidebar_enabled = globals().get(\'right_sidebar_enabled\',False)\nif left_sidebar_enabled and right_sidebar_enabled: width_content=\'63%\'\nelif left_sidebar_enabled != right_sidebar_enabled: width_content=\'740px\'\nelse: width_content=\'100%\'\nif left_sidebar_enabled: left_sidebar_style = \'style="display: block;"\'\nelse: left_sidebar_style = \'style="display: none;"\'\nif right_sidebar_enabled: right_sidebar_style = \'style="display: block;"\'\nelse: right_sidebar_style = \'style="display: none;"\'\nstyle_content = \'style="width: %s"\' % width_content\nresponse.write(\'\\n  </head>\\n  \\n  <!-- paulirish.com/2008/conditional-stylesheets-vs-css-hacks-answer-neither/ -->\\t\\n  <!--[if lt IE 7 ]> <body class="ie6"> <![endif]-->\\n  <!--[if IE 7 ]>    <body class="ie7"> <![endif]-->\\n  <!--[if IE 8 ]>    <body class="ie8"> <![endif]-->\\n  <!--[if IE 9 ]>    <body class="ie9"> <![endif]-->\\n  <!--[if (gt IE 9)|!(IE)]><!--> <body> <!--<![endif]-->\\n    \\n    <div class="flash">\', escape=False)\nresponse.write(response.flash or \'\')\nresponse.write(\'</div> <!-- notification div -->\\n    \\n    <div id="container">\\t      \\t\\t      \\t\\n      \\n      <div id="wrapper">\\t\\t\\n\\t\\n\\t<div id="header"> <!-- header and login nav -->\\n\\t  \', escape=False)\nresponse.write(\' <!-- this is default header -->\\n\\t  \', escape=False)\ntry:\n    response.write(auth.navbar(action=URL(\'default\',\'user\')))\nexcept:pass\nresponse.write(\'\\t\\t          \\n\\t  <h1><span id="appname">\', escape=False)\nresponse.write(request.application.capitalize())\nresponse.write(\'</span>App</h1>\\n\\t  <div style="clear: both;"></div><!-- Clear the divs -->\\n\\t  \', escape=False)\nresponse.write(\'\\t\\t\\t\\t  \\t\\t\\t\\t\\t  \\n\\t</div><!-- header  -->\\n\\t\\n\\t<div id="statusbar"><!-- statusbar is menu zone -->\\n\\t  \', escape=False)\nresponse.write(\' <!-- this is default statusbar -->\\n\\t  \', escape=False)\n#------ superfish menu ------\nresponse.write(\'\\n\\t  \', escape=False)\nresponse.write(MENU(response.menu,_class=\'sf-menu\'))\nresponse.write(\'\\n\\t  <script type="text/javascript">\\n\\t    jQuery(document).ready(function(){\\n\\t    jQuery(\\\'ul.sf-menu\\\').superfish();});\\n\\t  </script>\\n\\t  <div style="clear: both;"></div><!-- Clear the divs -->\\t\\n\\t  \', escape=False)\nresponse.write(\'\\t\\t\\t\\t\\n\\t</div><!-- statusbar -->\\n\\t\\n\\t<div id="page"> <!-- Here my central body -->\\t  \\n\\n\\t  \', escape=False)\nif left_sidebar_enabled:\n    response.write(\'\\n          <div id="left_sidebar" \', escape=False)\n    response.write(XML(left_sidebar_style))\n    response.write(\' >\\n            <div style="padding: 4px;">\\n\\t      \', escape=False)\n    response.write(\'Content Left Sidebar\', escape=False)\n    response.write(\'\\t\\t  \\n            </div>\\n          </div><!-- left_sidebar -->\\n\\t  \', escape=False)\n    pass\nresponse.write(\'\\n\\n\\t  <!-- content -->\\n\\t  <div id="content" \', escape=False)\nresponse.write(XML(style_content))\nresponse.write(\' >\\n\\t    \', escape=False)\nresponse.write(\'\\n<h1>Alumnos</h1>\\n<p>este es el registro de alumnos en el sistema\\n\\n\', escape=False)\nfor alumno in alumnos:\n    response.write("\\n    <ul>\\n    <li><a href=\'detalle/", escape=False)\n    response.write(alumno.codigo)\n    response.write("\'>", escape=False)\n    response.write(alumno.nombre)\n    response.write(\' \', escape=False)\n    response.write(alumno.apellidos)\n    response.write(\'</a></li>\\n    <hr>\\n    </ul>    \\n\', escape=False)\n    pass\nresponse.write(\'\\n</p>\\n<h1>Profesores</h1>\\n\\n<p>este es el registro de profesores en el sistema\\n\\n\', escape=False)\nfor profesor in profesores:\n    response.write("\\n    <ul>\\n    <li><a href=\'detalle/", escape=False)\n    response.write(profesor.codigo)\n    response.write("\'>", escape=False)\n    response.write(profesor.nombre_completo)\n    response.write(\'</a></li>\\n    <hr>\\n    </ul>\\n\', escape=False)\n    pass\nresponse.write(\'\\n    \\n</p>\\n\\n<h1>Cursos</h1>\\n<p>este es el registro de cursos en el sistema\\n\', escape=False)\nfor curso in curso:\n    response.write("\\n    <ul>\\n    <li><a href=\'detalle/", escape=False)\n    response.write(curso.codigo)\n    response.write("\'>", escape=False)\n    response.write(curso.nombre)\n    response.write(\'</a></li>\\n    <hr>\\n    </ul>\\n\', escape=False)\n    pass\nresponse.write(\'\\n</p>\\n\', escape=False)\nresponse.write(\'\\t\\n\\t  </div>\\n\\t  <!-- content -->\\n\\n\\t  \', escape=False)\nif right_sidebar_enabled:\n    response.write(\'\\n          <div id="right_sidebar" \', escape=False)\n    response.write(XML(right_sidebar_style))\n    response.write(\' >\\n            <div style="padding: 4px;">\\n              \', escape=False)\n    response.write(\'Content Right Sidebar\', escape=False)\n    response.write(\'\\n            </div>\\n\\t  </div><!-- right_sidebar -->\\n          \', escape=False)\n    pass\nresponse.write(\'\\n\\n\\n\\t  <div style="clear: both;"></div><!-- Clear the divs -->\\n\\t  \\n\\t</div><!-- page -->\\t\\t\\t\\t\\t\\t\\t\\n\\t\\n\\t<div id="footer">\\n\\t  \', escape=False)\nresponse.write(\' <!-- this is default footer -->\\n\\t  <a href="http://www.web2py.com/" style="float: left; padding-right: 6px;">\\n\\t    <img src="\', escape=False)\nresponse.write(URL(\'static\',\'images/poweredby.png\'))\nresponse.write(\'"/>\\n\\t  </a>\\n\\t  \', escape=False)\nresponse.write(T(\'Copyright\'))\nresponse.write(\' &#169; 2010\\t\\t\\t\\t\\n\\t  <div style="clear: both;"></div><!-- Clear the divs -->\\n\\t  \', escape=False)\nresponse.write(\'\\n\\n\\t</div><!-- footer -->\\t\\t\\t\\n      </div><!-- wrapper -->\\n    </div><!-- container -->\\t\\t\\n    \\n    <!--[if lt IE 7 ]>\\n\\t<script src="\', escape=False)\nresponse.write(URL(\'static\',\'js/dd_belatedpng.js\'))\nresponse.write(\'"></script>\\n\\t<script> DD_belatedPNG.fix(\\\'img, .png_bg\\\'); //fix any <img> or .png_bg background-images </script>\\n\\t<![endif]-->\\n    \\n    <!-- asynchronous google analytics: mathiasbynens.be/notes/async-analytics-snippet \\n\\t change the UA-XXXXX-X to be your site\\\'s ID -->\\n    <!--   \\n\\t   <script>\\n\\t     var _gaq = [[\\\'_setAccount\\\', \\\'UA-XXXXX-X\\\'], [\\\'_trackPageview\\\']];\\n\\t     (function(d, t) {\\n\\t     var g = d.createElement(t),\\n\\t     s = d.getElementsByTagName(t)[0];\\n\\t     g.async = true;\\n\\t     g.src = \\\'//www.google-analytics.com/ga.js\\\';\\n\\t     s.parentNode.insertBefore(g, s);\\n\\t     })(document, \\\'script\\\');\\n\\t   </script>\\n\\t   -->    \\n  </body>\\n</html>\\n\', escape=False)'
p6
sS'snapshot'
p7
(dp8
S'exception'
p9
(dp10
S'__hash__'
p11
S"<method-wrapper '__hash__' of exceptions.NameError object>"
p12
sS'__setattr__'
p13
S"<method-wrapper '__setattr__' of exceptions.NameError object>"
p14
sS'__reduce_ex__'
p15
S'<built-in method __reduce_ex__ of exceptions.NameError object>'
p16
sS'__getslice__'
p17
S"<method-wrapper '__getslice__' of exceptions.NameError object>"
p18
sS'__getitem__'
p19
S"<method-wrapper '__getitem__' of exceptions.NameError object>"
p20
sS'__setstate__'
p21
S'<built-in method __setstate__ of exceptions.NameError object>'
p22
sS'__reduce__'
p23
S'<built-in method __reduce__ of exceptions.NameError object>'
p24
sS'__str__'
p25
S"<method-wrapper '__str__' of exceptions.NameError object>"
p26
sS'__format__'
p27
S'<built-in method __format__ of exceptions.NameError object>'
p28
sS'__getattribute__'
p29
S"<method-wrapper '__getattribute__' of exceptions.NameError object>"
p30
sS'__class__'
p31
S"<type 'exceptions.NameError'>"
p32
sS'__unicode__'
p33
S'<built-in method __unicode__ of exceptions.NameError object>'
p34
sS'__delattr__'
p35
S"<method-wrapper '__delattr__' of exceptions.NameError object>"
p36
sS'__subclasshook__'
p37
S'<built-in method __subclasshook__ of type object>'
p38
sS'__repr__'
p39
S"<method-wrapper '__repr__' of exceptions.NameError object>"
p40
sS'args'
p41
S'("name \'curso\' is not defined",)'
p42
sS'__dict__'
p43
S'{}'
p44
sS'__sizeof__'
p45
S'<built-in method __sizeof__ of exceptions.NameError object>'
p46
sS'__doc__'
p47
S"'Name not found globally.'"
p48
sS'__init__'
p49
S"<method-wrapper '__init__' of exceptions.NameError object>"
p50
sS'__new__'
p51
S'<built-in method __new__ of type object>'
p52
ssS'evalue'
p53
S"name 'curso' is not defined"
p54
sS'request'
p55
ccopy_reg
_reconstructor
p56
(cgluon.html
BEAUTIFY
p57
c__builtin__
object
p58
NtRp59
(dp60
S'attributes'
p61
(dp62
sS'components'
p63
(lp64
g56
(cgluon.html
TABLE
p65
g58
NtRp66
(dp67
g61
(dp68
S'level'
p69
I5
ssS'parent'
p70
Nsg63
(lp71
g56
(cgluon.html
TR
p72
g58
NtRp73
(dp74
g61
(dp75
sg70
g66
sg63
(lp76
g56
(cgluon.html
TD
p77
g58
NtRp78
(dp79
g61
(dp80
S'_style'
p81
S'font-weight:bold;'
p82
ssg70
g73
sg63
(lp83
S'ajax'
p84
asbag56
(g77
g58
NtRp85
(dp86
g61
(dp87
S'_valign'
p88
S'top'
p89
ssg70
g73
sg63
(lp90
S':'
asbag56
(g77
g58
NtRp91
(dp92
g61
(dp93
sg70
g73
sg63
(lp94
g56
(g57
g58
NtRp95
(dp96
g61
(dp97
g69
I5
ssg70
g91
sg63
(lp98
S'False'
p99
asbasbasbag56
(g72
g58
NtRp100
(dp101
g61
(dp102
sg70
g66
sg63
(lp103
g56
(g77
g58
NtRp104
(dp105
g61
(dp106
g81
g82
ssg70
g100
sg63
(lp107
S'application'
p108
asbag56
(g77
g58
NtRp109
(dp110
g61
(dp111
g88
g89
ssg70
g100
sg63
(lp112
S':'
asbag56
(g77
g58
NtRp113
(dp114
g61
(dp115
sg70
g100
sg63
(lp116
g56
(g57
g58
NtRp117
(dp118
g61
(dp119
g69
I5
ssg70
g113
sg63
(lp120
S'datos'
p121
asbasbasbag56
(g72
g58
NtRp122
(dp123
g61
(dp124
sg70
g66
sg63
(lp125
g56
(g77
g58
NtRp126
(dp127
g61
(dp128
g81
g82
ssg70
g122
sg63
(lp129
g41
asbag56
(g77
g58
NtRp130
(dp131
g61
(dp132
g88
g89
ssg70
g122
sg63
(lp133
S':'
asbag56
(g77
g58
NtRp134
(dp135
g61
(dp136
sg70
g122
sg63
(lp137
g56
(g57
g58
NtRp138
(dp139
g61
(dp140
g69
I5
ssg70
g134
sg63
(lp141
g56
(g65
g58
NtRp142
(dp143
g61
(dp144
g69
I4
ssg70
Nsg63
(lp145
sbasbasbasbag56
(g72
g58
NtRp146
(dp147
g61
(dp148
sg70
g66
sg63
(lp149
g56
(g77
g58
NtRp150
(dp151
g61
(dp152
g81
g82
ssg70
g146
sg63
(lp153
S'body'
p154
asbag56
(g77
g58
NtRp155
(dp156
g61
(dp157
g88
g89
ssg70
g146
sg63
(lp158
S':'
asbag56
(g77
g58
NtRp159
(dp160
g61
(dp161
sg70
g146
sg63
(lp162
g56
(g57
g58
NtRp163
(dp164
g61
(dp165
g69
I5
ssg70
g159
sg63
(lp166
S'<cStringIO.StringO object at 0x9c6e0c0>'
p167
asbasbasbag56
(g72
g58
NtRp168
(dp169
g61
(dp170
sg70
g66
sg63
(lp171
g56
(g77
g58
NtRp172
(dp173
g61
(dp174
g81
g82
ssg70
g168
sg63
(lp175
S'client'
p176
asbag56
(g77
g58
NtRp177
(dp178
g61
(dp179
g88
g89
ssg70
g168
sg63
(lp180
S':'
asbag56
(g77
g58
NtRp181
(dp182
g61
(dp183
sg70
g168
sg63
(lp184
g56
(g57
g58
NtRp185
(dp186
g61
(dp187
g69
I5
ssg70
g181
sg63
(lp188
S'127.0.0.1'
p189
asbasbasbag56
(g72
g58
NtRp190
(dp191
g61
(dp192
sg70
g66
sg63
(lp193
g56
(g77
g58
NtRp194
(dp195
g61
(dp196
g81
g82
ssg70
g190
sg63
(lp197
S'controller'
p198
asbag56
(g77
g58
NtRp199
(dp200
g61
(dp201
g88
g89
ssg70
g190
sg63
(lp202
S':'
asbag56
(g77
g58
NtRp203
(dp204
g61
(dp205
sg70
g190
sg63
(lp206
g56
(g57
g58
NtRp207
(dp208
g61
(dp209
g69
I5
ssg70
g203
sg63
(lp210
S'default'
p211
asbasbasbag56
(g72
g58
NtRp212
(dp213
g61
(dp214
sg70
g66
sg63
(lp215
g56
(g77
g58
NtRp216
(dp217
g61
(dp218
g81
g82
ssg70
g212
sg63
(lp219
S'cookies'
p220
asbag56
(g77
g58
NtRp221
(dp222
g61
(dp223
g88
g89
ssg70
g212
sg63
(lp224
S':'
asbag56
(g77
g58
NtRp225
(dp226
g61
(dp227
sg70
g212
sg63
(lp228
g56
(g57
g58
NtRp229
(dp230
g61
(dp231
g69
I5
ssg70
g225
sg63
(lp232
g56
(g65
g58
NtRp233
(dp234
g61
(dp235
g69
I4
ssg70
Nsg63
(lp236
g56
(g72
g58
NtRp237
(dp238
g61
(dp239
sg70
g233
sg63
(lp240
g56
(g77
g58
NtRp241
(dp242
g61
(dp243
g81
g82
ssg70
g237
sg63
(lp244
S'adminLanguage'
p245
asbag56
(g77
g58
NtRp246
(dp247
g61
(dp248
g88
g89
ssg70
g237
sg63
(lp249
S':'
asbag56
(g77
g58
NtRp250
(dp251
g61
(dp252
sg70
g237
sg63
(lp253
g56
(g57
g58
NtRp254
(dp255
g61
(dp256
g69
I4
ssg70
g250
sg63
(lp257
g56
(g65
g58
NtRp258
(dp259
g61
(dp260
g69
I3
ssg70
Nsg63
(lp261
g56
(g72
g58
NtRp262
(dp263
g61
(dp264
sg70
g258
sg63
(lp265
g56
(g77
g58
NtRp266
(dp267
g61
(dp268
g81
g82
ssg70
g262
sg63
(lp269
S'comment'
p270
asbag56
(g77
g58
NtRp271
(dp272
g61
(dp273
g88
g89
ssg70
g262
sg63
(lp274
S':'
asbag56
(g77
g58
NtRp275
(dp276
g61
(dp277
sg70
g262
sg63
(lp278
g56
(g57
g58
NtRp279
(dp280
g61
(dp281
g69
I3
ssg70
g275
sg63
(lp282
S''
asbasbasbag56
(g72
g58
NtRp283
(dp284
g61
(dp285
sg70
g258
sg63
(lp286
g56
(g77
g58
NtRp287
(dp288
g61
(dp289
g81
g82
ssg70
g283
sg63
(lp290
S'domain'
p291
asbag56
(g77
g58
NtRp292
(dp293
g61
(dp294
g88
g89
ssg70
g283
sg63
(lp295
S':'
asbag56
(g77
g58
NtRp296
(dp297
g61
(dp298
sg70
g283
sg63
(lp299
g56
(g57
g58
NtRp300
(dp301
g61
(dp302
g69
I3
ssg70
g296
sg63
(lp303
S''
asbasbasbag56
(g72
g58
NtRp304
(dp305
g61
(dp306
sg70
g258
sg63
(lp307
g56
(g77
g58
NtRp308
(dp309
g61
(dp310
g81
g82
ssg70
g304
sg63
(lp311
S'expires'
p312
asbag56
(g77
g58
NtRp313
(dp314
g61
(dp315
g88
g89
ssg70
g304
sg63
(lp316
S':'
asbag56
(g77
g58
NtRp317
(dp318
g61
(dp319
sg70
g304
sg63
(lp320
g56
(g57
g58
NtRp321
(dp322
g61
(dp323
g69
I3
ssg70
g317
sg63
(lp324
S''
asbasbasbag56
(g72
g58
NtRp325
(dp326
g61
(dp327
sg70
g258
sg63
(lp328
g56
(g77
g58
NtRp329
(dp330
g61
(dp331
g81
g82
ssg70
g325
sg63
(lp332
S'httponly'
p333
asbag56
(g77
g58
NtRp334
(dp335
g61
(dp336
g88
g89
ssg70
g325
sg63
(lp337
S':'
asbag56
(g77
g58
NtRp338
(dp339
g61
(dp340
sg70
g325
sg63
(lp341
g56
(g57
g58
NtRp342
(dp343
g61
(dp344
g69
I3
ssg70
g338
sg63
(lp345
S''
asbasbasbag56
(g72
g58
NtRp346
(dp347
g61
(dp348
sg70
g258
sg63
(lp349
g56
(g77
g58
NtRp350
(dp351
g61
(dp352
g81
g82
ssg70
g346
sg63
(lp353
S'max-age'
p354
asbag56
(g77
g58
NtRp355
(dp356
g61
(dp357
g88
g89
ssg70
g346
sg63
(lp358
S':'
asbag56
(g77
g58
NtRp359
(dp360
g61
(dp361
sg70
g346
sg63
(lp362
g56
(g57
g58
NtRp363
(dp364
g61
(dp365
g69
I3
ssg70
g359
sg63
(lp366
S''
asbasbasbag56
(g72
g58
NtRp367
(dp368
g61
(dp369
sg70
g258
sg63
(lp370
g56
(g77
g58
NtRp371
(dp372
g61
(dp373
g81
g82
ssg70
g367
sg63
(lp374
S'path'
p375
asbag56
(g77
g58
NtRp376
(dp377
g61
(dp378
g88
g89
ssg70
g367
sg63
(lp379
S':'
asbag56
(g77
g58
NtRp380
(dp381
g61
(dp382
sg70
g367
sg63
(lp383
g56
(g57
g58
NtRp384
(dp385
g61
(dp386
g69
I3
ssg70
g380
sg63
(lp387
S''
asbasbasbag56
(g72
g58
NtRp388
(dp389
g61
(dp390
sg70
g258
sg63
(lp391
g56
(g77
g58
NtRp392
(dp393
g61
(dp394
g81
g82
ssg70
g388
sg63
(lp395
S'secure'
p396
asbag56
(g77
g58
NtRp397
(dp398
g61
(dp399
g88
g89
ssg70
g388
sg63
(lp400
S':'
asbag56
(g77
g58
NtRp401
(dp402
g61
(dp403
sg70
g388
sg63
(lp404
g56
(g57
g58
NtRp405
(dp406
g61
(dp407
g69
I3
ssg70
g401
sg63
(lp408
S''
asbasbasbag56
(g72
g58
NtRp409
(dp410
g61
(dp411
sg70
g258
sg63
(lp412
g56
(g77
g58
NtRp413
(dp414
g61
(dp415
g81
g82
ssg70
g409
sg63
(lp416
S'version'
p417
asbag56
(g77
g58
NtRp418
(dp419
g61
(dp420
g88
g89
ssg70
g409
sg63
(lp421
S':'
asbag56
(g77
g58
NtRp422
(dp423
g61
(dp424
sg70
g409
sg63
(lp425
g56
(g57
g58
NtRp426
(dp427
g61
(dp428
g69
I3
ssg70
g422
sg63
(lp429
S''
asbasbasbasbasbasbasbag56
(g72
g58
NtRp430
(dp431
g61
(dp432
sg70
g233
sg63
(lp433
g56
(g77
g58
NtRp434
(dp435
g61
(dp436
g81
g82
ssg70
g430
sg63
(lp437
S'session_id_admin'
p438
asbag56
(g77
g58
NtRp439
(dp440
g61
(dp441
g88
g89
ssg70
g430
sg63
(lp442
S':'
asbag56
(g77
g58
NtRp443
(dp444
g61
(dp445
sg70
g430
sg63
(lp446
g56
(g57
g58
NtRp447
(dp448
g61
(dp449
g69
I4
ssg70
g443
sg63
(lp450
g56
(g65
g58
NtRp451
(dp452
g61
(dp453
g69
I3
ssg70
Nsg63
(lp454
g56
(g72
g58
NtRp455
(dp456
g61
(dp457
sg70
g451
sg63
(lp458
g56
(g77
g58
NtRp459
(dp460
g61
(dp461
g81
g82
ssg70
g455
sg63
(lp462
g270
asbag56
(g77
g58
NtRp463
(dp464
g61
(dp465
g88
g89
ssg70
g455
sg63
(lp466
S':'
asbag56
(g77
g58
NtRp467
(dp468
g61
(dp469
sg70
g455
sg63
(lp470
g56
(g57
g58
NtRp471
(dp472
g61
(dp473
g69
I3
ssg70
g467
sg63
(lp474
S''
asbasbasbag56
(g72
g58
NtRp475
(dp476
g61
(dp477
sg70
g451
sg63
(lp478
g56
(g77
g58
NtRp479
(dp480
g61
(dp481
g81
g82
ssg70
g475
sg63
(lp482
g291
asbag56
(g77
g58
NtRp483
(dp484
g61
(dp485
g88
g89
ssg70
g475
sg63
(lp486
S':'
asbag56
(g77
g58
NtRp487
(dp488
g61
(dp489
sg70
g475
sg63
(lp490
g56
(g57
g58
NtRp491
(dp492
g61
(dp493
g69
I3
ssg70
g487
sg63
(lp494
S''
asbasbasbag56
(g72
g58
NtRp495
(dp496
g61
(dp497
sg70
g451
sg63
(lp498
g56
(g77
g58
NtRp499
(dp500
g61
(dp501
g81
g82
ssg70
g495
sg63
(lp502
g312
asbag56
(g77
g58
NtRp503
(dp504
g61
(dp505
g88
g89
ssg70
g495
sg63
(lp506
S':'
asbag56
(g77
g58
NtRp507
(dp508
g61
(dp509
sg70
g495
sg63
(lp510
g56
(g57
g58
NtRp511
(dp512
g61
(dp513
g69
I3
ssg70
g507
sg63
(lp514
S''
asbasbasbag56
(g72
g58
NtRp515
(dp516
g61
(dp517
sg70
g451
sg63
(lp518
g56
(g77
g58
NtRp519
(dp520
g61
(dp521
g81
g82
ssg70
g515
sg63
(lp522
g333
asbag56
(g77
g58
NtRp523
(dp524
g61
(dp525
g88
g89
ssg70
g515
sg63
(lp526
S':'
asbag56
(g77
g58
NtRp527
(dp528
g61
(dp529
sg70
g515
sg63
(lp530
g56
(g57
g58
NtRp531
(dp532
g61
(dp533
g69
I3
ssg70
g527
sg63
(lp534
S''
asbasbasbag56
(g72
g58
NtRp535
(dp536
g61
(dp537
sg70
g451
sg63
(lp538
g56
(g77
g58
NtRp539
(dp540
g61
(dp541
g81
g82
ssg70
g535
sg63
(lp542
g354
asbag56
(g77
g58
NtRp543
(dp544
g61
(dp545
g88
g89
ssg70
g535
sg63
(lp546
S':'
asbag56
(g77
g58
NtRp547
(dp548
g61
(dp549
sg70
g535
sg63
(lp550
g56
(g57
g58
NtRp551
(dp552
g61
(dp553
g69
I3
ssg70
g547
sg63
(lp554
S''
asbasbasbag56
(g72
g58
NtRp555
(dp556
g61
(dp557
sg70
g451
sg63
(lp558
g56
(g77
g58
NtRp559
(dp560
g61
(dp561
g81
g82
ssg70
g555
sg63
(lp562
g375
asbag56
(g77
g58
NtRp563
(dp564
g61
(dp565
g88
g89
ssg70
g555
sg63
(lp566
S':'
asbag56
(g77
g58
NtRp567
(dp568
g61
(dp569
sg70
g555
sg63
(lp570
g56
(g57
g58
NtRp571
(dp572
g61
(dp573
g69
I3
ssg70
g567
sg63
(lp574
S''
asbasbasbag56
(g72
g58
NtRp575
(dp576
g61
(dp577
sg70
g451
sg63
(lp578
g56
(g77
g58
NtRp579
(dp580
g61
(dp581
g81
g82
ssg70
g575
sg63
(lp582
g396
asbag56
(g77
g58
NtRp583
(dp584
g61
(dp585
g88
g89
ssg70
g575
sg63
(lp586
S':'
asbag56
(g77
g58
NtRp587
(dp588
g61
(dp589
sg70
g575
sg63
(lp590
g56
(g57
g58
NtRp591
(dp592
g61
(dp593
g69
I3
ssg70
g587
sg63
(lp594
S''
asbasbasbag56
(g72
g58
NtRp595
(dp596
g61
(dp597
sg70
g451
sg63
(lp598
g56
(g77
g58
NtRp599
(dp600
g61
(dp601
g81
g82
ssg70
g595
sg63
(lp602
g417
asbag56
(g77
g58
NtRp603
(dp604
g61
(dp605
g88
g89
ssg70
g595
sg63
(lp606
S':'
asbag56
(g77
g58
NtRp607
(dp608
g61
(dp609
sg70
g595
sg63
(lp610
g56
(g57
g58
NtRp611
(dp612
g61
(dp613
g69
I3
ssg70
g607
sg63
(lp614
S''
asbasbasbasbasbasbasbag56
(g72
g58
NtRp615
(dp616
g61
(dp617
sg70
g233
sg63
(lp618
g56
(g77
g58
NtRp619
(dp620
g61
(dp621
g81
g82
ssg70
g615
sg63
(lp622
S'session_id_datos'
p623
asbag56
(g77
g58
NtRp624
(dp625
g61
(dp626
g88
g89
ssg70
g615
sg63
(lp627
S':'
asbag56
(g77
g58
NtRp628
(dp629
g61
(dp630
sg70
g615
sg63
(lp631
g56
(g57
g58
NtRp632
(dp633
g61
(dp634
g69
I4
ssg70
g628
sg63
(lp635
g56
(g65
g58
NtRp636
(dp637
g61
(dp638
g69
I3
ssg70
Nsg63
(lp639
g56
(g72
g58
NtRp640
(dp641
g61
(dp642
sg70
g636
sg63
(lp643
g56
(g77
g58
NtRp644
(dp645
g61
(dp646
g81
g82
ssg70
g640
sg63
(lp647
g270
asbag56
(g77
g58
NtRp648
(dp649
g61
(dp650
g88
g89
ssg70
g640
sg63
(lp651
S':'
asbag56
(g77
g58
NtRp652
(dp653
g61
(dp654
sg70
g640
sg63
(lp655
g56
(g57
g58
NtRp656
(dp657
g61
(dp658
g69
I3
ssg70
g652
sg63
(lp659
S''
asbasbasbag56
(g72
g58
NtRp660
(dp661
g61
(dp662
sg70
g636
sg63
(lp663
g56
(g77
g58
NtRp664
(dp665
g61
(dp666
g81
g82
ssg70
g660
sg63
(lp667
g291
asbag56
(g77
g58
NtRp668
(dp669
g61
(dp670
g88
g89
ssg70
g660
sg63
(lp671
S':'
asbag56
(g77
g58
NtRp672
(dp673
g61
(dp674
sg70
g660
sg63
(lp675
g56
(g57
g58
NtRp676
(dp677
g61
(dp678
g69
I3
ssg70
g672
sg63
(lp679
S''
asbasbasbag56
(g72
g58
NtRp680
(dp681
g61
(dp682
sg70
g636
sg63
(lp683
g56
(g77
g58
NtRp684
(dp685
g61
(dp686
g81
g82
ssg70
g680
sg63
(lp687
g312
asbag56
(g77
g58
NtRp688
(dp689
g61
(dp690
g88
g89
ssg70
g680
sg63
(lp691
S':'
asbag56
(g77
g58
NtRp692
(dp693
g61
(dp694
sg70
g680
sg63
(lp695
g56
(g57
g58
NtRp696
(dp697
g61
(dp698
g69
I3
ssg70
g692
sg63
(lp699
S''
asbasbasbag56
(g72
g58
NtRp700
(dp701
g61
(dp702
sg70
g636
sg63
(lp703
g56
(g77
g58
NtRp704
(dp705
g61
(dp706
g81
g82
ssg70
g700
sg63
(lp707
g333
asbag56
(g77
g58
NtRp708
(dp709
g61
(dp710
g88
g89
ssg70
g700
sg63
(lp711
S':'
asbag56
(g77
g58
NtRp712
(dp713
g61
(dp714
sg70
g700
sg63
(lp715
g56
(g57
g58
NtRp716
(dp717
g61
(dp718
g69
I3
ssg70
g712
sg63
(lp719
S''
asbasbasbag56
(g72
g58
NtRp720
(dp721
g61
(dp722
sg70
g636
sg63
(lp723
g56
(g77
g58
NtRp724
(dp725
g61
(dp726
g81
g82
ssg70
g720
sg63
(lp727
g354
asbag56
(g77
g58
NtRp728
(dp729
g61
(dp730
g88
g89
ssg70
g720
sg63
(lp731
S':'
asbag56
(g77
g58
NtRp732
(dp733
g61
(dp734
sg70
g720
sg63
(lp735
g56
(g57
g58
NtRp736
(dp737
g61
(dp738
g69
I3
ssg70
g732
sg63
(lp739
S''
asbasbasbag56
(g72
g58
NtRp740
(dp741
g61
(dp742
sg70
g636
sg63
(lp743
g56
(g77
g58
NtRp744
(dp745
g61
(dp746
g81
g82
ssg70
g740
sg63
(lp747
g375
asbag56
(g77
g58
NtRp748
(dp749
g61
(dp750
g88
g89
ssg70
g740
sg63
(lp751
S':'
asbag56
(g77
g58
NtRp752
(dp753
g61
(dp754
sg70
g740
sg63
(lp755
g56
(g57
g58
NtRp756
(dp757
g61
(dp758
g69
I3
ssg70
g752
sg63
(lp759
S''
asbasbasbag56
(g72
g58
NtRp760
(dp761
g61
(dp762
sg70
g636
sg63
(lp763
g56
(g77
g58
NtRp764
(dp765
g61
(dp766
g81
g82
ssg70
g760
sg63
(lp767
g396
asbag56
(g77
g58
NtRp768
(dp769
g61
(dp770
g88
g89
ssg70
g760
sg63
(lp771
S':'
asbag56
(g77
g58
NtRp772
(dp773
g61
(dp774
sg70
g760
sg63
(lp775
g56
(g57
g58
NtRp776
(dp777
g61
(dp778
g69
I3
ssg70
g772
sg63
(lp779
S''
asbasbasbag56
(g72
g58
NtRp780
(dp781
g61
(dp782
sg70
g636
sg63
(lp783
g56
(g77
g58
NtRp784
(dp785
g61
(dp786
g81
g82
ssg70
g780
sg63
(lp787
g417
asbag56
(g77
g58
NtRp788
(dp789
g61
(dp790
g88
g89
ssg70
g780
sg63
(lp791
S':'
asbag56
(g77
g58
NtRp792
(dp793
g61
(dp794
sg70
g780
sg63
(lp795
g56
(g57
g58
NtRp796
(dp797
g61
(dp798
g69
I3
ssg70
g792
sg63
(lp799
S''
asbasbasbasbasbasbasbag56
(g72
g58
NtRp800
(dp801
g61
(dp802
sg70
g233
sg63
(lp803
g56
(g77
g58
NtRp804
(dp805
g61
(dp806
g81
g82
ssg70
g800
sg63
(lp807
S'session_id_examples'
p808
asbag56
(g77
g58
NtRp809
(dp810
g61
(dp811
g88
g89
ssg70
g800
sg63
(lp812
S':'
asbag56
(g77
g58
NtRp813
(dp814
g61
(dp815
sg70
g800
sg63
(lp816
g56
(g57
g58
NtRp817
(dp818
g61
(dp819
g69
I4
ssg70
g813
sg63
(lp820
g56
(g65
g58
NtRp821
(dp822
g61
(dp823
g69
I3
ssg70
Nsg63
(lp824
g56
(g72
g58
NtRp825
(dp826
g61
(dp827
sg70
g821
sg63
(lp828
g56
(g77
g58
NtRp829
(dp830
g61
(dp831
g81
g82
ssg70
g825
sg63
(lp832
g270
asbag56
(g77
g58
NtRp833
(dp834
g61
(dp835
g88
g89
ssg70
g825
sg63
(lp836
S':'
asbag56
(g77
g58
NtRp837
(dp838
g61
(dp839
sg70
g825
sg63
(lp840
g56
(g57
g58
NtRp841
(dp842
g61
(dp843
g69
I3
ssg70
g837
sg63
(lp844
S''
asbasbasbag56
(g72
g58
NtRp845
(dp846
g61
(dp847
sg70
g821
sg63
(lp848
g56
(g77
g58
NtRp849
(dp850
g61
(dp851
g81
g82
ssg70
g845
sg63
(lp852
g291
asbag56
(g77
g58
NtRp853
(dp854
g61
(dp855
g88
g89
ssg70
g845
sg63
(lp856
S':'
asbag56
(g77
g58
NtRp857
(dp858
g61
(dp859
sg70
g845
sg63
(lp860
g56
(g57
g58
NtRp861
(dp862
g61
(dp863
g69
I3
ssg70
g857
sg63
(lp864
S''
asbasbasbag56
(g72
g58
NtRp865
(dp866
g61
(dp867
sg70
g821
sg63
(lp868
g56
(g77
g58
NtRp869
(dp870
g61
(dp871
g81
g82
ssg70
g865
sg63
(lp872
g312
asbag56
(g77
g58
NtRp873
(dp874
g61
(dp875
g88
g89
ssg70
g865
sg63
(lp876
S':'
asbag56
(g77
g58
NtRp877
(dp878
g61
(dp879
sg70
g865
sg63
(lp880
g56
(g57
g58
NtRp881
(dp882
g61
(dp883
g69
I3
ssg70
g877
sg63
(lp884
S''
asbasbasbag56
(g72
g58
NtRp885
(dp886
g61
(dp887
sg70
g821
sg63
(lp888
g56
(g77
g58
NtRp889
(dp890
g61
(dp891
g81
g82
ssg70
g885
sg63
(lp892
g333
asbag56
(g77
g58
NtRp893
(dp894
g61
(dp895
g88
g89
ssg70
g885
sg63
(lp896
S':'
asbag56
(g77
g58
NtRp897
(dp898
g61
(dp899
sg70
g885
sg63
(lp900
g56
(g57
g58
NtRp901
(dp902
g61
(dp903
g69
I3
ssg70
g897
sg63
(lp904
S''
asbasbasbag56
(g72
g58
NtRp905
(dp906
g61
(dp907
sg70
g821
sg63
(lp908
g56
(g77
g58
NtRp909
(dp910
g61
(dp911
g81
g82
ssg70
g905
sg63
(lp912
g354
asbag56
(g77
g58
NtRp913
(dp914
g61
(dp915
g88
g89
ssg70
g905
sg63
(lp916
S':'
asbag56
(g77
g58
NtRp917
(dp918
g61
(dp919
sg70
g905
sg63
(lp920
g56
(g57
g58
NtRp921
(dp922
g61
(dp923
g69
I3
ssg70
g917
sg63
(lp924
S''
asbasbasbag56
(g72
g58
NtRp925
(dp926
g61
(dp927
sg70
g821
sg63
(lp928
g56
(g77
g58
NtRp929
(dp930
g61
(dp931
g81
g82
ssg70
g925
sg63
(lp932
g375
asbag56
(g77
g58
NtRp933
(dp934
g61
(dp935
g88
g89
ssg70
g925
sg63
(lp936
S':'
asbag56
(g77
g58
NtRp937
(dp938
g61
(dp939
sg70
g925
sg63
(lp940
g56
(g57
g58
NtRp941
(dp942
g61
(dp943
g69
I3
ssg70
g937
sg63
(lp944
S''
asbasbasbag56
(g72
g58
NtRp945
(dp946
g61
(dp947
sg70
g821
sg63
(lp948
g56
(g77
g58
NtRp949
(dp950
g61
(dp951
g81
g82
ssg70
g945
sg63
(lp952
g396
asbag56
(g77
g58
NtRp953
(dp954
g61
(dp955
g88
g89
ssg70
g945
sg63
(lp956
S':'
asbag56
(g77
g58
NtRp957
(dp958
g61
(dp959
sg70
g945
sg63
(lp960
g56
(g57
g58
NtRp961
(dp962
g61
(dp963
g69
I3
ssg70
g957
sg63
(lp964
S''
asbasbasbag56
(g72
g58
NtRp965
(dp966
g61
(dp967
sg70
g821
sg63
(lp968
g56
(g77
g58
NtRp969
(dp970
g61
(dp971
g81
g82
ssg70
g965
sg63
(lp972
g417
asbag56
(g77
g58
NtRp973
(dp974
g61
(dp975
g88
g89
ssg70
g965
sg63
(lp976
S':'
asbag56
(g77
g58
NtRp977
(dp978
g61
(dp979
sg70
g965
sg63
(lp980
g56
(g57
g58
NtRp981
(dp982
g61
(dp983
g69
I3
ssg70
g977
sg63
(lp984
S''
asbasbasbasbasbasbasbag56
(g72
g58
NtRp985
(dp986
g61
(dp987
sg70
g233
sg63
(lp988
g56
(g77
g58
NtRp989
(dp990
g61
(dp991
g81
g82
ssg70
g985
sg63
(lp992
S'session_id_welcome'
p993
asbag56
(g77
g58
NtRp994
(dp995
g61
(dp996
g88
g89
ssg70
g985
sg63
(lp997
S':'
asbag56
(g77
g58
NtRp998
(dp999
g61
(dp1000
sg70
g985
sg63
(lp1001
g56
(g57
g58
NtRp1002
(dp1003
g61
(dp1004
g69
I4
ssg70
g998
sg63
(lp1005
g56
(g65
g58
NtRp1006
(dp1007
g61
(dp1008
g69
I3
ssg70
Nsg63
(lp1009
g56
(g72
g58
NtRp1010
(dp1011
g61
(dp1012
sg70
g1006
sg63
(lp1013
g56
(g77
g58
NtRp1014
(dp1015
g61
(dp1016
g81
g82
ssg70
g1010
sg63
(lp1017
g270
asbag56
(g77
g58
NtRp1018
(dp1019
g61
(dp1020
g88
g89
ssg70
g1010
sg63
(lp1021
S':'
asbag56
(g77
g58
NtRp1022
(dp1023
g61
(dp1024
sg70
g1010
sg63
(lp1025
g56
(g57
g58
NtRp1026
(dp1027
g61
(dp1028
g69
I3
ssg70
g1022
sg63
(lp1029
S''
asbasbasbag56
(g72
g58
NtRp1030
(dp1031
g61
(dp1032
sg70
g1006
sg63
(lp1033
g56
(g77
g58
NtRp1034
(dp1035
g61
(dp1036
g81
g82
ssg70
g1030
sg63
(lp1037
g291
asbag56
(g77
g58
NtRp1038
(dp1039
g61
(dp1040
g88
g89
ssg70
g1030
sg63
(lp1041
S':'
asbag56
(g77
g58
NtRp1042
(dp1043
g61
(dp1044
sg70
g1030
sg63
(lp1045
g56
(g57
g58
NtRp1046
(dp1047
g61
(dp1048
g69
I3
ssg70
g1042
sg63
(lp1049
S''
asbasbasbag56
(g72
g58
NtRp1050
(dp1051
g61
(dp1052
sg70
g1006
sg63
(lp1053
g56
(g77
g58
NtRp1054
(dp1055
g61
(dp1056
g81
g82
ssg70
g1050
sg63
(lp1057
g312
asbag56
(g77
g58
NtRp1058
(dp1059
g61
(dp1060
g88
g89
ssg70
g1050
sg63
(lp1061
S':'
asbag56
(g77
g58
NtRp1062
(dp1063
g61
(dp1064
sg70
g1050
sg63
(lp1065
g56
(g57
g58
NtRp1066
(dp1067
g61
(dp1068
g69
I3
ssg70
g1062
sg63
(lp1069
S''
asbasbasbag56
(g72
g58
NtRp1070
(dp1071
g61
(dp1072
sg70
g1006
sg63
(lp1073
g56
(g77
g58
NtRp1074
(dp1075
g61
(dp1076
g81
g82
ssg70
g1070
sg63
(lp1077
g333
asbag56
(g77
g58
NtRp1078
(dp1079
g61
(dp1080
g88
g89
ssg70
g1070
sg63
(lp1081
S':'
asbag56
(g77
g58
NtRp1082
(dp1083
g61
(dp1084
sg70
g1070
sg63
(lp1085
g56
(g57
g58
NtRp1086
(dp1087
g61
(dp1088
g69
I3
ssg70
g1082
sg63
(lp1089
S''
asbasbasbag56
(g72
g58
NtRp1090
(dp1091
g61
(dp1092
sg70
g1006
sg63
(lp1093
g56
(g77
g58
NtRp1094
(dp1095
g61
(dp1096
g81
g82
ssg70
g1090
sg63
(lp1097
g354
asbag56
(g77
g58
NtRp1098
(dp1099
g61
(dp1100
g88
g89
ssg70
g1090
sg63
(lp1101
S':'
asbag56
(g77
g58
NtRp1102
(dp1103
g61
(dp1104
sg70
g1090
sg63
(lp1105
g56
(g57
g58
NtRp1106
(dp1107
g61
(dp1108
g69
I3
ssg70
g1102
sg63
(lp1109
S''
asbasbasbag56
(g72
g58
NtRp1110
(dp1111
g61
(dp1112
sg70
g1006
sg63
(lp1113
g56
(g77
g58
NtRp1114
(dp1115
g61
(dp1116
g81
g82
ssg70
g1110
sg63
(lp1117
g375
asbag56
(g77
g58
NtRp1118
(dp1119
g61
(dp1120
g88
g89
ssg70
g1110
sg63
(lp1121
S':'
asbag56
(g77
g58
NtRp1122
(dp1123
g61
(dp1124
sg70
g1110
sg63
(lp1125
g56
(g57
g58
NtRp1126
(dp1127
g61
(dp1128
g69
I3
ssg70
g1122
sg63
(lp1129
S''
asbasbasbag56
(g72
g58
NtRp1130
(dp1131
g61
(dp1132
sg70
g1006
sg63
(lp1133
g56
(g77
g58
NtRp1134
(dp1135
g61
(dp1136
g81
g82
ssg70
g1130
sg63
(lp1137
g396
asbag56
(g77
g58
NtRp1138
(dp1139
g61
(dp1140
g88
g89
ssg70
g1130
sg63
(lp1141
S':'
asbag56
(g77
g58
NtRp1142
(dp1143
g61
(dp1144
sg70
g1130
sg63
(lp1145
g56
(g57
g58
NtRp1146
(dp1147
g61
(dp1148
g69
I3
ssg70
g1142
sg63
(lp1149
S''
asbasbasbag56
(g72
g58
NtRp1150
(dp1151
g61
(dp1152
sg70
g1006
sg63
(lp1153
g56
(g77
g58
NtRp1154
(dp1155
g61
(dp1156
g81
g82
ssg70
g1150
sg63
(lp1157
g417
asbag56
(g77
g58
NtRp1158
(dp1159
g61
(dp1160
g88
g89
ssg70
g1150
sg63
(lp1161
S':'
asbag56
(g77
g58
NtRp1162
(dp1163
g61
(dp1164
sg70
g1150
sg63
(lp1165
g56
(g57
g58
NtRp1166
(dp1167
g61
(dp1168
g69
I3
ssg70
g1162
sg63
(lp1169
S''
asbasbasbasbasbasbasbasbasbasbasbag56
(g72
g58
NtRp1170
(dp1171
g61
(dp1172
sg70
g66
sg63
(lp1173
g56
(g77
g58
NtRp1174
(dp1175
g61
(dp1176
g81
g82
ssg70
g1170
sg63
(lp1177
S'env'
p1178
asbag56
(g77
g58
NtRp1179
(dp1180
g61
(dp1181
g88
g89
ssg70
g1170
sg63
(lp1182
S':'
asbag56
(g77
g58
NtRp1183
(dp1184
g61
(dp1185
sg70
g1170
sg63
(lp1186
g56
(g57
g58
NtRp1187
(dp1188
g61
(dp1189
g69
I5
ssg70
g1183
sg63
(lp1190
g56
(g65
g58
NtRp1191
(dp1192
g61
(dp1193
g69
I4
ssg70
Nsg63
(lp1194
g56
(g72
g58
NtRp1195
(dp1196
g61
(dp1197
sg70
g1191
sg63
(lp1198
g56
(g77
g58
NtRp1199
(dp1200
g61
(dp1201
g81
g82
ssg70
g1195
sg63
(lp1202
S'app_folders'
p1203
asbag56
(g77
g58
NtRp1204
(dp1205
g61
(dp1206
g88
g89
ssg70
g1195
sg63
(lp1207
S':'
asbag56
(g77
g58
NtRp1208
(dp1209
g61
(dp1210
sg70
g1195
sg63
(lp1211
g56
(g57
g58
NtRp1212
(dp1213
g61
(dp1214
g69
I4
ssg70
g1208
sg63
(lp1215
S"set(['/home/alumno/web2py/applications/admin/', '/home/alumno/web2py/applications/examples/', '/home/alumno/web2py/applications/welcome/', '/home/alumno/web2py/applications/datos/'])"
p1216
asbasbasbag56
(g72
g58
NtRp1217
(dp1218
g61
(dp1219
sg70
g1191
sg63
(lp1220
g56
(g77
g58
NtRp1221
(dp1222
g61
(dp1223
g81
g82
ssg70
g1217
sg63
(lp1224
S'applications_parent'
p1225
asbag56
(g77
g58
NtRp1226
(dp1227
g61
(dp1228
g88
g89
ssg70
g1217
sg63
(lp1229
S':'
asbag56
(g77
g58
NtRp1230
(dp1231
g61
(dp1232
sg70
g1217
sg63
(lp1233
g56
(g57
g58
NtRp1234
(dp1235
g61
(dp1236
g69
I4
ssg70
g1230
sg63
(lp1237
S'/home/alumno/web2py'
p1238
asbasbasbag56
(g72
g58
NtRp1239
(dp1240
g61
(dp1241
sg70
g1191
sg63
(lp1242
g56
(g77
g58
NtRp1243
(dp1244
g61
(dp1245
g81
g82
ssg70
g1239
sg63
(lp1246
S'cmd_args'
p1247
asbag56
(g77
g58
NtRp1248
(dp1249
g61
(dp1250
g88
g89
ssg70
g1239
sg63
(lp1251
S':'
asbag56
(g77
g58
NtRp1252
(dp1253
g61
(dp1254
sg70
g1239
sg63
(lp1255
g56
(g57
g58
NtRp1256
(dp1257
g61
(dp1258
g69
I4
ssg70
g1252
sg63
(lp1259
g56
(g65
g58
NtRp1260
(dp1261
g61
(dp1262
g69
I3
ssg70
Nsg63
(lp1263
sbasbasbasbag56
(g72
g58
NtRp1264
(dp1265
g61
(dp1266
sg70
g1191
sg63
(lp1267
g56
(g77
g58
NtRp1268
(dp1269
g61
(dp1270
g81
g82
ssg70
g1264
sg63
(lp1271
S'cmd_options'
p1272
asbag56
(g77
g58
NtRp1273
(dp1274
g61
(dp1275
g88
g89
ssg70
g1264
sg63
(lp1276
S':'
asbag56
(g77
g58
NtRp1277
(dp1278
g61
(dp1279
sg70
g1264
sg63
(lp1280
g56
(g57
g58
NtRp1281
(dp1282
g61
(dp1283
g69
I4
ssg70
g1277
sg63
(lp1284
S"<Values at 0x9087cec: {'verbose': False, 'ip': '127.0.0.1', 'shutdown_timeout': 5, 'taskbar': False, 'port': 8000, 'maxthreads': None, 'softcron': False, 'server_name': 'ubuntu-dev', 'bpython': False, 'nogui': False, 'nocron': False, 'extcron': False, 'debuglevel': 30, 'test': None, 'folder': '/home/alumno/web2py', 'config': '', 'import_models': False, 'winservice': '', 'shell': None, 'run': '', 'log_filename': 'httpserver.log', 'args': [''], 'profiler_filename': None, 'ssl_private_key': '', 'password': 'toor', 'request_queue_size': 5, 'ssl_certificate': '', 'cronjob': False, 'plain': False, 'quiet': False, 'interfaces': None, 'minthreads': None, 'timeout': 10, 'numthreads': None, 'nobanner': False, 'pid_filename': 'httpserver.pid'}>"
p1285
asbasbasbag56
(g72
g58
NtRp1286
(dp1287
g61
(dp1288
sg70
g1191
sg63
(lp1289
g56
(g77
g58
NtRp1290
(dp1291
g61
(dp1292
g81
g82
ssg70
g1286
sg63
(lp1293
S'db_sessions'
p1294
asbag56
(g77
g58
NtRp1295
(dp1296
g61
(dp1297
g88
g89
ssg70
g1286
sg63
(lp1298
S':'
asbag56
(g77
g58
NtRp1299
(dp1300
g61
(dp1301
sg70
g1286
sg63
(lp1302
g56
(g57
g58
NtRp1303
(dp1304
g61
(dp1305
g69
I4
ssg70
g1299
sg63
(lp1306
S'set([])'
p1307
asbasbasbag56
(g72
g58
NtRp1308
(dp1309
g61
(dp1310
sg70
g1191
sg63
(lp1311
g56
(g77
g58
NtRp1312
(dp1313
g61
(dp1314
g81
g82
ssg70
g1308
sg63
(lp1315
S'debugging'
p1316
asbag56
(g77
g58
NtRp1317
(dp1318
g61
(dp1319
g88
g89
ssg70
g1308
sg63
(lp1320
S':'
asbag56
(g77
g58
NtRp1321
(dp1322
g61
(dp1323
sg70
g1308
sg63
(lp1324
g56
(g57
g58
NtRp1325
(dp1326
g61
(dp1327
g69
I4
ssg70
g1321
sg63
(lp1328
g99
asbasbasbag56
(g72
g58
NtRp1329
(dp1330
g61
(dp1331
sg70
g1191
sg63
(lp1332
g56
(g77
g58
NtRp1333
(dp1334
g61
(dp1335
g81
g82
ssg70
g1329
sg63
(lp1336
S'gluon_parent'
p1337
asbag56
(g77
g58
NtRp1338
(dp1339
g61
(dp1340
g88
g89
ssg70
g1329
sg63
(lp1341
S':'
asbag56
(g77
g58
NtRp1342
(dp1343
g61
(dp1344
sg70
g1329
sg63
(lp1345
g56
(g57
g58
NtRp1346
(dp1347
g61
(dp1348
g69
I4
ssg70
g1342
sg63
(lp1349
S'/home/alumno/web2py'
p1350
asbasbasbag56
(g72
g58
NtRp1351
(dp1352
g61
(dp1353
sg70
g1191
sg63
(lp1354
g56
(g77
g58
NtRp1355
(dp1356
g61
(dp1357
g81
g82
ssg70
g1351
sg63
(lp1358
S'http_accept'
p1359
asbag56
(g77
g58
NtRp1360
(dp1361
g61
(dp1362
g88
g89
ssg70
g1351
sg63
(lp1363
S':'
asbag56
(g77
g58
NtRp1364
(dp1365
g61
(dp1366
sg70
g1351
sg63
(lp1367
g56
(g57
g58
NtRp1368
(dp1369
g61
(dp1370
g69
I4
ssg70
g1364
sg63
(lp1371
S'text/html,application/xhtml+xml,application/xml;q=0.9,*/*;q=0.8'
p1372
asbasbasbag56
(g72
g58
NtRp1373
(dp1374
g61
(dp1375
sg70
g1191
sg63
(lp1376
g56
(g77
g58
NtRp1377
(dp1378
g61
(dp1379
g81
g82
ssg70
g1373
sg63
(lp1380
S'http_accept_charset'
p1381
asbag56
(g77
g58
NtRp1382
(dp1383
g61
(dp1384
g88
g89
ssg70
g1373
sg63
(lp1385
S':'
asbag56
(g77
g58
NtRp1386
(dp1387
g61
(dp1388
sg70
g1373
sg63
(lp1389
g56
(g57
g58
NtRp1390
(dp1391
g61
(dp1392
g69
I4
ssg70
g1386
sg63
(lp1393
S'ISO-8859-1,utf-8;q=0.7,*;q=0.7'
p1394
asbasbasbag56
(g72
g58
NtRp1395
(dp1396
g61
(dp1397
sg70
g1191
sg63
(lp1398
g56
(g77
g58
NtRp1399
(dp1400
g61
(dp1401
g81
g82
ssg70
g1395
sg63
(lp1402
S'http_accept_encoding'
p1403
asbag56
(g77
g58
NtRp1404
(dp1405
g61
(dp1406
g88
g89
ssg70
g1395
sg63
(lp1407
S':'
asbag56
(g77
g58
NtRp1408
(dp1409
g61
(dp1410
sg70
g1395
sg63
(lp1411
g56
(g57
g58
NtRp1412
(dp1413
g61
(dp1414
g69
I4
ssg70
g1408
sg63
(lp1415
S'gzip, deflate'
p1416
asbasbasbag56
(g72
g58
NtRp1417
(dp1418
g61
(dp1419
sg70
g1191
sg63
(lp1420
g56
(g77
g58
NtRp1421
(dp1422
g61
(dp1423
g81
g82
ssg70
g1417
sg63
(lp1424
S'http_accept_language'
p1425
asbag56
(g77
g58
NtRp1426
(dp1427
g61
(dp1428
g88
g89
ssg70
g1417
sg63
(lp1429
S':'
asbag56
(g77
g58
NtRp1430
(dp1431
g61
(dp1432
sg70
g1417
sg63
(lp1433
g56
(g57
g58
NtRp1434
(dp1435
g61
(dp1436
g69
I4
ssg70
g1430
sg63
(lp1437
S'es-ar,es;q=0.8,en-us;q=0.5,en;q=0.3'
p1438
asbasbasbag56
(g72
g58
NtRp1439
(dp1440
g61
(dp1441
sg70
g1191
sg63
(lp1442
g56
(g77
g58
NtRp1443
(dp1444
g61
(dp1445
g81
g82
ssg70
g1439
sg63
(lp1446
S'http_connection'
p1447
asbag56
(g77
g58
NtRp1448
(dp1449
g61
(dp1450
g88
g89
ssg70
g1439
sg63
(lp1451
S':'
asbag56
(g77
g58
NtRp1452
(dp1453
g61
(dp1454
sg70
g1439
sg63
(lp1455
g56
(g57
g58
NtRp1456
(dp1457
g61
(dp1458
g69
I4
ssg70
g1452
sg63
(lp1459
S'keep-alive'
p1460
asbasbasbag56
(g72
g58
NtRp1461
(dp1462
g61
(dp1463
sg70
g1191
sg63
(lp1464
g56
(g77
g58
NtRp1465
(dp1466
g61
(dp1467
g81
g82
ssg70
g1461
sg63
(lp1468
S'http_cookie'
p1469
asbag56
(g77
g58
NtRp1470
(dp1471
g61
(dp1472
g88
g89
ssg70
g1461
sg63
(lp1473
S':'
asbag56
(g77
g58
NtRp1474
(dp1475
g61
(dp1476
sg70
g1461
sg63
(lp1477
g56
(g57
g58
NtRp1478
(dp1479
g61
(dp1480
g69
I4
ssg70
g1474
sg63
(lp1481
S'session_id_welcome=127.0.0.1-c95fabcd-64b7-4ad2-8180-0b191d29eb3c; session_id_admin=127.0.0.1-2a24ba51-970a-4d02-b8db-815ef71053d7; adminLanguage=es-es; session_id_datos=127.0.0.1-46d2cb62-581d-41be-b0c5-47ee0f5ac400; session_id_examples=127.0.0.1-1b0b7a34-7f7b-4b4f-9bcd-8574562516ff'
p1482
asbasbasbag56
(g72
g58
NtRp1483
(dp1484
g61
(dp1485
sg70
g1191
sg63
(lp1486
g56
(g77
g58
NtRp1487
(dp1488
g61
(dp1489
g81
g82
ssg70
g1483
sg63
(lp1490
S'http_host'
p1491
asbag56
(g77
g58
NtRp1492
(dp1493
g61
(dp1494
g88
g89
ssg70
g1483
sg63
(lp1495
S':'
asbag56
(g77
g58
NtRp1496
(dp1497
g61
(dp1498
sg70
g1483
sg63
(lp1499
g56
(g57
g58
NtRp1500
(dp1501
g61
(dp1502
g69
I4
ssg70
g1496
sg63
(lp1503
S'127.0.0.1:8000'
p1504
asbasbasbag56
(g72
g58
NtRp1505
(dp1506
g61
(dp1507
sg70
g1191
sg63
(lp1508
g56
(g77
g58
NtRp1509
(dp1510
g61
(dp1511
g81
g82
ssg70
g1505
sg63
(lp1512
S'http_referer'
p1513
asbag56
(g77
g58
NtRp1514
(dp1515
g61
(dp1516
g88
g89
ssg70
g1505
sg63
(lp1517
S':'
asbag56
(g77
g58
NtRp1518
(dp1519
g61
(dp1520
sg70
g1505
sg63
(lp1521
g56
(g57
g58
NtRp1522
(dp1523
g61
(dp1524
g69
I4
ssg70
g1518
sg63
(lp1525
S'http://127.0.0.1:8000/admin/default/site'
p1526
asbasbasbag56
(g72
g58
NtRp1527
(dp1528
g61
(dp1529
sg70
g1191
sg63
(lp1530
g56
(g77
g58
NtRp1531
(dp1532
g61
(dp1533
g81
g82
ssg70
g1527
sg63
(lp1534
S'http_user_agent'
p1535
asbag56
(g77
g58
NtRp1536
(dp1537
g61
(dp1538
g88
g89
ssg70
g1527
sg63
(lp1539
S':'
asbag56
(g77
g58
NtRp1540
(dp1541
g61
(dp1542
sg70
g1527
sg63
(lp1543
g56
(g57
g58
NtRp1544
(dp1545
g61
(dp1546
g69
I4
ssg70
g1540
sg63
(lp1547
S'Mozilla/5.0 (X11; Linux i686; rv:6.0) Gecko/20100101 Firefox/6.0'
p1548
asbasbasbag56
(g72
g58
NtRp1549
(dp1550
g61
(dp1551
sg70
g1191
sg63
(lp1552
g56
(g77
g58
NtRp1553
(dp1554
g61
(dp1555
g81
g82
ssg70
g1549
sg63
(lp1556
S'path_info'
p1557
asbag56
(g77
g58
NtRp1558
(dp1559
g61
(dp1560
g88
g89
ssg70
g1549
sg63
(lp1561
S':'
asbag56
(g77
g58
NtRp1562
(dp1563
g61
(dp1564
sg70
g1549
sg63
(lp1565
g56
(g57
g58
NtRp1566
(dp1567
g61
(dp1568
g69
I4
ssg70
g1562
sg63
(lp1569
S'/datos/default/index'
p1570
asbasbasbag56
(g72
g58
NtRp1571
(dp1572
g61
(dp1573
sg70
g1191
sg63
(lp1574
g56
(g77
g58
NtRp1575
(dp1576
g61
(dp1577
g81
g82
ssg70
g1571
sg63
(lp1578
S'query_string'
p1579
asbag56
(g77
g58
NtRp1580
(dp1581
g61
(dp1582
g88
g89
ssg70
g1571
sg63
(lp1583
S':'
asbag56
(g77
g58
NtRp1584
(dp1585
g61
(dp1586
sg70
g1571
sg63
(lp1587
g56
(g57
g58
NtRp1588
(dp1589
g61
(dp1590
g69
I4
ssg70
g1584
sg63
(lp1591
S''
asbasbasbag56
(g72
g58
NtRp1592
(dp1593
g61
(dp1594
sg70
g1191
sg63
(lp1595
g56
(g77
g58
NtRp1596
(dp1597
g61
(dp1598
g81
g82
ssg70
g1592
sg63
(lp1599
S'remote_addr'
p1600
asbag56
(g77
g58
NtRp1601
(dp1602
g61
(dp1603
g88
g89
ssg70
g1592
sg63
(lp1604
S':'
asbag56
(g77
g58
NtRp1605
(dp1606
g61
(dp1607
sg70
g1592
sg63
(lp1608
g56
(g57
g58
NtRp1609
(dp1610
g61
(dp1611
g69
I4
ssg70
g1605
sg63
(lp1612
g189
asbasbasbag56
(g72
g58
NtRp1613
(dp1614
g61
(dp1615
sg70
g1191
sg63
(lp1616
g56
(g77
g58
NtRp1617
(dp1618
g61
(dp1619
g81
g82
ssg70
g1613
sg63
(lp1620
S'remote_port'
p1621
asbag56
(g77
g58
NtRp1622
(dp1623
g61
(dp1624
g88
g89
ssg70
g1613
sg63
(lp1625
S':'
asbag56
(g77
g58
NtRp1626
(dp1627
g61
(dp1628
sg70
g1613
sg63
(lp1629
g56
(g57
g58
NtRp1630
(dp1631
g61
(dp1632
g69
I4
ssg70
g1626
sg63
(lp1633
S'56531'
p1634
asbasbasbag56
(g72
g58
NtRp1635
(dp1636
g61
(dp1637
sg70
g1191
sg63
(lp1638
g56
(g77
g58
NtRp1639
(dp1640
g61
(dp1641
g81
g82
ssg70
g1635
sg63
(lp1642
S'request_method'
p1643
asbag56
(g77
g58
NtRp1644
(dp1645
g61
(dp1646
g88
g89
ssg70
g1635
sg63
(lp1647
S':'
asbag56
(g77
g58
NtRp1648
(dp1649
g61
(dp1650
sg70
g1635
sg63
(lp1651
g56
(g57
g58
NtRp1652
(dp1653
g61
(dp1654
g69
I4
ssg70
g1648
sg63
(lp1655
S'GET'
p1656
asbasbasbag56
(g72
g58
NtRp1657
(dp1658
g61
(dp1659
sg70
g1191
sg63
(lp1660
g56
(g77
g58
NtRp1661
(dp1662
g61
(dp1663
g81
g82
ssg70
g1657
sg63
(lp1664
S'script_name'
p1665
asbag56
(g77
g58
NtRp1666
(dp1667
g61
(dp1668
g88
g89
ssg70
g1657
sg63
(lp1669
S':'
asbag56
(g77
g58
NtRp1670
(dp1671
g61
(dp1672
sg70
g1657
sg63
(lp1673
g56
(g57
g58
NtRp1674
(dp1675
g61
(dp1676
g69
I4
ssg70
g1670
sg63
(lp1677
S''
asbasbasbag56
(g72
g58
NtRp1678
(dp1679
g61
(dp1680
sg70
g1191
sg63
(lp1681
g56
(g77
g58
NtRp1682
(dp1683
g61
(dp1684
g81
g82
ssg70
g1678
sg63
(lp1685
S'server_name'
p1686
asbag56
(g77
g58
NtRp1687
(dp1688
g61
(dp1689
g88
g89
ssg70
g1678
sg63
(lp1690
S':'
asbag56
(g77
g58
NtRp1691
(dp1692
g61
(dp1693
sg70
g1678
sg63
(lp1694
g56
(g57
g58
NtRp1695
(dp1696
g61
(dp1697
g69
I4
ssg70
g1691
sg63
(lp1698
S'ubuntu-dev'
p1699
asbasbasbag56
(g72
g58
NtRp1700
(dp1701
g61
(dp1702
sg70
g1191
sg63
(lp1703
g56
(g77
g58
NtRp1704
(dp1705
g61
(dp1706
g81
g82
ssg70
g1700
sg63
(lp1707
S'server_port'
p1708
asbag56
(g77
g58
NtRp1709
(dp1710
g61
(dp1711
g88
g89
ssg70
g1700
sg63
(lp1712
S':'
asbag56
(g77
g58
NtRp1713
(dp1714
g61
(dp1715
sg70
g1700
sg63
(lp1716
g56
(g57
g58
NtRp1717
(dp1718
g61
(dp1719
g69
I4
ssg70
g1713
sg63
(lp1720
S'8000'
p1721
asbasbasbag56
(g72
g58
NtRp1722
(dp1723
g61
(dp1724
sg70
g1191
sg63
(lp1725
g56
(g77
g58
NtRp1726
(dp1727
g61
(dp1728
g81
g82
ssg70
g1722
sg63
(lp1729
S'server_protocol'
p1730
asbag56
(g77
g58
NtRp1731
(dp1732
g61
(dp1733
g88
g89
ssg70
g1722
sg63
(lp1734
S':'
asbag56
(g77
g58
NtRp1735
(dp1736
g61
(dp1737
sg70
g1722
sg63
(lp1738
g56
(g57
g58
NtRp1739
(dp1740
g61
(dp1741
g69
I4
ssg70
g1735
sg63
(lp1742
S'HTTP/1.1'
p1743
asbasbasbag56
(g72
g58
NtRp1744
(dp1745
g61
(dp1746
sg70
g1191
sg63
(lp1747
g56
(g77
g58
NtRp1748
(dp1749
g61
(dp1750
g81
g82
ssg70
g1744
sg63
(lp1751
S'server_software'
p1752
asbag56
(g77
g58
NtRp1753
(dp1754
g61
(dp1755
g88
g89
ssg70
g1744
sg63
(lp1756
S':'
asbag56
(g77
g58
NtRp1757
(dp1758
g61
(dp1759
sg70
g1744
sg63
(lp1760
g56
(g57
g58
NtRp1761
(dp1762
g61
(dp1763
g69
I4
ssg70
g1757
sg63
(lp1764
S'Rocket 1.2.2'
p1765
asbasbasbag56
(g72
g58
NtRp1766
(dp1767
g61
(dp1768
sg70
g1191
sg63
(lp1769
g56
(g77
g58
NtRp1770
(dp1771
g61
(dp1772
g81
g82
ssg70
g1766
sg63
(lp1773
S'web2py_crontype'
p1774
asbag56
(g77
g58
NtRp1775
(dp1776
g61
(dp1777
g88
g89
ssg70
g1766
sg63
(lp1778
S':'
asbag56
(g77
g58
NtRp1779
(dp1780
g61
(dp1781
sg70
g1766
sg63
(lp1782
g56
(g57
g58
NtRp1783
(dp1784
g61
(dp1785
g69
I4
ssg70
g1779
sg63
(lp1786
S'hard'
p1787
asbasbasbag56
(g72
g58
NtRp1788
(dp1789
g61
(dp1790
sg70
g1191
sg63
(lp1791
g56
(g77
g58
NtRp1792
(dp1793
g61
(dp1794
g81
g82
ssg70
g1788
sg63
(lp1795
S'web2py_path'
p1796
asbag56
(g77
g58
NtRp1797
(dp1798
g61
(dp1799
g88
g89
ssg70
g1788
sg63
(lp1800
S':'
asbag56
(g77
g58
NtRp1801
(dp1802
g61
(dp1803
sg70
g1788
sg63
(lp1804
g56
(g57
g58
NtRp1805
(dp1806
g61
(dp1807
g69
I4
ssg70
g1801
sg63
(lp1808
g1238
asbasbasbag56
(g72
g58
NtRp1809
(dp1810
g61
(dp1811
sg70
g1191
sg63
(lp1812
g56
(g77
g58
NtRp1813
(dp1814
g61
(dp1815
g81
g82
ssg70
g1809
sg63
(lp1816
S'web2py_version'
p1817
asbag56
(g77
g58
NtRp1818
(dp1819
g61
(dp1820
g88
g89
ssg70
g1809
sg63
(lp1821
S':'
asbag56
(g77
g58
NtRp1822
(dp1823
g61
(dp1824
sg70
g1809
sg63
(lp1825
g56
(g57
g58
NtRp1826
(dp1827
g61
(dp1828
g69
I4
ssg70
g1822
sg63
(lp1829
S'Version 1.96.4 (2011-06-18 21:34:53)\n'
p1830
asbasbasbag56
(g72
g58
NtRp1831
(dp1832
g61
(dp1833
sg70
g1191
sg63
(lp1834
g56
(g77
g58
NtRp1835
(dp1836
g61
(dp1837
g81
g82
ssg70
g1831
sg63
(lp1838
S'wsgi_errors'
p1839
asbag56
(g77
g58
NtRp1840
(dp1841
g61
(dp1842
g88
g89
ssg70
g1831
sg63
(lp1843
S':'
asbag56
(g77
g58
NtRp1844
(dp1845
g61
(dp1846
sg70
g1831
sg63
(lp1847
g56
(g57
g58
NtRp1848
(dp1849
g61
(dp1850
g69
I4
ssg70
g1844
sg63
(lp1851
S"<open file '<stderr>', mode 'w' at 0xb77f60d0>"
p1852
asbasbasbag56
(g72
g58
NtRp1853
(dp1854
g61
(dp1855
sg70
g1191
sg63
(lp1856
g56
(g77
g58
NtRp1857
(dp1858
g61
(dp1859
g81
g82
ssg70
g1853
sg63
(lp1860
S'wsgi_file_wrapper'
p1861
asbag56
(g77
g58
NtRp1862
(dp1863
g61
(dp1864
g88
g89
ssg70
g1853
sg63
(lp1865
S':'
asbag56
(g77
g58
NtRp1866
(dp1867
g61
(dp1868
sg70
g1853
sg63
(lp1869
g56
(g57
g58
NtRp1870
(dp1871
g61
(dp1872
g69
I4
ssg70
g1866
sg63
(lp1873
S'<class gluon.rocket.FileWrapper at 0x8ea1e3c>'
p1874
asbasbasbag56
(g72
g58
NtRp1875
(dp1876
g61
(dp1877
sg70
g1191
sg63
(lp1878
g56
(g77
g58
NtRp1879
(dp1880
g61
(dp1881
g81
g82
ssg70
g1875
sg63
(lp1882
S'wsgi_input'
p1883
asbag56
(g77
g58
NtRp1884
(dp1885
g61
(dp1886
g88
g89
ssg70
g1875
sg63
(lp1887
S':'
asbag56
(g77
g58
NtRp1888
(dp1889
g61
(dp1890
sg70
g1875
sg63
(lp1891
g56
(g57
g58
NtRp1892
(dp1893
g61
(dp1894
g69
I4
ssg70
g1888
sg63
(lp1895
S'<socket._fileobject object at 0x91ea72c>'
p1896
asbasbasbag56
(g72
g58
NtRp1897
(dp1898
g61
(dp1899
sg70
g1191
sg63
(lp1900
g56
(g77
g58
NtRp1901
(dp1902
g61
(dp1903
g81
g82
ssg70
g1897
sg63
(lp1904
S'wsgi_multiprocess'
p1905
asbag56
(g77
g58
NtRp1906
(dp1907
g61
(dp1908
g88
g89
ssg70
g1897
sg63
(lp1909
S':'
asbag56
(g77
g58
NtRp1910
(dp1911
g61
(dp1912
sg70
g1897
sg63
(lp1913
g56
(g57
g58
NtRp1914
(dp1915
g61
(dp1916
g69
I4
ssg70
g1910
sg63
(lp1917
g99
asbasbasbag56
(g72
g58
NtRp1918
(dp1919
g61
(dp1920
sg70
g1191
sg63
(lp1921
g56
(g77
g58
NtRp1922
(dp1923
g61
(dp1924
g81
g82
ssg70
g1918
sg63
(lp1925
S'wsgi_multithread'
p1926
asbag56
(g77
g58
NtRp1927
(dp1928
g61
(dp1929
g88
g89
ssg70
g1918
sg63
(lp1930
S':'
asbag56
(g77
g58
NtRp1931
(dp1932
g61
(dp1933
sg70
g1918
sg63
(lp1934
g56
(g57
g58
NtRp1935
(dp1936
g61
(dp1937
g69
I4
ssg70
g1931
sg63
(lp1938
S'True'
p1939
asbasbasbag56
(g72
g58
NtRp1940
(dp1941
g61
(dp1942
sg70
g1191
sg63
(lp1943
g56
(g77
g58
NtRp1944
(dp1945
g61
(dp1946
g81
g82
ssg70
g1940
sg63
(lp1947
S'wsgi_run_once'
p1948
asbag56
(g77
g58
NtRp1949
(dp1950
g61
(dp1951
g88
g89
ssg70
g1940
sg63
(lp1952
S':'
asbag56
(g77
g58
NtRp1953
(dp1954
g61
(dp1955
sg70
g1940
sg63
(lp1956
g56
(g57
g58
NtRp1957
(dp1958
g61
(dp1959
g69
I4
ssg70
g1953
sg63
(lp1960
g99
asbasbasbag56
(g72
g58
NtRp1961
(dp1962
g61
(dp1963
sg70
g1191
sg63
(lp1964
g56
(g77
g58
NtRp1965
(dp1966
g61
(dp1967
g81
g82
ssg70
g1961
sg63
(lp1968
S'wsgi_url_scheme'
p1969
asbag56
(g77
g58
NtRp1970
(dp1971
g61
(dp1972
g88
g89
ssg70
g1961
sg63
(lp1973
S':'
asbag56
(g77
g58
NtRp1974
(dp1975
g61
(dp1976
sg70
g1961
sg63
(lp1977
g56
(g57
g58
NtRp1978
(dp1979
g61
(dp1980
g69
I4
ssg70
g1974
sg63
(lp1981
S'http'
p1982
asbasbasbag56
(g72
g58
NtRp1983
(dp1984
g61
(dp1985
sg70
g1191
sg63
(lp1986
g56
(g77
g58
NtRp1987
(dp1988
g61
(dp1989
g81
g82
ssg70
g1983
sg63
(lp1990
S'wsgi_version'
p1991
asbag56
(g77
g58
NtRp1992
(dp1993
g61
(dp1994
g88
g89
ssg70
g1983
sg63
(lp1995
S':'
asbag56
(g77
g58
NtRp1996
(dp1997
g61
(dp1998
sg70
g1983
sg63
(lp1999
g56
(g57
g58
NtRp2000
(dp2001
g61
(dp2002
g69
I4
ssg70
g1996
sg63
(lp2003
g56
(g65
g58
NtRp2004
(dp2005
g61
(dp2006
g69
I3
ssg70
Nsg63
(lp2007
g56
(g72
g58
NtRp2008
(dp2009
g61
(dp2010
sg70
g2004
sg63
(lp2011
g56
(g77
g58
NtRp2012
(dp2013
g61
(dp2014
sg70
g2008
sg63
(lp2015
g56
(g57
g58
NtRp2016
(dp2017
g61
(dp2018
g69
I3
ssg70
g2012
sg63
(lp2019
S'1'
asbasbasbag56
(g72
g58
NtRp2020
(dp2021
g61
(dp2022
sg70
g2004
sg63
(lp2023
g56
(g77
g58
NtRp2024
(dp2025
g61
(dp2026
sg70
g2020
sg63
(lp2027
g56
(g57
g58
NtRp2028
(dp2029
g61
(dp2030
g69
I3
ssg70
g2024
sg63
(lp2031
S'0'
asbasbasbasbasbasbasbasbasbasbasbag56
(g72
g58
NtRp2032
(dp2033
g61
(dp2034
sg70
g66
sg63
(lp2035
g56
(g77
g58
NtRp2036
(dp2037
g61
(dp2038
g81
g82
ssg70
g2032
sg63
(lp2039
S'extension'
p2040
asbag56
(g77
g58
NtRp2041
(dp2042
g61
(dp2043
g88
g89
ssg70
g2032
sg63
(lp2044
S':'
asbag56
(g77
g58
NtRp2045
(dp2046
g61
(dp2047
sg70
g2032
sg63
(lp2048
g56
(g57
g58
NtRp2049
(dp2050
g61
(dp2051
g69
I5
ssg70
g2045
sg63
(lp2052
S'html'
p2053
asbasbasbag56
(g72
g58
NtRp2054
(dp2055
g61
(dp2056
sg70
g66
sg63
(lp2057
g56
(g77
g58
NtRp2058
(dp2059
g61
(dp2060
g81
g82
ssg70
g2054
sg63
(lp2061
S'folder'
p2062
asbag56
(g77
g58
NtRp2063
(dp2064
g61
(dp2065
g88
g89
ssg70
g2054
sg63
(lp2066
S':'
asbag56
(g77
g58
NtRp2067
(dp2068
g61
(dp2069
sg70
g2054
sg63
(lp2070
g56
(g57
g58
NtRp2071
(dp2072
g61
(dp2073
g69
I5
ssg70
g2067
sg63
(lp2074
S'/home/alumno/web2py/applications/datos/'
p2075
asbasbasbag56
(g72
g58
NtRp2076
(dp2077
g61
(dp2078
sg70
g66
sg63
(lp2079
g56
(g77
g58
NtRp2080
(dp2081
g61
(dp2082
g81
g82
ssg70
g2076
sg63
(lp2083
S'function'
p2084
asbag56
(g77
g58
NtRp2085
(dp2086
g61
(dp2087
g88
g89
ssg70
g2076
sg63
(lp2088
S':'
asbag56
(g77
g58
NtRp2089
(dp2090
g61
(dp2091
sg70
g2076
sg63
(lp2092
g56
(g57
g58
NtRp2093
(dp2094
g61
(dp2095
g69
I5
ssg70
g2089
sg63
(lp2096
S'index'
p2097
asbasbasbag56
(g72
g58
NtRp2098
(dp2099
g61
(dp2100
sg70
g66
sg63
(lp2101
g56
(g77
g58
NtRp2102
(dp2103
g61
(dp2104
g81
g82
ssg70
g2098
sg63
(lp2105
S'get_vars'
p2106
asbag56
(g77
g58
NtRp2107
(dp2108
g61
(dp2109
g88
g89
ssg70
g2098
sg63
(lp2110
S':'
asbag56
(g77
g58
NtRp2111
(dp2112
g61
(dp2113
sg70
g2098
sg63
(lp2114
g56
(g57
g58
NtRp2115
(dp2116
g61
(dp2117
g69
I5
ssg70
g2111
sg63
(lp2118
g56
(g65
g58
NtRp2119
(dp2120
g61
(dp2121
g69
I4
ssg70
Nsg63
(lp2122
sbasbasbasbag56
(g72
g58
NtRp2123
(dp2124
g61
(dp2125
sg70
g66
sg63
(lp2126
g56
(g77
g58
NtRp2127
(dp2128
g61
(dp2129
g81
g82
ssg70
g2123
sg63
(lp2130
S'is_https'
p2131
asbag56
(g77
g58
NtRp2132
(dp2133
g61
(dp2134
g88
g89
ssg70
g2123
sg63
(lp2135
S':'
asbag56
(g77
g58
NtRp2136
(dp2137
g61
(dp2138
sg70
g2123
sg63
(lp2139
g56
(g57
g58
NtRp2140
(dp2141
g61
(dp2142
g69
I5
ssg70
g2136
sg63
(lp2143
g99
asbasbasbag56
(g72
g58
NtRp2144
(dp2145
g61
(dp2146
sg70
g66
sg63
(lp2147
g56
(g77
g58
NtRp2148
(dp2149
g61
(dp2150
g81
g82
ssg70
g2144
sg63
(lp2151
S'is_local'
p2152
asbag56
(g77
g58
NtRp2153
(dp2154
g61
(dp2155
g88
g89
ssg70
g2144
sg63
(lp2156
S':'
asbag56
(g77
g58
NtRp2157
(dp2158
g61
(dp2159
sg70
g2144
sg63
(lp2160
g56
(g57
g58
NtRp2161
(dp2162
g61
(dp2163
g69
I5
ssg70
g2157
sg63
(lp2164
g1939
asbasbasbag56
(g72
g58
NtRp2165
(dp2166
g61
(dp2167
sg70
g66
sg63
(lp2168
g56
(g77
g58
NtRp2169
(dp2170
g61
(dp2171
g81
g82
ssg70
g2165
sg63
(lp2172
S'is_restful'
p2173
asbag56
(g77
g58
NtRp2174
(dp2175
g61
(dp2176
g88
g89
ssg70
g2165
sg63
(lp2177
S':'
asbag56
(g77
g58
NtRp2178
(dp2179
g61
(dp2180
sg70
g2165
sg63
(lp2181
g56
(g57
g58
NtRp2182
(dp2183
g61
(dp2184
g69
I5
ssg70
g2178
sg63
(lp2185
g99
asbasbasbag56
(g72
g58
NtRp2186
(dp2187
g61
(dp2188
sg70
g66
sg63
(lp2189
g56
(g77
g58
NtRp2190
(dp2191
g61
(dp2192
g81
g82
ssg70
g2186
sg63
(lp2193
S'now'
p2194
asbag56
(g77
g58
NtRp2195
(dp2196
g61
(dp2197
g88
g89
ssg70
g2186
sg63
(lp2198
S':'
asbag56
(g77
g58
NtRp2199
(dp2200
g61
(dp2201
sg70
g2186
sg63
(lp2202
g56
(g57
g58
NtRp2203
(dp2204
g61
(dp2205
g69
I5
ssg70
g2199
sg63
(lp2206
S'datetime.datetime(2011, 9, 10, 18, 52, 36, 108696)'
p2207
asbasbasbag56
(g72
g58
NtRp2208
(dp2209
g61
(dp2210
sg70
g66
sg63
(lp2211
g56
(g77
g58
NtRp2212
(dp2213
g61
(dp2214
g81
g82
ssg70
g2208
sg63
(lp2215
S'post_vars'
p2216
asbag56
(g77
g58
NtRp2217
(dp2218
g61
(dp2219
g88
g89
ssg70
g2208
sg63
(lp2220
S':'
asbag56
(g77
g58
NtRp2221
(dp2222
g61
(dp2223
sg70
g2208
sg63
(lp2224
g56
(g57
g58
NtRp2225
(dp2226
g61
(dp2227
g69
I5
ssg70
g2221
sg63
(lp2228
g56
(g65
g58
NtRp2229
(dp2230
g61
(dp2231
g69
I4
ssg70
Nsg63
(lp2232
sbasbasbasbag56
(g72
g58
NtRp2233
(dp2234
g61
(dp2235
sg70
g66
sg63
(lp2236
g56
(g77
g58
NtRp2237
(dp2238
g61
(dp2239
g81
g82
ssg70
g2233
sg63
(lp2240
S'url'
p2241
asbag56
(g77
g58
NtRp2242
(dp2243
g61
(dp2244
g88
g89
ssg70
g2233
sg63
(lp2245
S':'
asbag56
(g77
g58
NtRp2246
(dp2247
g61
(dp2248
sg70
g2233
sg63
(lp2249
g56
(g57
g58
NtRp2250
(dp2251
g61
(dp2252
g69
I5
ssg70
g2246
sg63
(lp2253
S'/datos/default/index'
p2254
asbasbasbag56
(g72
g58
NtRp2255
(dp2256
g61
(dp2257
sg70
g66
sg63
(lp2258
g56
(g77
g58
NtRp2259
(dp2260
g61
(dp2261
g81
g82
ssg70
g2255
sg63
(lp2262
S'uuid'
p2263
asbag56
(g77
g58
NtRp2264
(dp2265
g61
(dp2266
g88
g89
ssg70
g2255
sg63
(lp2267
S':'
asbag56
(g77
g58
NtRp2268
(dp2269
g61
(dp2270
sg70
g2255
sg63
(lp2271
g56
(g57
g58
NtRp2272
(dp2273
g61
(dp2274
g69
I5
ssg70
g2268
sg63
(lp2275
S'datos/127.0.0.1.2011-09-10.18-52-36.17888359-696b-408b-8d18-4e24853aecc7'
p2276
asbasbasbag56
(g72
g58
NtRp2277
(dp2278
g61
(dp2279
sg70
g66
sg63
(lp2280
g56
(g77
g58
NtRp2281
(dp2282
g61
(dp2283
g81
g82
ssg70
g2277
sg63
(lp2284
S'vars'
p2285
asbag56
(g77
g58
NtRp2286
(dp2287
g61
(dp2288
g88
g89
ssg70
g2277
sg63
(lp2289
S':'
asbag56
(g77
g58
NtRp2290
(dp2291
g61
(dp2292
sg70
g2277
sg63
(lp2293
g56
(g57
g58
NtRp2294
(dp2295
g61
(dp2296
g69
I5
ssg70
g2290
sg63
(lp2297
g56
(g65
g58
NtRp2298
(dp2299
g61
(dp2300
g69
I4
ssg70
Nsg63
(lp2301
sbasbasbasbag56
(g72
g58
NtRp2302
(dp2303
g61
(dp2304
sg70
g66
sg63
(lp2305
g56
(g77
g58
NtRp2306
(dp2307
g61
(dp2308
g81
g82
ssg70
g2302
sg63
(lp2309
S'wsgi'
p2310
asbag56
(g77
g58
NtRp2311
(dp2312
g61
(dp2313
g88
g89
ssg70
g2302
sg63
(lp2314
S':'
asbag56
(g77
g58
NtRp2315
(dp2316
g61
(dp2317
sg70
g2302
sg63
(lp2318
g56
(g57
g58
NtRp2319
(dp2320
g61
(dp2321
g69
I5
ssg70
g2315
sg63
(lp2322
g56
(g65
g58
NtRp2323
(dp2324
g61
(dp2325
g69
I4
ssg70
Nsg63
(lp2326
g56
(g72
g58
NtRp2327
(dp2328
g61
(dp2329
sg70
g2323
sg63
(lp2330
g56
(g77
g58
NtRp2331
(dp2332
g61
(dp2333
g81
g82
ssg70
g2327
sg63
(lp2334
S'environ'
p2335
asbag56
(g77
g58
NtRp2336
(dp2337
g61
(dp2338
g88
g89
ssg70
g2327
sg63
(lp2339
S':'
asbag56
(g77
g58
NtRp2340
(dp2341
g61
(dp2342
sg70
g2327
sg63
(lp2343
g56
(g57
g58
NtRp2344
(dp2345
g61
(dp2346
g69
I4
ssg70
g2340
sg63
(lp2347
g56
(g65
g58
NtRp2348
(dp2349
g61
(dp2350
g69
I3
ssg70
Nsg63
(lp2351
g56
(g72
g58
NtRp2352
(dp2353
g61
(dp2354
sg70
g2348
sg63
(lp2355
g56
(g77
g58
NtRp2356
(dp2357
g61
(dp2358
g81
g82
ssg70
g2352
sg63
(lp2359
S'HTTP_ACCEPT'
p2360
asbag56
(g77
g58
NtRp2361
(dp2362
g61
(dp2363
g88
g89
ssg70
g2352
sg63
(lp2364
S':'
asbag56
(g77
g58
NtRp2365
(dp2366
g61
(dp2367
sg70
g2352
sg63
(lp2368
g56
(g57
g58
NtRp2369
(dp2370
g61
(dp2371
g69
I3
ssg70
g2365
sg63
(lp2372
g1372
asbasbasbag56
(g72
g58
NtRp2373
(dp2374
g61
(dp2375
sg70
g2348
sg63
(lp2376
g56
(g77
g58
NtRp2377
(dp2378
g61
(dp2379
g81
g82
ssg70
g2373
sg63
(lp2380
S'HTTP_ACCEPT_CHARSET'
p2381
asbag56
(g77
g58
NtRp2382
(dp2383
g61
(dp2384
g88
g89
ssg70
g2373
sg63
(lp2385
S':'
asbag56
(g77
g58
NtRp2386
(dp2387
g61
(dp2388
sg70
g2373
sg63
(lp2389
g56
(g57
g58
NtRp2390
(dp2391
g61
(dp2392
g69
I3
ssg70
g2386
sg63
(lp2393
g1394
asbasbasbag56
(g72
g58
NtRp2394
(dp2395
g61
(dp2396
sg70
g2348
sg63
(lp2397
g56
(g77
g58
NtRp2398
(dp2399
g61
(dp2400
g81
g82
ssg70
g2394
sg63
(lp2401
S'HTTP_ACCEPT_ENCODING'
p2402
asbag56
(g77
g58
NtRp2403
(dp2404
g61
(dp2405
g88
g89
ssg70
g2394
sg63
(lp2406
S':'
asbag56
(g77
g58
NtRp2407
(dp2408
g61
(dp2409
sg70
g2394
sg63
(lp2410
g56
(g57
g58
NtRp2411
(dp2412
g61
(dp2413
g69
I3
ssg70
g2407
sg63
(lp2414
g1416
asbasbasbag56
(g72
g58
NtRp2415
(dp2416
g61
(dp2417
sg70
g2348
sg63
(lp2418
g56
(g77
g58
NtRp2419
(dp2420
g61
(dp2421
g81
g82
ssg70
g2415
sg63
(lp2422
S'HTTP_ACCEPT_LANGUAGE'
p2423
asbag56
(g77
g58
NtRp2424
(dp2425
g61
(dp2426
g88
g89
ssg70
g2415
sg63
(lp2427
S':'
asbag56
(g77
g58
NtRp2428
(dp2429
g61
(dp2430
sg70
g2415
sg63
(lp2431
g56
(g57
g58
NtRp2432
(dp2433
g61
(dp2434
g69
I3
ssg70
g2428
sg63
(lp2435
g1438
asbasbasbag56
(g72
g58
NtRp2436
(dp2437
g61
(dp2438
sg70
g2348
sg63
(lp2439
g56
(g77
g58
NtRp2440
(dp2441
g61
(dp2442
g81
g82
ssg70
g2436
sg63
(lp2443
S'HTTP_CONNECTION'
p2444
asbag56
(g77
g58
NtRp2445
(dp2446
g61
(dp2447
g88
g89
ssg70
g2436
sg63
(lp2448
S':'
asbag56
(g77
g58
NtRp2449
(dp2450
g61
(dp2451
sg70
g2436
sg63
(lp2452
g56
(g57
g58
NtRp2453
(dp2454
g61
(dp2455
g69
I3
ssg70
g2449
sg63
(lp2456
g1460
asbasbasbag56
(g72
g58
NtRp2457
(dp2458
g61
(dp2459
sg70
g2348
sg63
(lp2460
g56
(g77
g58
NtRp2461
(dp2462
g61
(dp2463
g81
g82
ssg70
g2457
sg63
(lp2464
S'HTTP_COOKIE'
p2465
asbag56
(g77
g58
NtRp2466
(dp2467
g61
(dp2468
g88
g89
ssg70
g2457
sg63
(lp2469
S':'
asbag56
(g77
g58
NtRp2470
(dp2471
g61
(dp2472
sg70
g2457
sg63
(lp2473
g56
(g57
g58
NtRp2474
(dp2475
g61
(dp2476
g69
I3
ssg70
g2470
sg63
(lp2477
g1482
asbasbasbag56
(g72
g58
NtRp2478
(dp2479
g61
(dp2480
sg70
g2348
sg63
(lp2481
g56
(g77
g58
NtRp2482
(dp2483
g61
(dp2484
g81
g82
ssg70
g2478
sg63
(lp2485
S'HTTP_HOST'
p2486
asbag56
(g77
g58
NtRp2487
(dp2488
g61
(dp2489
g88
g89
ssg70
g2478
sg63
(lp2490
S':'
asbag56
(g77
g58
NtRp2491
(dp2492
g61
(dp2493
sg70
g2478
sg63
(lp2494
g56
(g57
g58
NtRp2495
(dp2496
g61
(dp2497
g69
I3
ssg70
g2491
sg63
(lp2498
g1504
asbasbasbag56
(g72
g58
NtRp2499
(dp2500
g61
(dp2501
sg70
g2348
sg63
(lp2502
g56
(g77
g58
NtRp2503
(dp2504
g61
(dp2505
g81
g82
ssg70
g2499
sg63
(lp2506
S'HTTP_REFERER'
p2507
asbag56
(g77
g58
NtRp2508
(dp2509
g61
(dp2510
g88
g89
ssg70
g2499
sg63
(lp2511
S':'
asbag56
(g77
g58
NtRp2512
(dp2513
g61
(dp2514
sg70
g2499
sg63
(lp2515
g56
(g57
g58
NtRp2516
(dp2517
g61
(dp2518
g69
I3
ssg70
g2512
sg63
(lp2519
g1526
asbasbasbag56
(g72
g58
NtRp2520
(dp2521
g61
(dp2522
sg70
g2348
sg63
(lp2523
g56
(g77
g58
NtRp2524
(dp2525
g61
(dp2526
g81
g82
ssg70
g2520
sg63
(lp2527
S'HTTP_USER_AGENT'
p2528
asbag56
(g77
g58
NtRp2529
(dp2530
g61
(dp2531
g88
g89
ssg70
g2520
sg63
(lp2532
S':'
asbag56
(g77
g58
NtRp2533
(dp2534
g61
(dp2535
sg70
g2520
sg63
(lp2536
g56
(g57
g58
NtRp2537
(dp2538
g61
(dp2539
g69
I3
ssg70
g2533
sg63
(lp2540
g1548
asbasbasbag56
(g72
g58
NtRp2541
(dp2542
g61
(dp2543
sg70
g2348
sg63
(lp2544
g56
(g77
g58
NtRp2545
(dp2546
g61
(dp2547
g81
g82
ssg70
g2541
sg63
(lp2548
S'PATH_INFO'
p2549
asbag56
(g77
g58
NtRp2550
(dp2551
g61
(dp2552
g88
g89
ssg70
g2541
sg63
(lp2553
S':'
asbag56
(g77
g58
NtRp2554
(dp2555
g61
(dp2556
sg70
g2541
sg63
(lp2557
g56
(g57
g58
NtRp2558
(dp2559
g61
(dp2560
g69
I3
ssg70
g2554
sg63
(lp2561
g1570
asbasbasbag56
(g72
g58
NtRp2562
(dp2563
g61
(dp2564
sg70
g2348
sg63
(lp2565
g56
(g77
g58
NtRp2566
(dp2567
g61
(dp2568
g81
g82
ssg70
g2562
sg63
(lp2569
S'QUERY_STRING'
p2570
asbag56
(g77
g58
NtRp2571
(dp2572
g61
(dp2573
g88
g89
ssg70
g2562
sg63
(lp2574
S':'
asbag56
(g77
g58
NtRp2575
(dp2576
g61
(dp2577
sg70
g2562
sg63
(lp2578
g56
(g57
g58
NtRp2579
(dp2580
g61
(dp2581
g69
I3
ssg70
g2575
sg63
(lp2582
S''
asbasbasbag56
(g72
g58
NtRp2583
(dp2584
g61
(dp2585
sg70
g2348
sg63
(lp2586
g56
(g77
g58
NtRp2587
(dp2588
g61
(dp2589
g81
g82
ssg70
g2583
sg63
(lp2590
S'REMOTE_ADDR'
p2591
asbag56
(g77
g58
NtRp2592
(dp2593
g61
(dp2594
g88
g89
ssg70
g2583
sg63
(lp2595
S':'
asbag56
(g77
g58
NtRp2596
(dp2597
g61
(dp2598
sg70
g2583
sg63
(lp2599
g56
(g57
g58
NtRp2600
(dp2601
g61
(dp2602
g69
I3
ssg70
g2596
sg63
(lp2603
g189
asbasbasbag56
(g72
g58
NtRp2604
(dp2605
g61
(dp2606
sg70
g2348
sg63
(lp2607
g56
(g77
g58
NtRp2608
(dp2609
g61
(dp2610
g81
g82
ssg70
g2604
sg63
(lp2611
S'REMOTE_PORT'
p2612
asbag56
(g77
g58
NtRp2613
(dp2614
g61
(dp2615
g88
g89
ssg70
g2604
sg63
(lp2616
S':'
asbag56
(g77
g58
NtRp2617
(dp2618
g61
(dp2619
sg70
g2604
sg63
(lp2620
g56
(g57
g58
NtRp2621
(dp2622
g61
(dp2623
g69
I3
ssg70
g2617
sg63
(lp2624
g1634
asbasbasbag56
(g72
g58
NtRp2625
(dp2626
g61
(dp2627
sg70
g2348
sg63
(lp2628
g56
(g77
g58
NtRp2629
(dp2630
g61
(dp2631
g81
g82
ssg70
g2625
sg63
(lp2632
S'REQUEST_METHOD'
p2633
asbag56
(g77
g58
NtRp2634
(dp2635
g61
(dp2636
g88
g89
ssg70
g2625
sg63
(lp2637
S':'
asbag56
(g77
g58
NtRp2638
(dp2639
g61
(dp2640
sg70
g2625
sg63
(lp2641
g56
(g57
g58
NtRp2642
(dp2643
g61
(dp2644
g69
I3
ssg70
g2638
sg63
(lp2645
g1656
asbasbasbag56
(g72
g58
NtRp2646
(dp2647
g61
(dp2648
sg70
g2348
sg63
(lp2649
g56
(g77
g58
NtRp2650
(dp2651
g61
(dp2652
g81
g82
ssg70
g2646
sg63
(lp2653
S'SCRIPT_NAME'
p2654
asbag56
(g77
g58
NtRp2655
(dp2656
g61
(dp2657
g88
g89
ssg70
g2646
sg63
(lp2658
S':'
asbag56
(g77
g58
NtRp2659
(dp2660
g61
(dp2661
sg70
g2646
sg63
(lp2662
g56
(g57
g58
NtRp2663
(dp2664
g61
(dp2665
g69
I3
ssg70
g2659
sg63
(lp2666
S''
asbasbasbag56
(g72
g58
NtRp2667
(dp2668
g61
(dp2669
sg70
g2348
sg63
(lp2670
g56
(g77
g58
NtRp2671
(dp2672
g61
(dp2673
g81
g82
ssg70
g2667
sg63
(lp2674
S'SERVER_NAME'
p2675
asbag56
(g77
g58
NtRp2676
(dp2677
g61
(dp2678
g88
g89
ssg70
g2667
sg63
(lp2679
S':'
asbag56
(g77
g58
NtRp2680
(dp2681
g61
(dp2682
sg70
g2667
sg63
(lp2683
g56
(g57
g58
NtRp2684
(dp2685
g61
(dp2686
g69
I3
ssg70
g2680
sg63
(lp2687
g1699
asbasbasbag56
(g72
g58
NtRp2688
(dp2689
g61
(dp2690
sg70
g2348
sg63
(lp2691
g56
(g77
g58
NtRp2692
(dp2693
g61
(dp2694
g81
g82
ssg70
g2688
sg63
(lp2695
S'SERVER_PORT'
p2696
asbag56
(g77
g58
NtRp2697
(dp2698
g61
(dp2699
g88
g89
ssg70
g2688
sg63
(lp2700
S':'
asbag56
(g77
g58
NtRp2701
(dp2702
g61
(dp2703
sg70
g2688
sg63
(lp2704
g56
(g57
g58
NtRp2705
(dp2706
g61
(dp2707
g69
I3
ssg70
g2701
sg63
(lp2708
g1721
asbasbasbag56
(g72
g58
NtRp2709
(dp2710
g61
(dp2711
sg70
g2348
sg63
(lp2712
g56
(g77
g58
NtRp2713
(dp2714
g61
(dp2715
g81
g82
ssg70
g2709
sg63
(lp2716
S'SERVER_PROTOCOL'
p2717
asbag56
(g77
g58
NtRp2718
(dp2719
g61
(dp2720
g88
g89
ssg70
g2709
sg63
(lp2721
S':'
asbag56
(g77
g58
NtRp2722
(dp2723
g61
(dp2724
sg70
g2709
sg63
(lp2725
g56
(g57
g58
NtRp2726
(dp2727
g61
(dp2728
g69
I3
ssg70
g2722
sg63
(lp2729
g1743
asbasbasbag56
(g72
g58
NtRp2730
(dp2731
g61
(dp2732
sg70
g2348
sg63
(lp2733
g56
(g77
g58
NtRp2734
(dp2735
g61
(dp2736
g81
g82
ssg70
g2730
sg63
(lp2737
S'SERVER_SOFTWARE'
p2738
asbag56
(g77
g58
NtRp2739
(dp2740
g61
(dp2741
g88
g89
ssg70
g2730
sg63
(lp2742
S':'
asbag56
(g77
g58
NtRp2743
(dp2744
g61
(dp2745
sg70
g2730
sg63
(lp2746
g56
(g57
g58
NtRp2747
(dp2748
g61
(dp2749
g69
I3
ssg70
g2743
sg63
(lp2750
g1765
asbasbasbag56
(g72
g58
NtRp2751
(dp2752
g61
(dp2753
sg70
g2348
sg63
(lp2754
g56
(g77
g58
NtRp2755
(dp2756
g61
(dp2757
g81
g82
ssg70
g2751
sg63
(lp2758
S'wsgi.errors'
p2759
asbag56
(g77
g58
NtRp2760
(dp2761
g61
(dp2762
g88
g89
ssg70
g2751
sg63
(lp2763
S':'
asbag56
(g77
g58
NtRp2764
(dp2765
g61
(dp2766
sg70
g2751
sg63
(lp2767
g56
(g57
g58
NtRp2768
(dp2769
g61
(dp2770
g69
I3
ssg70
g2764
sg63
(lp2771
S"<open file '<stderr>', mode 'w' at 0xb77f60d0>"
p2772
asbasbasbag56
(g72
g58
NtRp2773
(dp2774
g61
(dp2775
sg70
g2348
sg63
(lp2776
g56
(g77
g58
NtRp2777
(dp2778
g61
(dp2779
g81
g82
ssg70
g2773
sg63
(lp2780
S'wsgi.file_wrapper'
p2781
asbag56
(g77
g58
NtRp2782
(dp2783
g61
(dp2784
g88
g89
ssg70
g2773
sg63
(lp2785
S':'
asbag56
(g77
g58
NtRp2786
(dp2787
g61
(dp2788
sg70
g2773
sg63
(lp2789
g56
(g57
g58
NtRp2790
(dp2791
g61
(dp2792
g69
I3
ssg70
g2786
sg63
(lp2793
S'<class gluon.rocket.FileWrapper at 0x8ea1e3c>'
p2794
asbasbasbag56
(g72
g58
NtRp2795
(dp2796
g61
(dp2797
sg70
g2348
sg63
(lp2798
g56
(g77
g58
NtRp2799
(dp2800
g61
(dp2801
g81
g82
ssg70
g2795
sg63
(lp2802
S'wsgi.input'
p2803
asbag56
(g77
g58
NtRp2804
(dp2805
g61
(dp2806
g88
g89
ssg70
g2795
sg63
(lp2807
S':'
asbag56
(g77
g58
NtRp2808
(dp2809
g61
(dp2810
sg70
g2795
sg63
(lp2811
g56
(g57
g58
NtRp2812
(dp2813
g61
(dp2814
g69
I3
ssg70
g2808
sg63
(lp2815
S'<cStringIO.StringO object at 0x9c6e0c0>'
p2816
asbasbasbag56
(g72
g58
NtRp2817
(dp2818
g61
(dp2819
sg70
g2348
sg63
(lp2820
g56
(g77
g58
NtRp2821
(dp2822
g61
(dp2823
g81
g82
ssg70
g2817
sg63
(lp2824
S'wsgi.multiprocess'
p2825
asbag56
(g77
g58
NtRp2826
(dp2827
g61
(dp2828
g88
g89
ssg70
g2817
sg63
(lp2829
S':'
asbag56
(g77
g58
NtRp2830
(dp2831
g61
(dp2832
sg70
g2817
sg63
(lp2833
g56
(g57
g58
NtRp2834
(dp2835
g61
(dp2836
g69
I3
ssg70
g2830
sg63
(lp2837
g99
asbasbasbag56
(g72
g58
NtRp2838
(dp2839
g61
(dp2840
sg70
g2348
sg63
(lp2841
g56
(g77
g58
NtRp2842
(dp2843
g61
(dp2844
g81
g82
ssg70
g2838
sg63
(lp2845
S'wsgi.multithread'
p2846
asbag56
(g77
g58
NtRp2847
(dp2848
g61
(dp2849
g88
g89
ssg70
g2838
sg63
(lp2850
S':'
asbag56
(g77
g58
NtRp2851
(dp2852
g61
(dp2853
sg70
g2838
sg63
(lp2854
g56
(g57
g58
NtRp2855
(dp2856
g61
(dp2857
g69
I3
ssg70
g2851
sg63
(lp2858
g1939
asbasbasbag56
(g72
g58
NtRp2859
(dp2860
g61
(dp2861
sg70
g2348
sg63
(lp2862
g56
(g77
g58
NtRp2863
(dp2864
g61
(dp2865
g81
g82
ssg70
g2859
sg63
(lp2866
S'wsgi.run_once'
p2867
asbag56
(g77
g58
NtRp2868
(dp2869
g61
(dp2870
g88
g89
ssg70
g2859
sg63
(lp2871
S':'
asbag56
(g77
g58
NtRp2872
(dp2873
g61
(dp2874
sg70
g2859
sg63
(lp2875
g56
(g57
g58
NtRp2876
(dp2877
g61
(dp2878
g69
I3
ssg70
g2872
sg63
(lp2879
g99
asbasbasbag56
(g72
g58
NtRp2880
(dp2881
g61
(dp2882
sg70
g2348
sg63
(lp2883
g56
(g77
g58
NtRp2884
(dp2885
g61
(dp2886
g81
g82
ssg70
g2880
sg63
(lp2887
S'wsgi.url_scheme'
p2888
asbag56
(g77
g58
NtRp2889
(dp2890
g61
(dp2891
g88
g89
ssg70
g2880
sg63
(lp2892
S':'
asbag56
(g77
g58
NtRp2893
(dp2894
g61
(dp2895
sg70
g2880
sg63
(lp2896
g56
(g57
g58
NtRp2897
(dp2898
g61
(dp2899
g69
I3
ssg70
g2893
sg63
(lp2900
g1982
asbasbasbag56
(g72
g58
NtRp2901
(dp2902
g61
(dp2903
sg70
g2348
sg63
(lp2904
g56
(g77
g58
NtRp2905
(dp2906
g61
(dp2907
g81
g82
ssg70
g2901
sg63
(lp2908
S'wsgi.version'
p2909
asbag56
(g77
g58
NtRp2910
(dp2911
g61
(dp2912
g88
g89
ssg70
g2901
sg63
(lp2913
S':'
asbag56
(g77
g58
NtRp2914
(dp2915
g61
(dp2916
sg70
g2901
sg63
(lp2917
g56
(g57
g58
NtRp2918
(dp2919
g61
(dp2920
g69
I3
ssg70
g2914
sg63
(lp2921
S'1'
asbasbasbasbasbasbasbasbasbasbasbasbasbsS'frames'
p2922
(lp2923
(dp2924
S'file'
p2925
S'/home/alumno/web2py/gluon/restricted.py'
p2926
sS'dump'
p2927
(dp2928
S'environment'
p2929
S"{'A': <class 'gluon.html.A'>, 'B': <class 'gluon.html.B'>, 'BEAUTIFY': <class 'gluon.html.BEAUTIFY'>, 'BODY': <class 'gluon.html.BODY'>, 'BR': <class 'gluon.html.BR'>, 'CENTER': <class 'gluon.html.CENTER'>, 'CLEANUP': <class 'gluon.validators.CLEANUP'>, 'CODE': <class 'gluon.html.CODE'>, 'CRYPT': <class 'gluon.validators.CRYPT'>, 'DAL': <class 'gluon.dal.DAL'>, ...}"
p2930
sS'ccode'
p2931
S'<code object <module> at 0x98adde8, file "/home/...ications/datos/views/default/index.html", line 1>'
p2932
ssS'lnum'
p2933
I192
sS'lines'
p2934
(dp2935
I192
S'        exec ccode in environment'
p2936
sI193
S'    except HTTP:'
p2937
sI194
S'        raise'
p2938
sI195
S'    except Exception:'
p2939
sI196
S'        # XXX Show exception in Wing IDE if running in debugger'
p2940
sI187
S'    try:'
p2941
sI188
S'        if type(code) == types.CodeType:'
p2942
sI189
S'            ccode = code'
p2943
sI190
S'        else:'
p2944
sI191
S'            ccode = compile2(code,layer)'
p2945
ssS'call'
p2946
S'(code=\'response.write(\\\'<!DOCTYPE html>\\\\n<html lang="\\\', ...t   -->    \\\\n  </body>\\\\n</html>\\\\n\\\', escape=False)\', environment={\'A\': <class \'gluon.html.A\'>, \'B\': <class \'gluon.html.B\'>, \'BEAUTIFY\': <class \'gluon.html.BEAUTIFY\'>, \'BODY\': <class \'gluon.html.BODY\'>, \'BR\': <class \'gluon.html.BR\'>, \'CENTER\': <class \'gluon.html.CENTER\'>, \'CLEANUP\': <class \'gluon.validators.CLEANUP\'>, \'CODE\': <class \'gluon.html.CODE\'>, \'CRYPT\': <class \'gluon.validators.CRYPT\'>, \'DAL\': <class \'gluon.dal.DAL\'>, ...}, layer=\'/home/alumno/web2py/applications/datos/views/default/index.html\')'
p2947
sS'func'
p2948
S'restricted'
p2949
sa(dp2950
g2925
S'/home/alumno/web2py/applications/datos/views/default/index.html'
p2951
sg2927
(dp2952
sg2933
I119
sg2934
(dp2953
I128
S'if right_sidebar_enabled:'
p2954
sI129
S'    response.write(\'\\n          <div id="right_sidebar" \', escape=False)'
p2955
sI110
S"response.write('\\n</p>\\n<h1>Profesores</h1>\\n\\n<p>este es el registro de profesores en el sistema\\n\\n', escape=False)"
p2956
sI111
S'for profesor in profesores:'
p2957
sI112
S'    response.write("\\n    <ul>\\n    <li><a href=\'detalle/", escape=False)'
p2958
sI113
S'    response.write(profesor.codigo)'
p2959
sI114
S'    response.write("\'>", escape=False)'
p2960
sI115
S'    response.write(profesor.nombre_completo)'
p2961
sI116
S"    response.write('</a></li>\\n    <hr>\\n    </ul>\\n', escape=False)"
p2962
sI117
S'    pass'
p2963
sI118
S"response.write('\\n    \\n</p>\\n\\n<h1>Cursos</h1>\\n<p>este es el registro de cursos en el sistema\\n', escape=False)"
p2964
sI119
S'for curso in curso:'
p2965
sI120
S'    response.write("\\n    <ul>\\n    <li><a href=\'detalle/", escape=False)'
p2966
sI121
S'    response.write(curso.codigo)'
p2967
sI122
S'    response.write("\'>", escape=False)'
p2968
sI123
S'    response.write(curso.nombre)'
p2969
sI124
S"    response.write('</a></li>\\n    <hr>\\n    </ul>\\n', escape=False)"
p2970
sI125
S'    pass'
p2971
sI126
S"response.write('\\n</p>\\n', escape=False)"
p2972
sI127
S"response.write('\\t\\n\\t  </div>\\n\\t  <!-- content -->\\n\\n\\t  ', escape=False)"
p2973
ssg2946
S'()'
p2974
sg2948
S'<module>'
p2975
sasS'pyver'
p2976
S'Python 2.6.6: /usr/bin/python'
p2977
sS'session'
p2978
g56
(g57
g58
NtRp2979
(dp2980
g61
(dp2981
sg63
(lp2982
g56
(g65
g58
NtRp2983
(dp2984
g61
(dp2985
g69
I5
ssg70
Nsg63
(lp2986
g56
(g72
g58
NtRp2987
(dp2988
g61
(dp2989
sg70
g2983
sg63
(lp2990
g56
(g77
g58
NtRp2991
(dp2992
g61
(dp2993
g81
g82
ssg70
g2987
sg63
(lp2994
S'last_query'
p2995
asbag56
(g77
g58
NtRp2996
(dp2997
g61
(dp2998
g88
g89
ssg70
g2987
sg63
(lp2999
S':'
asbag56
(g77
g58
NtRp3000
(dp3001
g61
(dp3002
sg70
g2987
sg63
(lp3003
g56
(g57
g58
NtRp3004
(dp3005
g61
(dp3006
g69
I5
ssg70
g3000
sg63
(lp3007
S'db.alumno_curso.id>0'
p3008
asbasbasbasbasbsS'etype'
p3009
S"<type 'exceptions.NameError'>"
p3010
sS'date'
p3011
S'Sat Sep 10 18:52:36 2011'
p3012
sS'response'
p3013
g56
(g57
g58
NtRp3014
(dp3015
g61
(dp3016
sg63
(lp3017
g56
(g65
g58
NtRp3018
(dp3019
g61
(dp3020
g69
I5
ssg70
Nsg63
(lp3021
g56
(g72
g58
NtRp3022
(dp3023
g61
(dp3024
sg70
g3018
sg63
(lp3025
g56
(g77
g58
NtRp3026
(dp3027
g61
(dp3028
g81
g82
ssg70
g3022
sg63
(lp3029
g154
asbag56
(g77
g58
NtRp3030
(dp3031
g61
(dp3032
g88
g89
ssg70
g3022
sg63
(lp3033
S':'
asbag56
(g77
g58
NtRp3034
(dp3035
g61
(dp3036
sg70
g3022
sg63
(lp3037
g56
(g57
g58
NtRp3038
(dp3039
g61
(dp3040
g69
I5
ssg70
g3034
sg63
(lp3041
S'<cStringIO.StringO object at 0xa248d20>'
p3042
asbasbasbag56
(g72
g58
NtRp3043
(dp3044
g61
(dp3045
sg70
g3018
sg63
(lp3046
g56
(g77
g58
NtRp3047
(dp3048
g61
(dp3049
g81
g82
ssg70
g3043
sg63
(lp3050
g220
asbag56
(g77
g58
NtRp3051
(dp3052
g61
(dp3053
g88
g89
ssg70
g3043
sg63
(lp3054
S':'
asbag56
(g77
g58
NtRp3055
(dp3056
g61
(dp3057
sg70
g3043
sg63
(lp3058
g56
(g57
g58
NtRp3059
(dp3060
g61
(dp3061
g69
I5
ssg70
g3055
sg63
(lp3062
g56
(g65
g58
NtRp3063
(dp3064
g61
(dp3065
g69
I4
ssg70
Nsg63
(lp3066
g56
(g72
g58
NtRp3067
(dp3068
g61
(dp3069
sg70
g3063
sg63
(lp3070
g56
(g77
g58
NtRp3071
(dp3072
g61
(dp3073
g81
g82
ssg70
g3067
sg63
(lp3074
S'session_id_datos'
p3075
asbag56
(g77
g58
NtRp3076
(dp3077
g61
(dp3078
g88
g89
ssg70
g3067
sg63
(lp3079
S':'
asbag56
(g77
g58
NtRp3080
(dp3081
g61
(dp3082
sg70
g3067
sg63
(lp3083
g56
(g57
g58
NtRp3084
(dp3085
g61
(dp3086
g69
I4
ssg70
g3080
sg63
(lp3087
g56
(g65
g58
NtRp3088
(dp3089
g61
(dp3090
g69
I3
ssg70
Nsg63
(lp3091
g56
(g72
g58
NtRp3092
(dp3093
g61
(dp3094
sg70
g3088
sg63
(lp3095
g56
(g77
g58
NtRp3096
(dp3097
g61
(dp3098
g81
g82
ssg70
g3092
sg63
(lp3099
g270
asbag56
(g77
g58
NtRp3100
(dp3101
g61
(dp3102
g88
g89
ssg70
g3092
sg63
(lp3103
S':'
asbag56
(g77
g58
NtRp3104
(dp3105
g61
(dp3106
sg70
g3092
sg63
(lp3107
g56
(g57
g58
NtRp3108
(dp3109
g61
(dp3110
g69
I3
ssg70
g3104
sg63
(lp3111
S''
asbasbasbag56
(g72
g58
NtRp3112
(dp3113
g61
(dp3114
sg70
g3088
sg63
(lp3115
g56
(g77
g58
NtRp3116
(dp3117
g61
(dp3118
g81
g82
ssg70
g3112
sg63
(lp3119
g291
asbag56
(g77
g58
NtRp3120
(dp3121
g61
(dp3122
g88
g89
ssg70
g3112
sg63
(lp3123
S':'
asbag56
(g77
g58
NtRp3124
(dp3125
g61
(dp3126
sg70
g3112
sg63
(lp3127
g56
(g57
g58
NtRp3128
(dp3129
g61
(dp3130
g69
I3
ssg70
g3124
sg63
(lp3131
S''
asbasbasbag56
(g72
g58
NtRp3132
(dp3133
g61
(dp3134
sg70
g3088
sg63
(lp3135
g56
(g77
g58
NtRp3136
(dp3137
g61
(dp3138
g81
g82
ssg70
g3132
sg63
(lp3139
g312
asbag56
(g77
g58
NtRp3140
(dp3141
g61
(dp3142
g88
g89
ssg70
g3132
sg63
(lp3143
S':'
asbag56
(g77
g58
NtRp3144
(dp3145
g61
(dp3146
sg70
g3132
sg63
(lp3147
g56
(g57
g58
NtRp3148
(dp3149
g61
(dp3150
g69
I3
ssg70
g3144
sg63
(lp3151
S''
asbasbasbag56
(g72
g58
NtRp3152
(dp3153
g61
(dp3154
sg70
g3088
sg63
(lp3155
g56
(g77
g58
NtRp3156
(dp3157
g61
(dp3158
g81
g82
ssg70
g3152
sg63
(lp3159
g333
asbag56
(g77
g58
NtRp3160
(dp3161
g61
(dp3162
g88
g89
ssg70
g3152
sg63
(lp3163
S':'
asbag56
(g77
g58
NtRp3164
(dp3165
g61
(dp3166
sg70
g3152
sg63
(lp3167
g56
(g57
g58
NtRp3168
(dp3169
g61
(dp3170
g69
I3
ssg70
g3164
sg63
(lp3171
S''
asbasbasbag56
(g72
g58
NtRp3172
(dp3173
g61
(dp3174
sg70
g3088
sg63
(lp3175
g56
(g77
g58
NtRp3176
(dp3177
g61
(dp3178
g81
g82
ssg70
g3172
sg63
(lp3179
g354
asbag56
(g77
g58
NtRp3180
(dp3181
g61
(dp3182
g88
g89
ssg70
g3172
sg63
(lp3183
S':'
asbag56
(g77
g58
NtRp3184
(dp3185
g61
(dp3186
sg70
g3172
sg63
(lp3187
g56
(g57
g58
NtRp3188
(dp3189
g61
(dp3190
g69
I3
ssg70
g3184
sg63
(lp3191
S''
asbasbasbag56
(g72
g58
NtRp3192
(dp3193
g61
(dp3194
sg70
g3088
sg63
(lp3195
g56
(g77
g58
NtRp3196
(dp3197
g61
(dp3198
g81
g82
ssg70
g3192
sg63
(lp3199
g375
asbag56
(g77
g58
NtRp3200
(dp3201
g61
(dp3202
g88
g89
ssg70
g3192
sg63
(lp3203
S':'
asbag56
(g77
g58
NtRp3204
(dp3205
g61
(dp3206
sg70
g3192
sg63
(lp3207
g56
(g57
g58
NtRp3208
(dp3209
g61
(dp3210
g69
I3
ssg70
g3204
sg63
(lp3211
S'/'
asbasbasbag56
(g72
g58
NtRp3212
(dp3213
g61
(dp3214
sg70
g3088
sg63
(lp3215
g56
(g77
g58
NtRp3216
(dp3217
g61
(dp3218
g81
g82
ssg70
g3212
sg63
(lp3219
g396
asbag56
(g77
g58
NtRp3220
(dp3221
g61
(dp3222
g88
g89
ssg70
g3212
sg63
(lp3223
S':'
asbag56
(g77
g58
NtRp3224
(dp3225
g61
(dp3226
sg70
g3212
sg63
(lp3227
g56
(g57
g58
NtRp3228
(dp3229
g61
(dp3230
g69
I3
ssg70
g3224
sg63
(lp3231
S''
asbasbasbag56
(g72
g58
NtRp3232
(dp3233
g61
(dp3234
sg70
g3088
sg63
(lp3235
g56
(g77
g58
NtRp3236
(dp3237
g61
(dp3238
g81
g82
ssg70
g3232
sg63
(lp3239
g417
asbag56
(g77
g58
NtRp3240
(dp3241
g61
(dp3242
g88
g89
ssg70
g3232
sg63
(lp3243
S':'
asbag56
(g77
g58
NtRp3244
(dp3245
g61
(dp3246
sg70
g3232
sg63
(lp3247
g56
(g57
g58
NtRp3248
(dp3249
g61
(dp3250
g69
I3
ssg70
g3244
sg63
(lp3251
S''
asbasbasbasbasbasbasbasbasbasbasbag56
(g72
g58
NtRp3252
(dp3253
g61
(dp3254
sg70
g3018
sg63
(lp3255
g56
(g77
g58
NtRp3256
(dp3257
g61
(dp3258
g81
g82
ssg70
g3252
sg63
(lp3259
S'files'
p3260
asbag56
(g77
g58
NtRp3261
(dp3262
g61
(dp3263
g88
g89
ssg70
g3252
sg63
(lp3264
S':'
asbag56
(g77
g58
NtRp3265
(dp3266
g61
(dp3267
sg70
g3252
sg63
(lp3268
g56
(g57
g58
NtRp3269
(dp3270
g61
(dp3271
g69
I5
ssg70
g3265
sg63
(lp3272
g56
(g65
g58
NtRp3273
(dp3274
g61
(dp3275
g69
I4
ssg70
Nsg63
(lp3276
g56
(g72
g58
NtRp3277
(dp3278
g61
(dp3279
sg70
g3273
sg63
(lp3280
g56
(g77
g58
NtRp3281
(dp3282
g61
(dp3283
sg70
g3277
sg63
(lp3284
g56
(g57
g58
NtRp3285
(dp3286
g61
(dp3287
g69
I4
ssg70
g3281
sg63
(lp3288
S'/datos/static/js/jquery.js'
p3289
asbasbasbag56
(g72
g58
NtRp3290
(dp3291
g61
(dp3292
sg70
g3273
sg63
(lp3293
g56
(g77
g58
NtRp3294
(dp3295
g61
(dp3296
sg70
g3290
sg63
(lp3297
g56
(g57
g58
NtRp3298
(dp3299
g61
(dp3300
g69
I4
ssg70
g3294
sg63
(lp3301
S'/datos/static/css/calendar.css'
p3302
asbasbasbag56
(g72
g58
NtRp3303
(dp3304
g61
(dp3305
sg70
g3273
sg63
(lp3306
g56
(g77
g58
NtRp3307
(dp3308
g61
(dp3309
sg70
g3303
sg63
(lp3310
g56
(g57
g58
NtRp3311
(dp3312
g61
(dp3313
g69
I4
ssg70
g3307
sg63
(lp3314
S'/datos/static/js/calendar.js'
p3315
asbasbasbag56
(g72
g58
NtRp3316
(dp3317
g61
(dp3318
sg70
g3273
sg63
(lp3319
g56
(g77
g58
NtRp3320
(dp3321
g61
(dp3322
sg70
g3316
sg63
(lp3323
g56
(g57
g58
NtRp3324
(dp3325
g61
(dp3326
g69
I4
ssg70
g3320
sg63
(lp3327
S'/datos/static/css/base.css'
p3328
asbasbasbag56
(g72
g58
NtRp3329
(dp3330
g61
(dp3331
sg70
g3273
sg63
(lp3332
g56
(g77
g58
NtRp3333
(dp3334
g61
(dp3335
sg70
g3329
sg63
(lp3336
g56
(g57
g58
NtRp3337
(dp3338
g61
(dp3339
g69
I4
ssg70
g3333
sg63
(lp3340
S'/datos/static/css/superfish.css'
p3341
asbasbasbag56
(g72
g58
NtRp3342
(dp3343
g61
(dp3344
sg70
g3273
sg63
(lp3345
g56
(g77
g58
NtRp3346
(dp3347
g61
(dp3348
sg70
g3342
sg63
(lp3349
g56
(g57
g58
NtRp3350
(dp3351
g61
(dp3352
g69
I4
ssg70
g3346
sg63
(lp3353
S'/datos/static/js/superfish.js'
p3354
asbasbasbasbasbasbasbag56
(g72
g58
NtRp3355
(dp3356
g61
(dp3357
sg70
g3018
sg63
(lp3358
g56
(g77
g58
NtRp3359
(dp3360
g61
(dp3361
g81
g82
ssg70
g3355
sg63
(lp3362
S'flash'
p3363
asbag56
(g77
g58
NtRp3364
(dp3365
g61
(dp3366
g88
g89
ssg70
g3355
sg63
(lp3367
S':'
asbag56
(g77
g58
NtRp3368
(dp3369
g61
(dp3370
sg70
g3355
sg63
(lp3371
g56
(g57
g58
NtRp3372
(dp3373
g61
(dp3374
g69
I5
ssg70
g3368
sg63
(lp3375
S''
asbasbasbag56
(g72
g58
NtRp3376
(dp3377
g61
(dp3378
sg70
g3018
sg63
(lp3379
g56
(g77
g58
NtRp3380
(dp3381
g61
(dp3382
g81
g82
ssg70
g3376
sg63
(lp3383
S'headers'
p3384
asbag56
(g77
g58
NtRp3385
(dp3386
g61
(dp3387
g88
g89
ssg70
g3376
sg63
(lp3388
S':'
asbag56
(g77
g58
NtRp3389
(dp3390
g61
(dp3391
sg70
g3376
sg63
(lp3392
g56
(g57
g58
NtRp3393
(dp3394
g61
(dp3395
g69
I5
ssg70
g3389
sg63
(lp3396
g56
(g65
g58
NtRp3397
(dp3398
g61
(dp3399
g69
I4
ssg70
Nsg63
(lp3400
g56
(g72
g58
NtRp3401
(dp3402
g61
(dp3403
sg70
g3397
sg63
(lp3404
g56
(g77
g58
NtRp3405
(dp3406
g61
(dp3407
g81
g82
ssg70
g3401
sg63
(lp3408
S'Cache-Control'
p3409
asbag56
(g77
g58
NtRp3410
(dp3411
g61
(dp3412
g88
g89
ssg70
g3401
sg63
(lp3413
S':'
asbag56
(g77
g58
NtRp3414
(dp3415
g61
(dp3416
sg70
g3401
sg63
(lp3417
g56
(g57
g58
NtRp3418
(dp3419
g61
(dp3420
g69
I4
ssg70
g3414
sg63
(lp3421
S'no-store, no-cache, must-revalidate, post-check=0, pre-check=0'
p3422
asbasbasbag56
(g72
g58
NtRp3423
(dp3424
g61
(dp3425
sg70
g3397
sg63
(lp3426
g56
(g77
g58
NtRp3427
(dp3428
g61
(dp3429
g81
g82
ssg70
g3423
sg63
(lp3430
S'Content-Type'
p3431
asbag56
(g77
g58
NtRp3432
(dp3433
g61
(dp3434
g88
g89
ssg70
g3423
sg63
(lp3435
S':'
asbag56
(g77
g58
NtRp3436
(dp3437
g61
(dp3438
sg70
g3423
sg63
(lp3439
g56
(g57
g58
NtRp3440
(dp3441
g61
(dp3442
g69
I4
ssg70
g3436
sg63
(lp3443
S'text/html; charset=utf-8'
p3444
asbasbasbag56
(g72
g58
NtRp3445
(dp3446
g61
(dp3447
sg70
g3397
sg63
(lp3448
g56
(g77
g58
NtRp3449
(dp3450
g61
(dp3451
g81
g82
ssg70
g3445
sg63
(lp3452
S'Expires'
p3453
asbag56
(g77
g58
NtRp3454
(dp3455
g61
(dp3456
g88
g89
ssg70
g3445
sg63
(lp3457
S':'
asbag56
(g77
g58
NtRp3458
(dp3459
g61
(dp3460
sg70
g3445
sg63
(lp3461
g56
(g57
g58
NtRp3462
(dp3463
g61
(dp3464
g69
I4
ssg70
g3458
sg63
(lp3465
S'Sat, 10 Sep 2011 23:52:36 GMT'
p3466
asbasbasbag56
(g72
g58
NtRp3467
(dp3468
g61
(dp3469
sg70
g3397
sg63
(lp3470
g56
(g77
g58
NtRp3471
(dp3472
g61
(dp3473
g81
g82
ssg70
g3467
sg63
(lp3474
S'Pragma'
p3475
asbag56
(g77
g58
NtRp3476
(dp3477
g61
(dp3478
g88
g89
ssg70
g3467
sg63
(lp3479
S':'
asbag56
(g77
g58
NtRp3480
(dp3481
g61
(dp3482
sg70
g3467
sg63
(lp3483
g56
(g57
g58
NtRp3484
(dp3485
g61
(dp3486
g69
I4
ssg70
g3480
sg63
(lp3487
S'no-cache'
p3488
asbasbasbag56
(g72
g58
NtRp3489
(dp3490
g61
(dp3491
sg70
g3397
sg63
(lp3492
g56
(g77
g58
NtRp3493
(dp3494
g61
(dp3495
g81
g82
ssg70
g3489
sg63
(lp3496
S'X-Powered-By'
p3497
asbag56
(g77
g58
NtRp3498
(dp3499
g61
(dp3500
g88
g89
ssg70
g3489
sg63
(lp3501
S':'
asbag56
(g77
g58
NtRp3502
(dp3503
g61
(dp3504
sg70
g3489
sg63
(lp3505
g56
(g57
g58
NtRp3506
(dp3507
g61
(dp3508
g69
I4
ssg70
g3502
sg63
(lp3509
S'web2py'
p3510
asbasbasbasbasbasbasbag56
(g72
g58
NtRp3511
(dp3512
g61
(dp3513
sg70
g3018
sg63
(lp3514
g56
(g77
g58
NtRp3515
(dp3516
g61
(dp3517
g81
g82
ssg70
g3511
sg63
(lp3518
S'menu'
p3519
asbag56
(g77
g58
NtRp3520
(dp3521
g61
(dp3522
g88
g89
ssg70
g3511
sg63
(lp3523
S':'
asbag56
(g77
g58
NtRp3524
(dp3525
g61
(dp3526
sg70
g3511
sg63
(lp3527
g56
(g57
g58
NtRp3528
(dp3529
g61
(dp3530
g69
I5
ssg70
g3524
sg63
(lp3531
g56
(g65
g58
NtRp3532
(dp3533
g61
(dp3534
g69
I4
ssg70
Nsg63
(lp3535
g56
(g72
g58
NtRp3536
(dp3537
g61
(dp3538
sg70
g3532
sg63
(lp3539
g56
(g77
g58
NtRp3540
(dp3541
g61
(dp3542
sg70
g3536
sg63
(lp3543
g56
(g57
g58
NtRp3544
(dp3545
g61
(dp3546
g69
I4
ssg70
g3540
sg63
(lp3547
g56
(g65
g58
NtRp3548
(dp3549
g61
(dp3550
g69
I3
ssg70
Nsg63
(lp3551
g56
(g72
g58
NtRp3552
(dp3553
g61
(dp3554
sg70
g3548
sg63
(lp3555
g56
(g77
g58
NtRp3556
(dp3557
g61
(dp3558
sg70
g3552
sg63
(lp3559
g56
(g57
g58
NtRp3560
(dp3561
g61
(dp3562
g69
I3
ssg70
g3556
sg63
(lp3563
cgluon.languages
lazyT_unpickle
p3564
(S's\x04\x00\x00\x00Home'
tRp3565
asbasbasbag56
(g72
g58
NtRp3566
(dp3567
g61
(dp3568
sg70
g3548
sg63
(lp3569
g56
(g77
g58
NtRp3570
(dp3571
g61
(dp3572
sg70
g3566
sg63
(lp3573
g56
(g57
g58
NtRp3574
(dp3575
g61
(dp3576
g69
I3
ssg70
g3570
sg63
(lp3577
g99
asbasbasbag56
(g72
g58
NtRp3578
(dp3579
g61
(dp3580
sg70
g3548
sg63
(lp3581
g56
(g77
g58
NtRp3582
(dp3583
g61
(dp3584
sg70
g3578
sg63
(lp3585
g56
(g57
g58
NtRp3586
(dp3587
g61
(dp3588
g69
I3
ssg70
g3582
sg63
(lp3589
S'/datos/default/index'
p3590
asbasbasbag56
(g72
g58
NtRp3591
(dp3592
g61
(dp3593
sg70
g3548
sg63
(lp3594
g56
(g77
g58
NtRp3595
(dp3596
g61
(dp3597
sg70
g3591
sg63
(lp3598
g56
(g57
g58
NtRp3599
(dp3600
g61
(dp3601
g69
I3
ssg70
g3595
sg63
(lp3602
g56
(g65
g58
NtRp3603
(dp3604
g61
(dp3605
g69
I2
ssg70
Nsg63
(lp3606
sbasbasbasbasbasbasbasbag56
(g72
g58
NtRp3607
(dp3608
g61
(dp3609
sg70
g3532
sg63
(lp3610
g56
(g77
g58
NtRp3611
(dp3612
g61
(dp3613
sg70
g3607
sg63
(lp3614
g56
(g57
g58
NtRp3615
(dp3616
g61
(dp3617
g69
I4
ssg70
g3611
sg63
(lp3618
g56
(g65
g58
NtRp3619
(dp3620
g61
(dp3621
g69
I3
ssg70
Nsg63
(lp3622
g56
(g72
g58
NtRp3623
(dp3624
g61
(dp3625
sg70
g3619
sg63
(lp3626
g56
(g77
g58
NtRp3627
(dp3628
g61
(dp3629
sg70
g3623
sg63
(lp3630
g56
(g57
g58
NtRp3631
(dp3632
g61
(dp3633
g69
I3
ssg70
g3627
sg63
(lp3634
g3564
(S's\x08\x00\x00\x00This App'
tRp3635
asbasbasbag56
(g72
g58
NtRp3636
(dp3637
g61
(dp3638
sg70
g3619
sg63
(lp3639
g56
(g77
g58
NtRp3640
(dp3641
g61
(dp3642
sg70
g3636
sg63
(lp3643
g56
(g57
g58
NtRp3644
(dp3645
g61
(dp3646
g69
I3
ssg70
g3640
sg63
(lp3647
g99
asbasbasbag56
(g72
g58
NtRp3648
(dp3649
g61
(dp3650
sg70
g3619
sg63
(lp3651
g56
(g77
g58
NtRp3652
(dp3653
g61
(dp3654
sg70
g3648
sg63
(lp3655
g56
(g57
g58
NtRp3656
(dp3657
g61
(dp3658
g69
I3
ssg70
g3652
sg63
(lp3659
S'/admin/default/design/datos'
p3660
asbasbasbag56
(g72
g58
NtRp3661
(dp3662
g61
(dp3663
sg70
g3619
sg63
(lp3664
g56
(g77
g58
NtRp3665
(dp3666
g61
(dp3667
sg70
g3661
sg63
(lp3668
g56
(g57
g58
NtRp3669
(dp3670
g61
(dp3671
g69
I3
ssg70
g3665
sg63
(lp3672
g56
(g65
g58
NtRp3673
(dp3674
g61
(dp3675
g69
I2
ssg70
Nsg63
(lp3676
g56
(g72
g58
NtRp3677
(dp3678
g61
(dp3679
sg70
g3673
sg63
(lp3680
g56
(g77
g58
NtRp3681
(dp3682
g61
(dp3683
sg70
g3677
sg63
(lp3684
g56
(g57
g58
NtRp3685
(dp3686
g61
(dp3687
g69
I2
ssg70
g3681
sg63
(lp3688
g56
(g65
g58
NtRp3689
(dp3690
g61
(dp3691
g69
I1
ssg70
Nsg63
(lp3692
g56
(g72
g58
NtRp3693
(dp3694
g61
(dp3695
sg70
g3689
sg63
(lp3696
g56
(g77
g58
NtRp3697
(dp3698
g61
(dp3699
sg70
g3693
sg63
(lp3700
g56
(g57
g58
NtRp3701
(dp3702
g61
(dp3703
g69
I1
ssg70
g3697
sg63
(lp3704
g3564
(S's\n\x00\x00\x00Controller'
tRp3705
asbasbasbag56
(g72
g58
NtRp3706
(dp3707
g61
(dp3708
sg70
g3689
sg63
(lp3709
g56
(g77
g58
NtRp3710
(dp3711
g61
(dp3712
sg70
g3706
sg63
(lp3713
g56
(g57
g58
NtRp3714
(dp3715
g61
(dp3716
g69
I1
ssg70
g3710
sg63
(lp3717
I00
asbasbasbag56
(g72
g58
NtRp3718
(dp3719
g61
(dp3720
sg70
g3689
sg63
(lp3721
g56
(g77
g58
NtRp3722
(dp3723
g61
(dp3724
sg70
g3718
sg63
(lp3725
g56
(g57
g58
NtRp3726
(dp3727
g61
(dp3728
g69
I1
ssg70
g3722
sg63
(lp3729
S'/admin/default/edit/datos/controllers/default.py'
p3730
asbasbasbasbasbasbasbag56
(g72
g58
NtRp3731
(dp3732
g61
(dp3733
sg70
g3673
sg63
(lp3734
g56
(g77
g58
NtRp3735
(dp3736
g61
(dp3737
sg70
g3731
sg63
(lp3738
g56
(g57
g58
NtRp3739
(dp3740
g61
(dp3741
g69
I2
ssg70
g3735
sg63
(lp3742
g56
(g65
g58
NtRp3743
(dp3744
g61
(dp3745
g69
I1
ssg70
Nsg63
(lp3746
g56
(g72
g58
NtRp3747
(dp3748
g61
(dp3749
sg70
g3743
sg63
(lp3750
g56
(g77
g58
NtRp3751
(dp3752
g61
(dp3753
sg70
g3747
sg63
(lp3754
g56
(g57
g58
NtRp3755
(dp3756
g61
(dp3757
g69
I1
ssg70
g3751
sg63
(lp3758
g3564
(S's\x04\x00\x00\x00View'
tRp3759
asbasbasbag56
(g72
g58
NtRp3760
(dp3761
g61
(dp3762
sg70
g3743
sg63
(lp3763
g56
(g77
g58
NtRp3764
(dp3765
g61
(dp3766
sg70
g3760
sg63
(lp3767
g56
(g57
g58
NtRp3768
(dp3769
g61
(dp3770
g69
I1
ssg70
g3764
sg63
(lp3771
I00
asbasbasbag56
(g72
g58
NtRp3772
(dp3773
g61
(dp3774
sg70
g3743
sg63
(lp3775
g56
(g77
g58
NtRp3776
(dp3777
g61
(dp3778
sg70
g3772
sg63
(lp3779
g56
(g57
g58
NtRp3780
(dp3781
g61
(dp3782
g69
I1
ssg70
g3776
sg63
(lp3783
S'/admin/default/edit/datos/views/default/index.html'
p3784
asbasbasbasbasbasbasbag56
(g72
g58
NtRp3785
(dp3786
g61
(dp3787
sg70
g3673
sg63
(lp3788
g56
(g77
g58
NtRp3789
(dp3790
g61
(dp3791
sg70
g3785
sg63
(lp3792
g56
(g57
g58
NtRp3793
(dp3794
g61
(dp3795
g69
I2
ssg70
g3789
sg63
(lp3796
g56
(g65
g58
NtRp3797
(dp3798
g61
(dp3799
g69
I1
ssg70
Nsg63
(lp3800
g56
(g72
g58
NtRp3801
(dp3802
g61
(dp3803
sg70
g3797
sg63
(lp3804
g56
(g77
g58
NtRp3805
(dp3806
g61
(dp3807
sg70
g3801
sg63
(lp3808
g56
(g57
g58
NtRp3809
(dp3810
g61
(dp3811
g69
I1
ssg70
g3805
sg63
(lp3812
g3564
(S's\x06\x00\x00\x00Layout'
tRp3813
asbasbasbag56
(g72
g58
NtRp3814
(dp3815
g61
(dp3816
sg70
g3797
sg63
(lp3817
g56
(g77
g58
NtRp3818
(dp3819
g61
(dp3820
sg70
g3814
sg63
(lp3821
g56
(g57
g58
NtRp3822
(dp3823
g61
(dp3824
g69
I1
ssg70
g3818
sg63
(lp3825
I00
asbasbasbag56
(g72
g58
NtRp3826
(dp3827
g61
(dp3828
sg70
g3797
sg63
(lp3829
g56
(g77
g58
NtRp3830
(dp3831
g61
(dp3832
sg70
g3826
sg63
(lp3833
g56
(g57
g58
NtRp3834
(dp3835
g61
(dp3836
g69
I1
ssg70
g3830
sg63
(lp3837
S'/admin/default/edit/datos/views/layout.html'
p3838
asbasbasbasbasbasbasbag56
(g72
g58
NtRp3839
(dp3840
g61
(dp3841
sg70
g3673
sg63
(lp3842
g56
(g77
g58
NtRp3843
(dp3844
g61
(dp3845
sg70
g3839
sg63
(lp3846
g56
(g57
g58
NtRp3847
(dp3848
g61
(dp3849
g69
I2
ssg70
g3843
sg63
(lp3850
g56
(g65
g58
NtRp3851
(dp3852
g61
(dp3853
g69
I1
ssg70
Nsg63
(lp3854
g56
(g72
g58
NtRp3855
(dp3856
g61
(dp3857
sg70
g3851
sg63
(lp3858
g56
(g77
g58
NtRp3859
(dp3860
g61
(dp3861
sg70
g3855
sg63
(lp3862
g56
(g57
g58
NtRp3863
(dp3864
g61
(dp3865
g69
I1
ssg70
g3859
sg63
(lp3866
g3564
(S's\n\x00\x00\x00Stylesheet'
tRp3867
asbasbasbag56
(g72
g58
NtRp3868
(dp3869
g61
(dp3870
sg70
g3851
sg63
(lp3871
g56
(g77
g58
NtRp3872
(dp3873
g61
(dp3874
sg70
g3868
sg63
(lp3875
g56
(g57
g58
NtRp3876
(dp3877
g61
(dp3878
g69
I1
ssg70
g3872
sg63
(lp3879
I00
asbasbasbag56
(g72
g58
NtRp3880
(dp3881
g61
(dp3882
sg70
g3851
sg63
(lp3883
g56
(g77
g58
NtRp3884
(dp3885
g61
(dp3886
sg70
g3880
sg63
(lp3887
g56
(g57
g58
NtRp3888
(dp3889
g61
(dp3890
g69
I1
ssg70
g3884
sg63
(lp3891
S'/admin/default/edit/datos/static/base.css'
p3892
asbasbasbasbasbasbasbag56
(g72
g58
NtRp3893
(dp3894
g61
(dp3895
sg70
g3673
sg63
(lp3896
g56
(g77
g58
NtRp3897
(dp3898
g61
(dp3899
sg70
g3893
sg63
(lp3900
g56
(g57
g58
NtRp3901
(dp3902
g61
(dp3903
g69
I2
ssg70
g3897
sg63
(lp3904
g56
(g65
g58
NtRp3905
(dp3906
g61
(dp3907
g69
I1
ssg70
Nsg63
(lp3908
g56
(g72
g58
NtRp3909
(dp3910
g61
(dp3911
sg70
g3905
sg63
(lp3912
g56
(g77
g58
NtRp3913
(dp3914
g61
(dp3915
sg70
g3909
sg63
(lp3916
g56
(g57
g58
NtRp3917
(dp3918
g61
(dp3919
g69
I1
ssg70
g3913
sg63
(lp3920
g3564
(S's\x08\x00\x00\x00DB Model'
tRp3921
asbasbasbag56
(g72
g58
NtRp3922
(dp3923
g61
(dp3924
sg70
g3905
sg63
(lp3925
g56
(g77
g58
NtRp3926
(dp3927
g61
(dp3928
sg70
g3922
sg63
(lp3929
g56
(g57
g58
NtRp3930
(dp3931
g61
(dp3932
g69
I1
ssg70
g3926
sg63
(lp3933
I00
asbasbasbag56
(g72
g58
NtRp3934
(dp3935
g61
(dp3936
sg70
g3905
sg63
(lp3937
g56
(g77
g58
NtRp3938
(dp3939
g61
(dp3940
sg70
g3934
sg63
(lp3941
g56
(g57
g58
NtRp3942
(dp3943
g61
(dp3944
g69
I1
ssg70
g3938
sg63
(lp3945
S'/admin/default/edit/datos/models/db.py'
p3946
asbasbasbasbasbasbasbag56
(g72
g58
NtRp3947
(dp3948
g61
(dp3949
sg70
g3673
sg63
(lp3950
g56
(g77
g58
NtRp3951
(dp3952
g61
(dp3953
sg70
g3947
sg63
(lp3954
g56
(g57
g58
NtRp3955
(dp3956
g61
(dp3957
g69
I2
ssg70
g3951
sg63
(lp3958
g56
(g65
g58
NtRp3959
(dp3960
g61
(dp3961
g69
I1
ssg70
Nsg63
(lp3962
g56
(g72
g58
NtRp3963
(dp3964
g61
(dp3965
sg70
g3959
sg63
(lp3966
g56
(g77
g58
NtRp3967
(dp3968
g61
(dp3969
sg70
g3963
sg63
(lp3970
g56
(g57
g58
NtRp3971
(dp3972
g61
(dp3973
g69
I1
ssg70
g3967
sg63
(lp3974
g3564
(S's\n\x00\x00\x00Menu Model'
tRp3975
asbasbasbag56
(g72
g58
NtRp3976
(dp3977
g61
(dp3978
sg70
g3959
sg63
(lp3979
g56
(g77
g58
NtRp3980
(dp3981
g61
(dp3982
sg70
g3976
sg63
(lp3983
g56
(g57
g58
NtRp3984
(dp3985
g61
(dp3986
g69
I1
ssg70
g3980
sg63
(lp3987
I00
asbasbasbag56
(g72
g58
NtRp3988
(dp3989
g61
(dp3990
sg70
g3959
sg63
(lp3991
g56
(g77
g58
NtRp3992
(dp3993
g61
(dp3994
sg70
g3988
sg63
(lp3995
g56
(g57
g58
NtRp3996
(dp3997
g61
(dp3998
g69
I1
ssg70
g3992
sg63
(lp3999
S'/admin/default/edit/datos/models/menu.py'
p4000
asbasbasbasbasbasbasbag56
(g72
g58
NtRp4001
(dp4002
g61
(dp4003
sg70
g3673
sg63
(lp4004
g56
(g77
g58
NtRp4005
(dp4006
g61
(dp4007
sg70
g4001
sg63
(lp4008
g56
(g57
g58
NtRp4009
(dp4010
g61
(dp4011
g69
I2
ssg70
g4005
sg63
(lp4012
g56
(g65
g58
NtRp4013
(dp4014
g61
(dp4015
g69
I1
ssg70
Nsg63
(lp4016
g56
(g72
g58
NtRp4017
(dp4018
g61
(dp4019
sg70
g4013
sg63
(lp4020
g56
(g77
g58
NtRp4021
(dp4022
g61
(dp4023
sg70
g4017
sg63
(lp4024
g56
(g57
g58
NtRp4025
(dp4026
g61
(dp4027
g69
I1
ssg70
g4021
sg63
(lp4028
g3564
(S's\x08\x00\x00\x00Database'
tRp4029
asbasbasbag56
(g72
g58
NtRp4030
(dp4031
g61
(dp4032
sg70
g4013
sg63
(lp4033
g56
(g77
g58
NtRp4034
(dp4035
g61
(dp4036
sg70
g4030
sg63
(lp4037
g56
(g57
g58
NtRp4038
(dp4039
g61
(dp4040
g69
I1
ssg70
g4034
sg63
(lp4041
I00
asbasbasbag56
(g72
g58
NtRp4042
(dp4043
g61
(dp4044
sg70
g4013
sg63
(lp4045
g56
(g77
g58
NtRp4046
(dp4047
g61
(dp4048
sg70
g4042
sg63
(lp4049
g56
(g57
g58
NtRp4050
(dp4051
g61
(dp4052
g69
I1
ssg70
g4046
sg63
(lp4053
S'/datos/appadmin/index'
p4054
asbasbasbasbasbasbasbag56
(g72
g58
NtRp4055
(dp4056
g61
(dp4057
sg70
g3673
sg63
(lp4058
g56
(g77
g58
NtRp4059
(dp4060
g61
(dp4061
sg70
g4055
sg63
(lp4062
g56
(g57
g58
NtRp4063
(dp4064
g61
(dp4065
g69
I2
ssg70
g4059
sg63
(lp4066
g56
(g65
g58
NtRp4067
(dp4068
g61
(dp4069
g69
I1
ssg70
Nsg63
(lp4070
g56
(g72
g58
NtRp4071
(dp4072
g61
(dp4073
sg70
g4067
sg63
(lp4074
g56
(g77
g58
NtRp4075
(dp4076
g61
(dp4077
sg70
g4071
sg63
(lp4078
g56
(g57
g58
NtRp4079
(dp4080
g61
(dp4081
g69
I1
ssg70
g4075
sg63
(lp4082
g3564
(S's\x06\x00\x00\x00Errors'
tRp4083
asbasbasbag56
(g72
g58
NtRp4084
(dp4085
g61
(dp4086
sg70
g4067
sg63
(lp4087
g56
(g77
g58
NtRp4088
(dp4089
g61
(dp4090
sg70
g4084
sg63
(lp4091
g56
(g57
g58
NtRp4092
(dp4093
g61
(dp4094
g69
I1
ssg70
g4088
sg63
(lp4095
I00
asbasbasbag56
(g72
g58
NtRp4096
(dp4097
g61
(dp4098
sg70
g4067
sg63
(lp4099
g56
(g77
g58
NtRp4100
(dp4101
g61
(dp4102
sg70
g4096
sg63
(lp4103
g56
(g57
g58
NtRp4104
(dp4105
g61
(dp4106
g69
I1
ssg70
g4100
sg63
(lp4107
S'/admin/default/errors/datos'
p4108
asbasbasbasbasbasbasbag56
(g72
g58
NtRp4109
(dp4110
g61
(dp4111
sg70
g3673
sg63
(lp4112
g56
(g77
g58
NtRp4113
(dp4114
g61
(dp4115
sg70
g4109
sg63
(lp4116
g56
(g57
g58
NtRp4117
(dp4118
g61
(dp4119
g69
I2
ssg70
g4113
sg63
(lp4120
g56
(g65
g58
NtRp4121
(dp4122
g61
(dp4123
g69
I1
ssg70
Nsg63
(lp4124
g56
(g72
g58
NtRp4125
(dp4126
g61
(dp4127
sg70
g4121
sg63
(lp4128
g56
(g77
g58
NtRp4129
(dp4130
g61
(dp4131
sg70
g4125
sg63
(lp4132
g56
(g57
g58
NtRp4133
(dp4134
g61
(dp4135
g69
I1
ssg70
g4129
sg63
(lp4136
g3564
(S's\x05\x00\x00\x00About'
tRp4137
asbasbasbag56
(g72
g58
NtRp4138
(dp4139
g61
(dp4140
sg70
g4121
sg63
(lp4141
g56
(g77
g58
NtRp4142
(dp4143
g61
(dp4144
sg70
g4138
sg63
(lp4145
g56
(g57
g58
NtRp4146
(dp4147
g61
(dp4148
g69
I1
ssg70
g4142
sg63
(lp4149
I00
asbasbasbag56
(g72
g58
NtRp4150
(dp4151
g61
(dp4152
sg70
g4121
sg63
(lp4153
g56
(g77
g58
NtRp4154
(dp4155
g61
(dp4156
sg70
g4150
sg63
(lp4157
g56
(g57
g58
NtRp4158
(dp4159
g61
(dp4160
g69
I1
ssg70
g4154
sg63
(lp4161
S'/admin/default/about/datos'
p4162
asbasbasbasbasbasbasbasbasbasbasbasbasbasbasbag56
(g72
g58
NtRp4163
(dp4164
g61
(dp4165
sg70
g3532
sg63
(lp4166
g56
(g77
g58
NtRp4167
(dp4168
g61
(dp4169
sg70
g4163
sg63
(lp4170
g56
(g57
g58
NtRp4171
(dp4172
g61
(dp4173
g69
I4
ssg70
g4167
sg63
(lp4174
g56
(g65
g58
NtRp4175
(dp4176
g61
(dp4177
g69
I3
ssg70
Nsg63
(lp4178
g56
(g72
g58
NtRp4179
(dp4180
g61
(dp4181
sg70
g4175
sg63
(lp4182
g56
(g77
g58
NtRp4183
(dp4184
g61
(dp4185
sg70
g4179
sg63
(lp4186
g56
(g57
g58
NtRp4187
(dp4188
g61
(dp4189
g69
I3
ssg70
g4183
sg63
(lp4190
g3564
(S's\t\x00\x00\x00Resources'
tRp4191
asbasbasbag56
(g72
g58
NtRp4192
(dp4193
g61
(dp4194
sg70
g4175
sg63
(lp4195
g56
(g77
g58
NtRp4196
(dp4197
g61
(dp4198
sg70
g4192
sg63
(lp4199
g56
(g57
g58
NtRp4200
(dp4201
g61
(dp4202
g69
I3
ssg70
g4196
sg63
(lp4203
g99
asbasbasbag56
(g72
g58
NtRp4204
(dp4205
g61
(dp4206
sg70
g4175
sg63
(lp4207
g56
(g77
g58
NtRp4208
(dp4209
g61
(dp4210
sg70
g4204
sg63
(lp4211
g56
(g57
g58
NtRp4212
(dp4213
g61
(dp4214
g69
I3
ssg70
g4208
sg63
(lp4215
S'None'
p4216
asbasbasbag56
(g72
g58
NtRp4217
(dp4218
g61
(dp4219
sg70
g4175
sg63
(lp4220
g56
(g77
g58
NtRp4221
(dp4222
g61
(dp4223
sg70
g4217
sg63
(lp4224
g56
(g57
g58
NtRp4225
(dp4226
g61
(dp4227
g69
I3
ssg70
g4221
sg63
(lp4228
g56
(g65
g58
NtRp4229
(dp4230
g61
(dp4231
g69
I2
ssg70
Nsg63
(lp4232
g56
(g72
g58
NtRp4233
(dp4234
g61
(dp4235
sg70
g4229
sg63
(lp4236
g56
(g77
g58
NtRp4237
(dp4238
g61
(dp4239
sg70
g4233
sg63
(lp4240
g56
(g57
g58
NtRp4241
(dp4242
g61
(dp4243
g69
I2
ssg70
g4237
sg63
(lp4244
g56
(g65
g58
NtRp4245
(dp4246
g61
(dp4247
g69
I1
ssg70
Nsg63
(lp4248
g56
(g72
g58
NtRp4249
(dp4250
g61
(dp4251
sg70
g4245
sg63
(lp4252
g56
(g77
g58
NtRp4253
(dp4254
g61
(dp4255
sg70
g4249
sg63
(lp4256
g56
(g57
g58
NtRp4257
(dp4258
g61
(dp4259
g69
I1
ssg70
g4253
sg63
(lp4260
g3564
(S's\r\x00\x00\x00Documentation'
tRp4261
asbasbasbag56
(g72
g58
NtRp4262
(dp4263
g61
(dp4264
sg70
g4245
sg63
(lp4265
g56
(g77
g58
NtRp4266
(dp4267
g61
(dp4268
sg70
g4262
sg63
(lp4269
g56
(g57
g58
NtRp4270
(dp4271
g61
(dp4272
g69
I1
ssg70
g4266
sg63
(lp4273
I00
asbasbasbag56
(g72
g58
NtRp4274
(dp4275
g61
(dp4276
sg70
g4245
sg63
(lp4277
g56
(g77
g58
NtRp4278
(dp4279
g61
(dp4280
sg70
g4274
sg63
(lp4281
g56
(g57
g58
NtRp4282
(dp4283
g61
(dp4284
g69
I1
ssg70
g4278
sg63
(lp4285
S'http://www.web2py.com/book'
p4286
asbasbasbag56
(g72
g58
NtRp4287
(dp4288
g61
(dp4289
sg70
g4245
sg63
(lp4290
g56
(g77
g58
NtRp4291
(dp4292
g61
(dp4293
sg70
g4287
sg63
(lp4294
g56
(g57
g58
NtRp4295
(dp4296
g61
(dp4297
g69
I1
ssg70
g4291
sg63
(lp4298
(lp4299
(g3564
(S's\x07\x00\x00\x00Preface'
tRp4300
I00
S'http://www.web2py.com/book/default/chapter/00'
tp4301
a(g3564
(S's\x0c\x00\x00\x00Introduction'
tRp4302
I00
S'http://www.web2py.com/book/default/chapter/01'
tp4303
a(g3564
(S's\x06\x00\x00\x00Python'
tRp4304
I00
S'http://www.web2py.com/book/default/chapter/02'
tp4305
a(g3564
(S's\x08\x00\x00\x00Overview'
tRp4306
I00
S'http://www.web2py.com/book/default/chapter/03'
tp4307
a(g3564
(S's\x08\x00\x00\x00The Core'
tRp4308
I00
S'http://www.web2py.com/book/default/chapter/04'
tp4309
a(g3564
(S's\t\x00\x00\x00The Views'
tRp4310
I00
S'http://www.web2py.com/book/default/chapter/05'
tp4311
a(g3564
(S's\x08\x00\x00\x00Database'
tRp4312
I00
S'http://www.web2py.com/book/default/chapter/06'
tp4313
a(g3564
(S's\x14\x00\x00\x00Forms and Validators'
tRp4314
I00
S'http://www.web2py.com/book/default/chapter/07'
tp4315
a(g3564
(S's\x0e\x00\x00\x00Access Control'
tRp4316
I00
S'http://www.web2py.com/book/default/chapter/08'
tp4317
a(g3564
(S's\x08\x00\x00\x00Services'
tRp4318
I00
S'http://www.web2py.com/book/default/chapter/09'
tp4319
a(g3564
(S's\x0c\x00\x00\x00Ajax Recipes'
tRp4320
I00
S'http://www.web2py.com/book/default/chapter/10'
tp4321
a(g3564
(S's\x12\x00\x00\x00Deployment Recipes'
tRp4322
I00
S'http://www.web2py.com/book/default/chapter/11'
tp4323
a(g3564
(S's\r\x00\x00\x00Other Recipes'
tRp4324
I00
S'http://www.web2py.com/book/default/chapter/12'
tp4325
a(g3564
(S's\r\x00\x00\x00Buy this book'
tRp4326
I00
S'http://stores.lulu.com/web2py'
tp4327
aasbasbasbasbasbasbasbag56
(g72
g58
NtRp4328
(dp4329
g61
(dp4330
sg70
g4229
sg63
(lp4331
g56
(g77
g58
NtRp4332
(dp4333
g61
(dp4334
sg70
g4328
sg63
(lp4335
g56
(g57
g58
NtRp4336
(dp4337
g61
(dp4338
g69
I2
ssg70
g4332
sg63
(lp4339
g56
(g65
g58
NtRp4340
(dp4341
g61
(dp4342
g69
I1
ssg70
Nsg63
(lp4343
g56
(g72
g58
NtRp4344
(dp4345
g61
(dp4346
sg70
g4340
sg63
(lp4347
g56
(g77
g58
NtRp4348
(dp4349
g61
(dp4350
sg70
g4344
sg63
(lp4351
g56
(g57
g58
NtRp4352
(dp4353
g61
(dp4354
g69
I1
ssg70
g4348
sg63
(lp4355
g3564
(S's\t\x00\x00\x00Community'
tRp4356
asbasbasbag56
(g72
g58
NtRp4357
(dp4358
g61
(dp4359
sg70
g4340
sg63
(lp4360
g56
(g77
g58
NtRp4361
(dp4362
g61
(dp4363
sg70
g4357
sg63
(lp4364
g56
(g57
g58
NtRp4365
(dp4366
g61
(dp4367
g69
I1
ssg70
g4361
sg63
(lp4368
I00
asbasbasbag56
(g72
g58
NtRp4369
(dp4370
g61
(dp4371
sg70
g4340
sg63
(lp4372
g56
(g77
g58
NtRp4373
(dp4374
g61
(dp4375
sg70
g4369
sg63
(lp4376
g56
(g57
g58
NtRp4377
(dp4378
g61
(dp4379
g69
I1
ssg70
g4373
sg63
(lp4380
Nasbasbasbag56
(g72
g58
NtRp4381
(dp4382
g61
(dp4383
sg70
g4340
sg63
(lp4384
g56
(g77
g58
NtRp4385
(dp4386
g61
(dp4387
sg70
g4381
sg63
(lp4388
g56
(g57
g58
NtRp4389
(dp4390
g61
(dp4391
g69
I1
ssg70
g4385
sg63
(lp4392
(lp4393
(g3564
(S's\x06\x00\x00\x00Groups'
tRp4394
I00
S'http://www.web2py.com/examples/default/usergroups'
tp4395
a(g3564
(S's\x07\x00\x00\x00Twitter'
tRp4396
I00
S'http://twitter.com/web2py'
tp4397
a(g3564
(S's\t\x00\x00\x00Live chat'
tRp4398
I00
S'http://mibbit.com/?channel=%23web2py&server=irc.mibbit.net'
tp4399
a(g3564
(S's\n\x00\x00\x00User Voice'
tRp4400
I00
S'http://web2py.uservoice.com/'
tp4401
aasbasbasbasbasbasbasbag56
(g72
g58
NtRp4402
(dp4403
g61
(dp4404
sg70
g4229
sg63
(lp4405
g56
(g77
g58
NtRp4406
(dp4407
g61
(dp4408
sg70
g4402
sg63
(lp4409
g56
(g57
g58
NtRp4410
(dp4411
g61
(dp4412
g69
I2
ssg70
g4406
sg63
(lp4413
g56
(g65
g58
NtRp4414
(dp4415
g61
(dp4416
g69
I1
ssg70
Nsg63
(lp4417
g56
(g72
g58
NtRp4418
(dp4419
g61
(dp4420
sg70
g4414
sg63
(lp4421
g56
(g77
g58
NtRp4422
(dp4423
g61
(dp4424
sg70
g4418
sg63
(lp4425
g56
(g57
g58
NtRp4426
(dp4427
g61
(dp4428
g69
I1
ssg70
g4422
sg63
(lp4429
g3564
(S's\x06\x00\x00\x00Web2py'
tRp4430
asbasbasbag56
(g72
g58
NtRp4431
(dp4432
g61
(dp4433
sg70
g4414
sg63
(lp4434
g56
(g77
g58
NtRp4435
(dp4436
g61
(dp4437
sg70
g4431
sg63
(lp4438
g56
(g57
g58
NtRp4439
(dp4440
g61
(dp4441
g69
I1
ssg70
g4435
sg63
(lp4442
I00
asbasbasbag56
(g72
g58
NtRp4443
(dp4444
g61
(dp4445
sg70
g4414
sg63
(lp4446
g56
(g77
g58
NtRp4447
(dp4448
g61
(dp4449
sg70
g4443
sg63
(lp4450
g56
(g57
g58
NtRp4451
(dp4452
g61
(dp4453
g69
I1
ssg70
g4447
sg63
(lp4454
S'http://www.web2py.com'
p4455
asbasbasbag56
(g72
g58
NtRp4456
(dp4457
g61
(dp4458
sg70
g4414
sg63
(lp4459
g56
(g77
g58
NtRp4460
(dp4461
g61
(dp4462
sg70
g4456
sg63
(lp4463
g56
(g57
g58
NtRp4464
(dp4465
g61
(dp4466
g69
I1
ssg70
g4460
sg63
(lp4467
(lp4468
(g3564
(S's\x08\x00\x00\x00Download'
tRp4469
I00
S'http://www.web2py.com/examples/default/download'
tp4470
a(g3564
(S's\x07\x00\x00\x00Support'
tRp4471
I00
S'http://www.web2py.com/examples/default/support'
tp4472
a(g3564
(S's\x0e\x00\x00\x00Quick Examples'
tRp4473
I00
S'http://web2py.com/examples/default/examples'
tp4474
a(g3564
(S's\x03\x00\x00\x00FAQ'
tRp4475
I00
S'http://web2py.com/AlterEgo'
tp4476
a(g3564
(S's\x11\x00\x00\x00Free Applications'
tRp4477
I00
S'http://web2py.com/appliances'
tp4478
a(g3564
(S's\x07\x00\x00\x00Plugins'
tRp4479
I00
S'http://web2py.com/plugins'
tp4480
a(g3564
(S's\x07\x00\x00\x00Recipes'
tRp4481
I00
S'http://web2pyslices.com/'
tp4482
a(g3564
(S's\x04\x00\x00\x00Demo'
tRp4483
I00
S'http://web2py.com/demo_admin'
tp4484
a(g3564
(S's\x08\x00\x00\x00Semantic'
tRp4485
I00
S'http://web2py.com/semantic'
tp4486
a(g3564
(S's\x07\x00\x00\x00Layouts'
tRp4487
I00
S'http://web2py.com/layouts'
tp4488
a(g3564
(S's\x06\x00\x00\x00Videos'
tRp4489
I00
S'http://www.web2py.com/examples/default/videos/'
tp4490
aasbasbasbasbasbasbasbasbasbasbasbasbasbasbasbasbasbasbasbag56
(g72
g58
NtRp4491
(dp4492
g61
(dp4493
sg70
g3018
sg63
(lp4494
g56
(g77
g58
NtRp4495
(dp4496
g61
(dp4497
g81
g82
ssg70
g4491
sg63
(lp4498
S'meta'
p4499
asbag56
(g77
g58
NtRp4500
(dp4501
g61
(dp4502
g88
g89
ssg70
g4491
sg63
(lp4503
S':'
asbag56
(g77
g58
NtRp4504
(dp4505
g61
(dp4506
sg70
g4491
sg63
(lp4507
g56
(g57
g58
NtRp4508
(dp4509
g61
(dp4510
g69
I5
ssg70
g4504
sg63
(lp4511
g56
(g65
g58
NtRp4512
(dp4513
g61
(dp4514
g69
I4
ssg70
Nsg63
(lp4515
g56
(g72
g58
NtRp4516
(dp4517
g61
(dp4518
sg70
g4512
sg63
(lp4519
g56
(g77
g58
NtRp4520
(dp4521
g61
(dp4522
g81
g82
ssg70
g4516
sg63
(lp4523
S'author'
p4524
asbag56
(g77
g58
NtRp4525
(dp4526
g61
(dp4527
g88
g89
ssg70
g4516
sg63
(lp4528
S':'
asbag56
(g77
g58
NtRp4529
(dp4530
g61
(dp4531
sg70
g4516
sg63
(lp4532
g56
(g57
g58
NtRp4533
(dp4534
g61
(dp4535
g69
I4
ssg70
g4529
sg63
(lp4536
S'you'
p4537
asbasbasbag56
(g72
g58
NtRp4538
(dp4539
g61
(dp4540
sg70
g4512
sg63
(lp4541
g56
(g77
g58
NtRp4542
(dp4543
g61
(dp4544
g81
g82
ssg70
g4538
sg63
(lp4545
S'copyright'
p4546
asbag56
(g77
g58
NtRp4547
(dp4548
g61
(dp4549
g88
g89
ssg70
g4538
sg63
(lp4550
S':'
asbag56
(g77
g58
NtRp4551
(dp4552
g61
(dp4553
sg70
g4538
sg63
(lp4554
g56
(g57
g58
NtRp4555
(dp4556
g61
(dp4557
g69
I4
ssg70
g4551
sg63
(lp4558
S'Copyright 2007-2010'
p4559
asbasbasbag56
(g72
g58
NtRp4560
(dp4561
g61
(dp4562
sg70
g4512
sg63
(lp4563
g56
(g77
g58
NtRp4564
(dp4565
g61
(dp4566
g81
g82
ssg70
g4560
sg63
(lp4567
S'description'
p4568
asbag56
(g77
g58
NtRp4569
(dp4570
g61
(dp4571
g88
g89
ssg70
g4560
sg63
(lp4572
S':'
asbag56
(g77
g58
NtRp4573
(dp4574
g61
(dp4575
sg70
g4560
sg63
(lp4576
g56
(g57
g58
NtRp4577
(dp4578
g61
(dp4579
g69
I4
ssg70
g4573
sg63
(lp4580
S'Free and open source full-stack enterprise framework for agile development of fast, scalable, secure and portable database-driven web-based applications. Written and programmable in Python'
p4581
asbasbasbag56
(g72
g58
NtRp4582
(dp4583
g61
(dp4584
sg70
g4512
sg63
(lp4585
g56
(g77
g58
NtRp4586
(dp4587
g61
(dp4588
g81
g82
ssg70
g4582
sg63
(lp4589
S'generator'
p4590
asbag56
(g77
g58
NtRp4591
(dp4592
g61
(dp4593
g88
g89
ssg70
g4582
sg63
(lp4594
S':'
asbag56
(g77
g58
NtRp4595
(dp4596
g61
(dp4597
sg70
g4582
sg63
(lp4598
g56
(g57
g58
NtRp4599
(dp4600
g61
(dp4601
g69
I4
ssg70
g4595
sg63
(lp4602
S'Web2py Enterprise Framework'
p4603
asbasbasbag56
(g72
g58
NtRp4604
(dp4605
g61
(dp4606
sg70
g4512
sg63
(lp4607
g56
(g77
g58
NtRp4608
(dp4609
g61
(dp4610
g81
g82
ssg70
g4604
sg63
(lp4611
S'keywords'
p4612
asbag56
(g77
g58
NtRp4613
(dp4614
g61
(dp4615
g88
g89
ssg70
g4604
sg63
(lp4616
S':'
asbag56
(g77
g58
NtRp4617
(dp4618
g61
(dp4619
sg70
g4604
sg63
(lp4620
g56
(g57
g58
NtRp4621
(dp4622
g61
(dp4623
g69
I4
ssg70
g4617
sg63
(lp4624
S'web2py, python, framework'
p4625
asbasbasbasbasbasbasbag56
(g72
g58
NtRp4626
(dp4627
g61
(dp4628
sg70
g3018
sg63
(lp4629
g56
(g77
g58
NtRp4630
(dp4631
g61
(dp4632
g81
g82
ssg70
g4626
sg63
(lp4633
S'postprocessing'
p4634
asbag56
(g77
g58
NtRp4635
(dp4636
g61
(dp4637
g88
g89
ssg70
g4626
sg63
(lp4638
S':'
asbag56
(g77
g58
NtRp4639
(dp4640
g61
(dp4641
sg70
g4626
sg63
(lp4642
g56
(g57
g58
NtRp4643
(dp4644
g61
(dp4645
g69
I5
ssg70
g4639
sg63
(lp4646
g56
(g65
g58
NtRp4647
(dp4648
g61
(dp4649
g69
I4
ssg70
Nsg63
(lp4650
sbasbasbasbag56
(g72
g58
NtRp4651
(dp4652
g61
(dp4653
sg70
g3018
sg63
(lp4654
g56
(g77
g58
NtRp4655
(dp4656
g61
(dp4657
g81
g82
ssg70
g4651
sg63
(lp4658
S'session_file'
p4659
asbag56
(g77
g58
NtRp4660
(dp4661
g61
(dp4662
g88
g89
ssg70
g4651
sg63
(lp4663
S':'
asbag56
(g77
g58
NtRp4664
(dp4665
g61
(dp4666
sg70
g4651
sg63
(lp4667
g56
(g57
g58
NtRp4668
(dp4669
g61
(dp4670
g69
I5
ssg70
g4664
sg63
(lp4671
S"<open file '/home/alumno/web2py/applications/datos/sessions/127.0.0.1-46d2cb62-581d-41be-b0c5-47ee0f5ac400', mode 'rb+' at 0x9952b78>"
p4672
asbasbasbag56
(g72
g58
NtRp4673
(dp4674
g61
(dp4675
sg70
g3018
sg63
(lp4676
g56
(g77
g58
NtRp4677
(dp4678
g61
(dp4679
g81
g82
ssg70
g4673
sg63
(lp4680
S'session_filename'
p4681
asbag56
(g77
g58
NtRp4682
(dp4683
g61
(dp4684
g88
g89
ssg70
g4673
sg63
(lp4685
S':'
asbag56
(g77
g58
NtRp4686
(dp4687
g61
(dp4688
sg70
g4673
sg63
(lp4689
g56
(g57
g58
NtRp4690
(dp4691
g61
(dp4692
g69
I5
ssg70
g4686
sg63
(lp4693
S'/home/alumno/web2py/applications/datos/sessions/127.0.0.1-46d2cb62-581d-41be-b0c5-47ee0f5ac400'
p4694
asbasbasbag56
(g72
g58
NtRp4695
(dp4696
g61
(dp4697
sg70
g3018
sg63
(lp4698
g56
(g77
g58
NtRp4699
(dp4700
g61
(dp4701
g81
g82
ssg70
g4695
sg63
(lp4702
S'session_id'
p4703
asbag56
(g77
g58
NtRp4704
(dp4705
g61
(dp4706
g88
g89
ssg70
g4695
sg63
(lp4707
S':'
asbag56
(g77
g58
NtRp4708
(dp4709
g61
(dp4710
sg70
g4695
sg63
(lp4711
g56
(g57
g58
NtRp4712
(dp4713
g61
(dp4714
g69
I5
ssg70
g4708
sg63
(lp4715
S'127.0.0.1-46d2cb62-581d-41be-b0c5-47ee0f5ac400'
p4716
asbasbasbag56
(g72
g58
NtRp4717
(dp4718
g61
(dp4719
sg70
g3018
sg63
(lp4720
g56
(g77
g58
NtRp4721
(dp4722
g61
(dp4723
g81
g82
ssg70
g4717
sg63
(lp4724
S'session_id_name'
p4725
asbag56
(g77
g58
NtRp4726
(dp4727
g61
(dp4728
g88
g89
ssg70
g4717
sg63
(lp4729
S':'
asbag56
(g77
g58
NtRp4730
(dp4731
g61
(dp4732
sg70
g4717
sg63
(lp4733
g56
(g57
g58
NtRp4734
(dp4735
g61
(dp4736
g69
I5
ssg70
g4730
sg63
(lp4737
g3075
asbasbasbag56
(g72
g58
NtRp4738
(dp4739
g61
(dp4740
sg70
g3018
sg63
(lp4741
g56
(g77
g58
NtRp4742
(dp4743
g61
(dp4744
g81
g82
ssg70
g4738
sg63
(lp4745
S'session_locked'
p4746
asbag56
(g77
g58
NtRp4747
(dp4748
g61
(dp4749
g88
g89
ssg70
g4738
sg63
(lp4750
S':'
asbag56
(g77
g58
NtRp4751
(dp4752
g61
(dp4753
sg70
g4738
sg63
(lp4754
g56
(g57
g58
NtRp4755
(dp4756
g61
(dp4757
g69
I5
ssg70
g4751
sg63
(lp4758
g1939
asbasbasbag56
(g72
g58
NtRp4759
(dp4760
g61
(dp4761
sg70
g3018
sg63
(lp4762
g56
(g77
g58
NtRp4763
(dp4764
g61
(dp4765
g81
g82
ssg70
g4759
sg63
(lp4766
S'session_new'
p4767
asbag56
(g77
g58
NtRp4768
(dp4769
g61
(dp4770
g88
g89
ssg70
g4759
sg63
(lp4771
S':'
asbag56
(g77
g58
NtRp4772
(dp4773
g61
(dp4774
sg70
g4759
sg63
(lp4775
g56
(g57
g58
NtRp4776
(dp4777
g61
(dp4778
g69
I5
ssg70
g4772
sg63
(lp4779
g99
asbasbasbag56
(g72
g58
NtRp4780
(dp4781
g61
(dp4782
sg70
g3018
sg63
(lp4783
g56
(g77
g58
NtRp4784
(dp4785
g61
(dp4786
g81
g82
ssg70
g4780
sg63
(lp4787
S'status'
p4788
asbag56
(g77
g58
NtRp4789
(dp4790
g61
(dp4791
g88
g89
ssg70
g4780
sg63
(lp4792
S':'
asbag56
(g77
g58
NtRp4793
(dp4794
g61
(dp4795
sg70
g4780
sg63
(lp4796
g56
(g57
g58
NtRp4797
(dp4798
g61
(dp4799
g69
I5
ssg70
g4793
sg63
(lp4800
S'200'
p4801
asbasbasbag56
(g72
g58
NtRp4802
(dp4803
g61
(dp4804
sg70
g3018
sg63
(lp4805
g56
(g77
g58
NtRp4806
(dp4807
g61
(dp4808
g81
g82
ssg70
g4802
sg63
(lp4809
S'subtitle'
p4810
asbag56
(g77
g58
NtRp4811
(dp4812
g61
(dp4813
g88
g89
ssg70
g4802
sg63
(lp4814
S':'
asbag56
(g77
g58
NtRp4815
(dp4816
g61
(dp4817
sg70
g4802
sg63
(lp4818
g56
(g57
g58
NtRp4819
(dp4820
g61
(dp4821
g69
I5
ssg70
g4815
sg63
(lp4822
g3564
(S's\r\x00\x00\x00customize me!'
tRp4823
asbasbasbag56
(g72
g58
NtRp4824
(dp4825
g61
(dp4826
sg70
g3018
sg63
(lp4827
g56
(g77
g58
NtRp4828
(dp4829
g61
(dp4830
g81
g82
ssg70
g4824
sg63
(lp4831
S'title'
p4832
asbag56
(g77
g58
NtRp4833
(dp4834
g61
(dp4835
g88
g89
ssg70
g4824
sg63
(lp4836
S':'
asbag56
(g77
g58
NtRp4837
(dp4838
g61
(dp4839
sg70
g4824
sg63
(lp4840
g56
(g57
g58
NtRp4841
(dp4842
g61
(dp4843
g69
I5
ssg70
g4837
sg63
(lp4844
g121
asbasbasbag56
(g72
g58
NtRp4845
(dp4846
g61
(dp4847
sg70
g3018
sg63
(lp4848
g56
(g77
g58
NtRp4849
(dp4850
g61
(dp4851
g81
g82
ssg70
g4845
sg63
(lp4852
g2263
asbag56
(g77
g58
NtRp4853
(dp4854
g61
(dp4855
g88
g89
ssg70
g4845
sg63
(lp4856
S':'
asbag56
(g77
g58
NtRp4857
(dp4858
g61
(dp4859
sg70
g4845
sg63
(lp4860
g56
(g57
g58
NtRp4861
(dp4862
g61
(dp4863
g69
I5
ssg70
g4857
sg63
(lp4864
g2276
asbasbasbag56
(g72
g58
NtRp4865
(dp4866
g61
(dp4867
sg70
g3018
sg63
(lp4868
g56
(g77
g58
NtRp4869
(dp4870
g61
(dp4871
g81
g82
ssg70
g4865
sg63
(lp4872
S'view'
p4873
asbag56
(g77
g58
NtRp4874
(dp4875
g61
(dp4876
g88
g89
ssg70
g4865
sg63
(lp4877
S':'
asbag56
(g77
g58
NtRp4878
(dp4879
g61
(dp4880
sg70
g4865
sg63
(lp4881
g56
(g57
g58
NtRp4882
(dp4883
g61
(dp4884
g69
I5
ssg70
g4878
sg63
(lp4885
S'default/index.html'
p4886
asbasbasbasbasbsS'locals'
p4887
(dp4888
S'profesores'
p4889
S'<gluon.dal.Rows object>'
p4890
sS'OBJECT'
p4891
S"<class 'gluon.html.OBJECT'>"
p4892
sS'_file'
p4893
S"'/datos/static/js/superfish.js'"
p4894
sS'SQLDB'
p4895
S"<class 'gluon.dal.DAL'>"
p4896
sg2978
S"<Storage {'_formkey[curso/create]': '43deabd9-5b...reate]': '3bd6680e-7dc4-4090-a991-e8234a164e3f'}>"
p4897
sS'LINK'
p4898
S"<class 'gluon.html.LINK'>"
p4899
sS'BR'
p4900
S"<class 'gluon.html.BR'>"
p4901
sS'local_import'
p4902
S'<function <lambda>>'
p4903
sS'OPTGROUP'
p4904
S"<class 'gluon.html.OPTGROUP'>"
p4905
sS'PRE'
p4906
S"<class 'gluon.html.PRE'>"
p4907
sS'IS_INT_IN_RANGE'
p4908
S"<class 'gluon.validators.IS_INT_IN_RANGE'>"
p4909
sS'left_sidebar_enabled'
p4910
g99
sS'IS_LOWER'
p4911
S"<class 'gluon.validators.IS_LOWER'>"
p4912
sS'IS_STRONG'
p4913
S"<class 'gluon.validators.IS_STRONG'>"
p4914
sS'datetime'
p4915
S"<module 'datetime' from '/usr/lib/python2.6/lib-dynload/datetime.so'>"
p4916
sS'cache'
p4917
S'<gluon.cache.Cache object>'
p4918
sS'IS_IN_DB'
p4919
S"<class 'gluon.validators.IS_IN_DB'>"
p4920
sS'TAG'
p4921
S'<gluon.html.__TAG__ object>'
p4922
sS'_k'
p4923
S'5'
sS'SQLField'
p4924
S"<class 'gluon.dal.Field'>"
p4925
sS'BODY'
p4926
S"<class 'gluon.html.BODY'>"
p4927
sS'IS_DATE_IN_RANGE'
p4928
S"<class 'gluon.validators.IS_DATE_IN_RANGE'>"
p4929
sS'TH'
p4930
S"<class 'gluon.html.TH'>"
p4931
sS'URL'
p4932
S'<function URL>'
p4933
sS'__file__'
p4934
S"'/home/alumno/web2py/applications/datos/views/default/index.html'"
p4935
sS'db'
p4936
S"<DAL {'alumno_curso': <Table {'ALL': <gluon.dal....ng_references': {}, '_uri': 'sqlite://datos.db'}>"
p4937
sS'P'
S"<class 'gluon.html.P'>"
p4938
sS'TFOOT'
p4939
S"<class 'gluon.html.TFOOT'>"
p4940
sS'XHTML'
p4941
S"<class 'gluon.html.XHTML'>"
p4942
sg2194
S'datetime.datetime(2011, 9, 10, 18, 52, 36, 111561)'
p4943
sS'ON'
p4944
g1939
sS'OL'
p4945
S"<class 'gluon.html.OL'>"
p4946
sS'TEXTAREA'
p4947
S"<class 'gluon.html.TEXTAREA'>"
p4948
sS'MENU'
p4949
S"<class 'gluon.html.MENU'>"
p4950
sS'_file0'
p4951
S"'/datos/static/js/superfish.js'"
p4952
sS'LOAD'
p4953
S'<gluon.compileapp.LoadFactory object>'
p4954
sS'CODE'
p4955
S"<class 'gluon.html.CODE'>"
p4956
sS'HTTP'
p4957
S"<class 'gluon.http.HTTP'>"
p4958
sS'HR'
p4959
S"<class 'gluon.html.HR'>"
p4960
sS'IS_DATETIME'
p4961
S"<class 'gluon.validators.IS_DATETIME'>"
p4962
sS'HEAD'
p4963
S"<class 'gluon.html.HEAD'>"
p4964
sS'LABEL'
p4965
S"<class 'gluon.html.LABEL'>"
p4966
sS'CLEANUP'
p4967
S"<class 'gluon.validators.CLEANUP'>"
p4968
sS'SELECT'
p4969
S"<class 'gluon.html.SELECT'>"
p4970
sS'CENTER'
p4971
S"<class 'gluon.html.CENTER'>"
p4972
sS'left_sidebar_style'
p4973
S'\'style="display: none;"\''
p4974
sS'alumnos'
p4975
S'<gluon.dal.Rows object>'
p4976
sS'__builtins__'
p4977
S"{'ArithmeticError': <type 'exceptions.ArithmeticError'>, 'AssertionError': <type 'exceptions.AssertionError'>, 'AttributeError': <type 'exceptions.AttributeError'>, 'BaseException': <type 'exceptions.BaseException'>, 'BufferError': <type 'exceptions.BufferError'>, 'BytesWarning': <type 'exceptions.BytesWarning'>, 'DeprecationWarning': <type 'exceptions.DeprecationWarning'>, 'EOFError': <type 'exceptions.EOFError'>, 'Ellipsis': Ellipsis, 'EnvironmentError': <type 'exceptions.EnvironmentError'>, ...}"
p4978
sS'IS_LIST_OF'
p4979
S"<class 'gluon.validators.IS_LIST_OF'>"
p4980
sS'SQLFORM'
p4981
S"<class 'gluon.sqlhtml.SQLFORM'>"
p4982
sS'_item'
p4983
S"'author'"
p4984
sS'EM'
p4985
S"<class 'gluon.html.EM'>"
p4986
sS'redirect'
p4987
S'<function redirect>'
p4988
sS'FIELDSET'
p4989
S"<class 'gluon.html.FIELDSET'>"
p4990
sS'IS_EQUAL_TO'
p4991
S"<class 'gluon.validators.IS_EQUAL_TO'>"
p4992
sS'embed64'
p4993
S'<function embed64>'
p4994
sS'INPUT'
p4995
S"<class 'gluon.html.INPUT'>"
p4996
sS'profesor'
p4997
S"<Row {'update_record': <function <lambda> at 0x9...elete_record': <function <lambda> at 0x965e374>}>"
p4998
sS'FORM'
p4999
S"<class 'gluon.html.FORM'>"
p5000
sS'width_content'
p5001
S"'100%'"
p5002
sS'H2'
p5003
S"<class 'gluon.html.H2'>"
p5004
sS'H3'
p5005
S"<class 'gluon.html.H3'>"
p5006
sS'H1'
p5007
S"<class 'gluon.html.H1'>"
p5008
sS'H6'
p5009
S"<class 'gluon.html.H6'>"
p5010
sS'H4'
p5011
S"<class 'gluon.html.H4'>"
p5012
sS'H5'
p5013
S"<class 'gluon.html.H5'>"
p5014
sS'UL'
p5015
S"<class 'gluon.html.UL'>"
p5016
sS'IS_UPPER'
p5017
S"<class 'gluon.validators.IS_UPPER'>"
p5018
sS'xmlescape'
p5019
S'<function xmlescape>'
p5020
sS'IS_TIME'
p5021
S"<class 'gluon.validators.IS_TIME'>"
p5022
sS'OPTION'
p5023
S"<class 'gluon.html.OPTION'>"
p5024
sS'TITLE'
p5025
S"<class 'gluon.html.TITLE'>"
p5026
sS'CRYPT'
p5027
S"<class 'gluon.validators.CRYPT'>"
p5028
sS'IS_EMPTY_OR'
p5029
S"<class 'gluon.validators.IS_EMPTY_OR'>"
p5030
sS'MARKMIN'
p5031
S"<class 'gluon.html.MARKMIN'>"
p5032
sS'EMBED'
p5033
S"<class 'gluon.html.EMBED'>"
p5034
sS'SCRIPT'
p5035
S"<class 'gluon.html.SCRIPT'>"
p5036
sS'TABLE'
p5037
S"<class 'gluon.html.TABLE'>"
p5038
sS'IS_IPV4'
p5039
S"<class 'gluon.validators.IS_IPV4'>"
p5040
sS'IS_LENGTH'
p5041
S"<class 'gluon.validators.IS_LENGTH'>"
p5042
sS'XML'
p5043
S"<class 'gluon.html.XML'>"
p5044
sS'B'
S"<class 'gluon.html.B'>"
p5045
sS'IMG'
p5046
S"<class 'gluon.html.IMG'>"
p5047
sS'SQLTABLE'
p5048
S"<class 'gluon.sqlhtml.SQLTABLE'>"
p5049
sS'IS_MATCH'
p5050
S"<class 'gluon.validators.IS_MATCH'>"
p5051
sS'IS_ALPHANUMERIC'
p5052
S"<class 'gluon.validators.IS_ALPHANUMERIC'>"
p5053
sS'SPAN'
p5054
S"<class 'gluon.html.SPAN'>"
p5055
sS'IS_SLUG'
p5056
S"<class 'gluon.validators.IS_SLUG'>"
p5057
sS'cursos'
p5058
S'<gluon.dal.Rows object>'
p5059
sS'BEAUTIFY'
p5060
S"<class 'gluon.html.BEAUTIFY'>"
p5061
sS'META'
p5062
S"<class 'gluon.html.META'>"
p5063
sS'IS_DATE'
p5064
S"<class 'gluon.validators.IS_DATE'>"
p5065
sS'IS_EMAIL'
p5066
S"<class 'gluon.validators.IS_EMAIL'>"
p5067
sS'IS_NOT_EMPTY'
p5068
S"<class 'gluon.validators.IS_NOT_EMPTY'>"
p5069
sg55
S"<Storage {'is_local': True, 'function': 'index',....18-52-36.17888359-696b-408b-8d18-4e24853aecc7'}>"
p5070
sS'TBODY'
p5071
S"<class 'gluon.html.TBODY'>"
p5072
sS'Field'
p5073
S"<class 'gluon.dal.Field'>"
p5074
sS'DIV'
p5075
S"<class 'gluon.html.DIV'>"
p5076
sS'LEGEND'
p5077
S"<class 'gluon.html.LEGEND'>"
p5078
sS'DAL'
p5079
S"<class 'gluon.dal.DAL'>"
p5080
sS'TT'
p5081
S"<class 'gluon.html.TT'>"
p5082
sS'TR'
p5083
S"<class 'gluon.html.TR'>"
p5084
sS'LI'
p5085
S"<class 'gluon.html.LI'>"
p5086
sS'right_sidebar_enabled'
p5087
g99
sS'IFRAME'
p5088
S"<class 'gluon.html.IFRAME'>"
p5089
sS'TD'
p5090
S"<class 'gluon.html.TD'>"
p5091
sS'IS_URL'
p5092
S"<class 'gluon.validators.IS_URL'>"
p5093
sS'A'
S"<class 'gluon.html.A'>"
p5094
sS'STYLE'
p5095
S"<class 'gluon.html.STYLE'>"
p5096
sS'IS_DATETIME_IN_RANGE'
p5097
S"<class 'gluon.validators.IS_DATETIME_IN_RANGE'>"
p5098
sS'HTML'
p5099
S"<class 'gluon.html.HTML'>"
p5100
sS'IS_IMAGE'
p5101
S"<class 'gluon.validators.IS_IMAGE'>"
p5102
sS'I'
S"<class 'gluon.html.I'>"
p5103
sS'right_sidebar_style'
p5104
S'\'style="display: none;"\''
p5105
sS'IS_NOT_IN_DB'
p5106
S"<class 'gluon.validators.IS_NOT_IN_DB'>"
p5107
sg3013
S"<Storage {'body': <cStringIO.StringO object at 0...da> at 0x965dca4>, 'view': 'default/index.html'}>"
p5108
sS'THEAD'
p5109
S"<class 'gluon.html.THEAD'>"
p5110
sS'IS_NULL_OR'
p5111
S"<class 'gluon.validators.IS_EMPTY_OR'>"
p5112
sS'alumno'
p5113
S"<Row {'alumno_curso': <gluon.dal.Set object at 0...elete_record': <function <lambda> at 0x965ef7c>}>"
p5114
sS'IS_FLOAT_IN_RANGE'
p5115
S"<class 'gluon.validators.IS_FLOAT_IN_RANGE'>"
p5116
sS'IS_EXPR'
p5117
S"<class 'gluon.validators.IS_EXPR'>"
p5118
sS'T'
S'<gluon.languages.translator object>'
p5119
sS'IS_IN_SET'
p5120
S"<class 'gluon.validators.IS_IN_SET'>"
p5121
sS'IS_UPLOAD_FILENAME'
p5122
S"<class 'gluon.validators.IS_UPLOAD_FILENAME'>"
p5123
sS'style_content'
p5124
S'\'style="width: 100%"\''
p5125
sS'IS_DECIMAL_IN_RANGE'
p5126
S"<class 'gluon.validators.IS_DECIMAL_IN_RANGE'>"
p5127
sssS'traceback'
p5128
S'Traceback (most recent call last):\n  File "/home/alumno/web2py/gluon/restricted.py", line 192, in restricted\n    exec ccode in environment\n  File "/home/alumno/web2py/applications/datos/views/default/index.html", line 119, in <module>\nNameError: name \'curso\' is not defined\n'
p5129
s.